
/home/ralsina/code/terminado/bt2i2c/host/pico_receiver/build_receiver/pico_receiver.elf:     file format elf32-littlearm

Sections:
Idx Name          Size      VMA       LMA       File off  Algn
  0 .boot2        00000100  10000000  10000000  00001000  2**0
                  CONTENTS, ALLOC, LOAD, READONLY, CODE
  1 .text         00006cdc  10000100  10000100  00001100  2**3
                  CONTENTS, ALLOC, LOAD, READONLY, CODE
  2 .rodata       00000a8c  10006de0  10006de0  00007de0  2**3
                  CONTENTS, ALLOC, LOAD, READONLY, DATA
  3 .binary_info  00000020  1000786c  1000786c  0000886c  2**2
                  CONTENTS, ALLOC, LOAD, READONLY, DATA
  4 .ram_vector_table 000000c0  20000000  20000000  0000b000  2**2
                  ALLOC
  5 .uninitialized_data 00000000  200000c0  200000c0  0000a068  2**0
                  CONTENTS
  6 .data         00000fa8  200000c0  1000788c  000090c0  2**4
                  CONTENTS, ALLOC, LOAD, READONLY, CODE
  7 .tdata        00000000  20001068  20001068  0000a068  2**0
                  CONTENTS, ALLOC, LOAD, DATA, THREAD_LOCAL
  8 .tbss         00000000  20001068  20001068  00000000  2**0
                  ALLOC, THREAD_LOCAL
  9 .bss          00000efc  20001068  10008834  0000a068  2**3
                  ALLOC
 10 .heap         00000800  20001f64  10008834  0000af64  2**2
                  ALLOC, READONLY
 11 .scratch_x    00000000  20040000  20040000  0000a068  2**0
                  CONTENTS
 12 .scratch_y    00000000  20041000  20041000  0000a068  2**0
                  CONTENTS
 13 .stack_dummy  00000800  20041000  20041000  0000b000  2**5
                  ALLOC, READONLY
 14 .ARM.attributes 00000028  00000000  00000000  0000a068  2**0
                  CONTENTS, READONLY
 15 .comment      00000045  00000000  00000000  0000a090  2**0
                  CONTENTS, READONLY
 16 .debug_info   0003266f  00000000  00000000  0000a0d5  2**0
                  CONTENTS, READONLY, DEBUGGING, OCTETS
 17 .debug_abbrev 00008ead  00000000  00000000  0003c744  2**0
                  CONTENTS, READONLY, DEBUGGING, OCTETS
 18 .debug_loclists 0001b6a6  00000000  00000000  000455f1  2**0
                  CONTENTS, READONLY, DEBUGGING, OCTETS
 19 .debug_aranges 00001710  00000000  00000000  00060c98  2**3
                  CONTENTS, READONLY, DEBUGGING, OCTETS
 20 .debug_rnglists 00004683  00000000  00000000  000623a8  2**0
                  CONTENTS, READONLY, DEBUGGING, OCTETS
 21 .debug_line   00025351  00000000  00000000  00066a2b  2**0
                  CONTENTS, READONLY, DEBUGGING, OCTETS
 22 .debug_str    0000912c  00000000  00000000  0008bd7c  2**0
                  CONTENTS, READONLY, DEBUGGING, OCTETS
 23 .debug_frame  0000306c  00000000  00000000  00094ea8  2**2
                  CONTENTS, READONLY, DEBUGGING, OCTETS
 24 .debug_line_str 000003f5  00000000  00000000  00097f14  2**0
                  CONTENTS, READONLY, DEBUGGING, OCTETS

/home/ralsina/code/terminado/bt2i2c/host/pico_receiver/build_receiver/pico_receiver.elf:     file format elf32-littlearm


Disassembly of section .boot2:

10000000 <__boot2_start__>:
10000000:	4b32b500 	.word	0x4b32b500
10000004:	60582021 	.word	0x60582021
10000008:	21026898 	.word	0x21026898
1000000c:	60984388 	.word	0x60984388
10000010:	611860d8 	.word	0x611860d8
10000014:	4b2e6158 	.word	0x4b2e6158
10000018:	60992100 	.word	0x60992100
1000001c:	61592102 	.word	0x61592102
10000020:	22f02101 	.word	0x22f02101
10000024:	492b5099 	.word	0x492b5099
10000028:	21016019 	.word	0x21016019
1000002c:	20356099 	.word	0x20356099
10000030:	f844f000 	.word	0xf844f000
10000034:	42902202 	.word	0x42902202
10000038:	2106d014 	.word	0x2106d014
1000003c:	f0006619 	.word	0xf0006619
10000040:	6e19f834 	.word	0x6e19f834
10000044:	66192101 	.word	0x66192101
10000048:	66182000 	.word	0x66182000
1000004c:	f000661a 	.word	0xf000661a
10000050:	6e19f82c 	.word	0x6e19f82c
10000054:	6e196e19 	.word	0x6e196e19
10000058:	f0002005 	.word	0xf0002005
1000005c:	2101f82f 	.word	0x2101f82f
10000060:	d1f94208 	.word	0xd1f94208
10000064:	60992100 	.word	0x60992100
10000068:	6019491b 	.word	0x6019491b
1000006c:	60592100 	.word	0x60592100
10000070:	481b491a 	.word	0x481b491a
10000074:	21016001 	.word	0x21016001
10000078:	21eb6099 	.word	0x21eb6099
1000007c:	21a06619 	.word	0x21a06619
10000080:	f0006619 	.word	0xf0006619
10000084:	2100f812 	.word	0x2100f812
10000088:	49166099 	.word	0x49166099
1000008c:	60014814 	.word	0x60014814
10000090:	60992101 	.word	0x60992101
10000094:	2800bc01 	.word	0x2800bc01
10000098:	4700d000 	.word	0x4700d000
1000009c:	49134812 	.word	0x49134812
100000a0:	c8036008 	.word	0xc8036008
100000a4:	8808f380 	.word	0x8808f380
100000a8:	b5034708 	.word	0xb5034708
100000ac:	20046a99 	.word	0x20046a99
100000b0:	d0fb4201 	.word	0xd0fb4201
100000b4:	42012001 	.word	0x42012001
100000b8:	bd03d1f8 	.word	0xbd03d1f8
100000bc:	6618b502 	.word	0x6618b502
100000c0:	f7ff6618 	.word	0xf7ff6618
100000c4:	6e18fff2 	.word	0x6e18fff2
100000c8:	bd026e18 	.word	0xbd026e18
100000cc:	40020000 	.word	0x40020000
100000d0:	18000000 	.word	0x18000000
100000d4:	00070000 	.word	0x00070000
100000d8:	005f0300 	.word	0x005f0300
100000dc:	00002221 	.word	0x00002221
100000e0:	180000f4 	.word	0x180000f4
100000e4:	a0002022 	.word	0xa0002022
100000e8:	10000100 	.word	0x10000100
100000ec:	e000ed08 	.word	0xe000ed08
	...
100000fc:	7a4eb274 	.word	0x7a4eb274

Disassembly of section .text:

10000100 <__VECTOR_TABLE>:
10000100:	20042000 	.word	0x20042000
10000104:	100001f7 	.word	0x100001f7
10000108:	100001cb 	.word	0x100001cb
1000010c:	100001cd 	.word	0x100001cd
10000110:	100001c9 	.word	0x100001c9
10000114:	100001c9 	.word	0x100001c9
10000118:	100001c9 	.word	0x100001c9
1000011c:	100001c9 	.word	0x100001c9
10000120:	100001c9 	.word	0x100001c9
10000124:	100001c9 	.word	0x100001c9
10000128:	100001c9 	.word	0x100001c9
1000012c:	100001cf 	.word	0x100001cf
10000130:	100001c9 	.word	0x100001c9
10000134:	100001c9 	.word	0x100001c9
10000138:	100001d1 	.word	0x100001d1
1000013c:	100001d3 	.word	0x100001d3
10000140:	100001c1 	.word	0x100001c1
10000144:	100001c1 	.word	0x100001c1
10000148:	100001c1 	.word	0x100001c1
1000014c:	100001c1 	.word	0x100001c1
10000150:	100001c1 	.word	0x100001c1
10000154:	100001c1 	.word	0x100001c1
10000158:	100001c1 	.word	0x100001c1
1000015c:	100001c1 	.word	0x100001c1
10000160:	100001c1 	.word	0x100001c1
10000164:	100001c1 	.word	0x100001c1
10000168:	100001c1 	.word	0x100001c1
1000016c:	100001c1 	.word	0x100001c1
10000170:	100001c1 	.word	0x100001c1
10000174:	100001c1 	.word	0x100001c1
10000178:	100001c1 	.word	0x100001c1
1000017c:	100001c1 	.word	0x100001c1
10000180:	100001c1 	.word	0x100001c1
10000184:	100001c1 	.word	0x100001c1
10000188:	100001c1 	.word	0x100001c1
1000018c:	100001c1 	.word	0x100001c1
10000190:	100001c1 	.word	0x100001c1
10000194:	100001c1 	.word	0x100001c1
10000198:	100001c1 	.word	0x100001c1
1000019c:	100001c1 	.word	0x100001c1
100001a0:	100001c1 	.word	0x100001c1
100001a4:	100001c1 	.word	0x100001c1
100001a8:	100001c1 	.word	0x100001c1
100001ac:	100001c1 	.word	0x100001c1
100001b0:	100001c1 	.word	0x100001c1
100001b4:	100001c1 	.word	0x100001c1
100001b8:	100001c1 	.word	0x100001c1
100001bc:	100001c1 	.word	0x100001c1

100001c0 <__unhandled_user_irq>:
100001c0:	f3ef 8005 	mrs	r0, IPSR
100001c4:	3810      	subs	r0, #16

100001c6 <unhandled_user_irq_num_in_r0>:
100001c6:	be00      	bkpt	0x0000

100001c8 <isr_invalid>:
100001c8:	be00      	bkpt	0x0000

100001ca <isr_nmi>:
100001ca:	be00      	bkpt	0x0000

100001cc <isr_hardfault>:
100001cc:	be00      	bkpt	0x0000

100001ce <isr_svcall>:
100001ce:	be00      	bkpt	0x0000

100001d0 <isr_pendsv>:
100001d0:	be00      	bkpt	0x0000

100001d2 <isr_systick>:
100001d2:	be00      	bkpt	0x0000

100001d4 <__default_isrs_end>:
100001d4:	7188ebf2 	.word	0x7188ebf2
100001d8:	1000786c 	.word	0x1000786c
100001dc:	1000788c 	.word	0x1000788c
100001e0:	10000238 	.word	0x10000238
100001e4:	e71aa390 	.word	0xe71aa390

100001e8 <_entry_point>:
100001e8:	481e      	ldr	r0, [pc, #120]	@ (10000264 <data_cpy_table+0x2c>)

100001ea <_enter_vtable_in_r0>:
100001ea:	491f      	ldr	r1, [pc, #124]	@ (10000268 <data_cpy_table+0x30>)
100001ec:	6008      	str	r0, [r1, #0]
100001ee:	c806      	ldmia	r0!, {r1, r2}
100001f0:	f381 8808 	msr	MSP, r1
100001f4:	4710      	bx	r2

100001f6 <_reset_handler>:
100001f6:	481d      	ldr	r0, [pc, #116]	@ (1000026c <data_cpy_table+0x34>)
100001f8:	6800      	ldr	r0, [r0, #0]
100001fa:	2800      	cmp	r0, #0
100001fc:	d001      	beq.n	10000202 <hold_non_core0_in_bootrom+0x4>

100001fe <hold_non_core0_in_bootrom>:
100001fe:	4819      	ldr	r0, [pc, #100]	@ (10000264 <data_cpy_table+0x2c>)
10000200:	e7f3      	b.n	100001ea <_enter_vtable_in_r0>
10000202:	a40d      	add	r4, pc, #52	@ (adr r4, 10000238 <data_cpy_table>)
10000204:	cc0e      	ldmia	r4!, {r1, r2, r3}
10000206:	2900      	cmp	r1, #0
10000208:	d002      	beq.n	10000210 <hold_non_core0_in_bootrom+0x12>
1000020a:	f000 f812 	bl	10000232 <data_cpy>
1000020e:	e7f9      	b.n	10000204 <hold_non_core0_in_bootrom+0x6>
10000210:	4917      	ldr	r1, [pc, #92]	@ (10000270 <data_cpy_table+0x38>)
10000212:	4a18      	ldr	r2, [pc, #96]	@ (10000274 <data_cpy_table+0x3c>)
10000214:	2000      	movs	r0, #0
10000216:	e000      	b.n	1000021a <bss_fill_test>

10000218 <bss_fill_loop>:
10000218:	c101      	stmia	r1!, {r0}

1000021a <bss_fill_test>:
1000021a:	4291      	cmp	r1, r2
1000021c:	d1fc      	bne.n	10000218 <bss_fill_loop>

1000021e <platform_entry>:
1000021e:	4916      	ldr	r1, [pc, #88]	@ (10000278 <data_cpy_table+0x40>)
10000220:	4788      	blx	r1
10000222:	4916      	ldr	r1, [pc, #88]	@ (1000027c <data_cpy_table+0x44>)
10000224:	4788      	blx	r1
10000226:	4916      	ldr	r1, [pc, #88]	@ (10000280 <data_cpy_table+0x48>)
10000228:	4788      	blx	r1
1000022a:	be00      	bkpt	0x0000
1000022c:	e7fd      	b.n	1000022a <platform_entry+0xc>

1000022e <data_cpy_loop>:
1000022e:	c901      	ldmia	r1!, {r0}
10000230:	c201      	stmia	r2!, {r0}

10000232 <data_cpy>:
10000232:	429a      	cmp	r2, r3
10000234:	d3fb      	bcc.n	1000022e <data_cpy_loop>
10000236:	4770      	bx	lr

10000238 <data_cpy_table>:
10000238:	1000788c 	.word	0x1000788c
1000023c:	200000c0 	.word	0x200000c0
10000240:	20001068 	.word	0x20001068
10000244:	10008834 	.word	0x10008834
10000248:	20040000 	.word	0x20040000
1000024c:	20040000 	.word	0x20040000
10000250:	10008834 	.word	0x10008834
10000254:	20041000 	.word	0x20041000
10000258:	20041000 	.word	0x20041000
1000025c:	00000000 	.word	0x00000000
10000260:	4770      	bx	lr
10000262:	0000      	.short	0x0000
10000264:	00000000 	.word	0x00000000
10000268:	e000ed08 	.word	0xe000ed08
1000026c:	d0000000 	.word	0xd0000000
10000270:	20001068 	.word	0x20001068
10000274:	20001f64 	.word	0x20001f64
10000278:	10003e31 	.word	0x10003e31
1000027c:	100002d5 	.word	0x100002d5
10000280:	10003e29 	.word	0x10003e29

10000284 <_init>:
10000284:	b5f8      	push	{r3, r4, r5, r6, r7, lr}
10000286:	46c0      	nop			@ (mov r8, r8)

10000288 <register_tm_clones>:
10000288:	4806      	ldr	r0, [pc, #24]	@ (100002a4 <register_tm_clones+0x1c>)
1000028a:	4907      	ldr	r1, [pc, #28]	@ (100002a8 <register_tm_clones+0x20>)
1000028c:	1a09      	subs	r1, r1, r0
1000028e:	108b      	asrs	r3, r1, #2
10000290:	0fc9      	lsrs	r1, r1, #31
10000292:	18c9      	adds	r1, r1, r3
10000294:	b510      	push	{r4, lr}
10000296:	1049      	asrs	r1, r1, #1
10000298:	d003      	beq.n	100002a2 <register_tm_clones+0x1a>
1000029a:	4b04      	ldr	r3, [pc, #16]	@ (100002ac <register_tm_clones+0x24>)
1000029c:	2b00      	cmp	r3, #0
1000029e:	d000      	beq.n	100002a2 <register_tm_clones+0x1a>
100002a0:	4798      	blx	r3
100002a2:	bd10      	pop	{r4, pc}
100002a4:	20001068 	.word	0x20001068
100002a8:	20001068 	.word	0x20001068
100002ac:	00000000 	.word	0x00000000

100002b0 <frame_dummy>:
100002b0:	4b05      	ldr	r3, [pc, #20]	@ (100002c8 <frame_dummy+0x18>)
100002b2:	b510      	push	{r4, lr}
100002b4:	2b00      	cmp	r3, #0
100002b6:	d003      	beq.n	100002c0 <frame_dummy+0x10>
100002b8:	4904      	ldr	r1, [pc, #16]	@ (100002cc <frame_dummy+0x1c>)
100002ba:	4805      	ldr	r0, [pc, #20]	@ (100002d0 <frame_dummy+0x20>)
100002bc:	e000      	b.n	100002c0 <frame_dummy+0x10>
100002be:	bf00      	nop
100002c0:	f7ff ffe2 	bl	10000288 <register_tm_clones>
100002c4:	bd10      	pop	{r4, pc}
100002c6:	46c0      	nop			@ (mov r8, r8)
100002c8:	00000000 	.word	0x00000000
100002cc:	20001f00 	.word	0x20001f00
100002d0:	10006ddc 	.word	0x10006ddc

100002d4 <main>:
100002d4:	b5f0      	push	{r4, r5, r6, r7, lr}
100002d6:	46de      	mov	lr, fp
100002d8:	4657      	mov	r7, sl
100002da:	464e      	mov	r6, r9
100002dc:	4645      	mov	r5, r8
100002de:	b5e0      	push	{r5, r6, r7, lr}
100002e0:	b08b      	sub	sp, #44	@ 0x2c
100002e2:	f003 fecf 	bl	10004084 <stdio_init_all>
100002e6:	20fa      	movs	r0, #250	@ 0xfa
100002e8:	00c0      	lsls	r0, r0, #3
100002ea:	f000 fecd 	bl	10001088 <sleep_ms>
100002ee:	4855      	ldr	r0, [pc, #340]	@ (10000444 <main+0x170>)
100002f0:	f003 ff16 	bl	10004120 <__wrap_puts>
100002f4:	4e54      	ldr	r6, [pc, #336]	@ (10000448 <main+0x174>)
100002f6:	4955      	ldr	r1, [pc, #340]	@ (1000044c <main+0x178>)
100002f8:	0030      	movs	r0, r6
100002fa:	f006 fc7f 	bl	10006bfc <i2c_init>
100002fe:	2103      	movs	r1, #3
10000300:	2004      	movs	r0, #4
10000302:	f000 f8b3 	bl	1000046c <gpio_set_function>
10000306:	2200      	movs	r2, #0
10000308:	2101      	movs	r1, #1
1000030a:	2004      	movs	r0, #4
1000030c:	f000 f8c6 	bl	1000049c <gpio_set_pulls>
10000310:	2103      	movs	r1, #3
10000312:	2005      	movs	r0, #5
10000314:	f000 f8aa 	bl	1000046c <gpio_set_function>
10000318:	2200      	movs	r2, #0
1000031a:	2101      	movs	r1, #1
1000031c:	2005      	movs	r0, #5
1000031e:	f000 f8bd 	bl	1000049c <gpio_set_pulls>
10000322:	2064      	movs	r0, #100	@ 0x64
10000324:	f000 feb0 	bl	10001088 <sleep_ms>
10000328:	2301      	movs	r3, #1
1000032a:	ad09      	add	r5, sp, #36	@ 0x24
1000032c:	702b      	strb	r3, [r5, #0]
1000032e:	002a      	movs	r2, r5
10000330:	9300      	str	r3, [sp, #0]
10000332:	211f      	movs	r1, #31
10000334:	0030      	movs	r0, r6
10000336:	f006 fc89 	bl	10006c4c <i2c_write_blocking>
1000033a:	270b      	movs	r7, #11
1000033c:	ab06      	add	r3, sp, #24
1000033e:	18ff      	adds	r7, r7, r3
10000340:	2801      	cmp	r0, #1
10000342:	d17a      	bne.n	1000043a <main+0x166>
10000344:	2300      	movs	r3, #0
10000346:	003a      	movs	r2, r7
10000348:	9300      	str	r3, [sp, #0]
1000034a:	211f      	movs	r1, #31
1000034c:	0030      	movs	r0, r6
1000034e:	3301      	adds	r3, #1
10000350:	f006 fc86 	bl	10006c60 <i2c_read_blocking>
10000354:	2801      	cmp	r0, #1
10000356:	d170      	bne.n	1000043a <main+0x166>
10000358:	220f      	movs	r2, #15
1000035a:	7839      	ldrb	r1, [r7, #0]
1000035c:	483c      	ldr	r0, [pc, #240]	@ (10000450 <main+0x17c>)
1000035e:	400a      	ands	r2, r1
10000360:	1109      	asrs	r1, r1, #4
10000362:	f003 ff5f 	bl	10004224 <__wrap_printf>
10000366:	4b3b      	ldr	r3, [pc, #236]	@ (10000454 <main+0x180>)
10000368:	9303      	str	r3, [sp, #12]
1000036a:	4b3b      	ldr	r3, [pc, #236]	@ (10000458 <main+0x184>)
1000036c:	9307      	str	r3, [sp, #28]
1000036e:	4b3b      	ldr	r3, [pc, #236]	@ (1000045c <main+0x188>)
10000370:	9305      	str	r3, [sp, #20]
10000372:	4b3b      	ldr	r3, [pc, #236]	@ (10000460 <main+0x18c>)
10000374:	9304      	str	r3, [sp, #16]
10000376:	4b3b      	ldr	r3, [pc, #236]	@ (10000464 <main+0x190>)
10000378:	9306      	str	r3, [sp, #24]
1000037a:	2301      	movs	r3, #1
1000037c:	4698      	mov	r8, r3
1000037e:	2300      	movs	r3, #0
10000380:	469b      	mov	fp, r3
10000382:	2204      	movs	r2, #4
10000384:	ab06      	add	r3, sp, #24
10000386:	729a      	strb	r2, [r3, #10]
10000388:	4643      	mov	r3, r8
1000038a:	a906      	add	r1, sp, #24
1000038c:	3206      	adds	r2, #6
1000038e:	9300      	str	r3, [sp, #0]
10000390:	1852      	adds	r2, r2, r1
10000392:	2301      	movs	r3, #1
10000394:	211f      	movs	r1, #31
10000396:	0030      	movs	r0, r6
10000398:	f006 fc58 	bl	10006c4c <i2c_write_blocking>
1000039c:	2801      	cmp	r0, #1
1000039e:	d148      	bne.n	10000432 <main+0x15e>
100003a0:	465b      	mov	r3, fp
100003a2:	2209      	movs	r2, #9
100003a4:	a906      	add	r1, sp, #24
100003a6:	9300      	str	r3, [sp, #0]
100003a8:	1852      	adds	r2, r2, r1
100003aa:	2301      	movs	r3, #1
100003ac:	211f      	movs	r1, #31
100003ae:	0030      	movs	r0, r6
100003b0:	f006 fc56 	bl	10006c60 <i2c_read_blocking>
100003b4:	2801      	cmp	r0, #1
100003b6:	d13c      	bne.n	10000432 <main+0x15e>
100003b8:	221f      	movs	r2, #31
100003ba:	0011      	movs	r1, r2
100003bc:	ab06      	add	r3, sp, #24
100003be:	7a5b      	ldrb	r3, [r3, #9]
100003c0:	4019      	ands	r1, r3
100003c2:	4689      	mov	r9, r1
100003c4:	421a      	tst	r2, r3
100003c6:	d030      	beq.n	1000042a <main+0x156>
100003c8:	2309      	movs	r3, #9
100003ca:	2400      	movs	r4, #0
100003cc:	469a      	mov	sl, r3
100003ce:	e009      	b.n	100003e4 <main+0x110>
100003d0:	9805      	ldr	r0, [sp, #20]
100003d2:	0089      	lsls	r1, r1, #2
100003d4:	5841      	ldr	r1, [r0, r1]
100003d6:	3401      	adds	r4, #1
100003d8:	9804      	ldr	r0, [sp, #16]
100003da:	b2e4      	uxtb	r4, r4
100003dc:	f003 ff22 	bl	10004224 <__wrap_printf>
100003e0:	45a1      	cmp	r9, r4
100003e2:	d0ce      	beq.n	10000382 <main+0xae>
100003e4:	4653      	mov	r3, sl
100003e6:	703b      	strb	r3, [r7, #0]
100003e8:	4643      	mov	r3, r8
100003ea:	003a      	movs	r2, r7
100003ec:	9300      	str	r3, [sp, #0]
100003ee:	211f      	movs	r1, #31
100003f0:	2301      	movs	r3, #1
100003f2:	0030      	movs	r0, r6
100003f4:	f006 fc2a 	bl	10006c4c <i2c_write_blocking>
100003f8:	2801      	cmp	r0, #1
100003fa:	d1c2      	bne.n	10000382 <main+0xae>
100003fc:	465b      	mov	r3, fp
100003fe:	002a      	movs	r2, r5
10000400:	9300      	str	r3, [sp, #0]
10000402:	211f      	movs	r1, #31
10000404:	2302      	movs	r3, #2
10000406:	0030      	movs	r0, r6
10000408:	f006 fc2a 	bl	10006c60 <i2c_read_blocking>
1000040c:	2802      	cmp	r0, #2
1000040e:	d1b8      	bne.n	10000382 <main+0xae>
10000410:	786b      	ldrb	r3, [r5, #1]
10000412:	9803      	ldr	r0, [sp, #12]
10000414:	009a      	lsls	r2, r3, #2
10000416:	5882      	ldr	r2, [r0, r2]
10000418:	7829      	ldrb	r1, [r5, #0]
1000041a:	2a00      	cmp	r2, #0
1000041c:	d003      	beq.n	10000426 <main+0x152>
1000041e:	2903      	cmp	r1, #3
10000420:	d9d6      	bls.n	100003d0 <main+0xfc>
10000422:	9906      	ldr	r1, [sp, #24]
10000424:	e7d7      	b.n	100003d6 <main+0x102>
10000426:	9a07      	ldr	r2, [sp, #28]
10000428:	e7f9      	b.n	1000041e <main+0x14a>
1000042a:	2005      	movs	r0, #5
1000042c:	f000 fe2c 	bl	10001088 <sleep_ms>
10000430:	e7a7      	b.n	10000382 <main+0xae>
10000432:	200a      	movs	r0, #10
10000434:	f000 fe28 	bl	10001088 <sleep_ms>
10000438:	e7a3      	b.n	10000382 <main+0xae>
1000043a:	211f      	movs	r1, #31
1000043c:	480a      	ldr	r0, [pc, #40]	@ (10000468 <main+0x194>)
1000043e:	f003 fef1 	bl	10004224 <__wrap_printf>
10000442:	e790      	b.n	10000366 <main+0x92>
10000444:	10006de8 	.word	0x10006de8
10000448:	20001058 	.word	0x20001058
1000044c:	000186a0 	.word	0x000186a0
10000450:	10006e28 	.word	0x10006e28
10000454:	10007150 	.word	0x10007150
10000458:	10006de0 	.word	0x10006de0
1000045c:	10007140 	.word	0x10007140
10000460:	10006e4c 	.word	0x10006e4c
10000464:	10006e64 	.word	0x10006e64
10000468:	10006e08 	.word	0x10006e08

1000046c <gpio_set_function>:
1000046c:	b510      	push	{r4, lr}
1000046e:	2440      	movs	r4, #64	@ 0x40
10000470:	4a07      	ldr	r2, [pc, #28]	@ (10000490 <gpio_set_function+0x24>)
10000472:	0083      	lsls	r3, r0, #2
10000474:	189a      	adds	r2, r3, r2
10000476:	6812      	ldr	r2, [r2, #0]
10000478:	00c0      	lsls	r0, r0, #3
1000047a:	4054      	eors	r4, r2
1000047c:	22c0      	movs	r2, #192	@ 0xc0
1000047e:	4022      	ands	r2, r4
10000480:	4c04      	ldr	r4, [pc, #16]	@ (10000494 <gpio_set_function+0x28>)
10000482:	191b      	adds	r3, r3, r4
10000484:	601a      	str	r2, [r3, #0]
10000486:	4b04      	ldr	r3, [pc, #16]	@ (10000498 <gpio_set_function+0x2c>)
10000488:	18c0      	adds	r0, r0, r3
1000048a:	6041      	str	r1, [r0, #4]
1000048c:	bd10      	pop	{r4, pc}
1000048e:	46c0      	nop			@ (mov r8, r8)
10000490:	4001c004 	.word	0x4001c004
10000494:	4001d004 	.word	0x4001d004
10000498:	40014000 	.word	0x40014000

1000049c <gpio_set_pulls>:
1000049c:	4b06      	ldr	r3, [pc, #24]	@ (100004b8 <gpio_set_pulls+0x1c>)
1000049e:	0080      	lsls	r0, r0, #2
100004a0:	18c3      	adds	r3, r0, r3
100004a2:	681b      	ldr	r3, [r3, #0]
100004a4:	00c9      	lsls	r1, r1, #3
100004a6:	0092      	lsls	r2, r2, #2
100004a8:	430a      	orrs	r2, r1
100004aa:	405a      	eors	r2, r3
100004ac:	230c      	movs	r3, #12
100004ae:	4013      	ands	r3, r2
100004b0:	4a02      	ldr	r2, [pc, #8]	@ (100004bc <gpio_set_pulls+0x20>)
100004b2:	1880      	adds	r0, r0, r2
100004b4:	6003      	str	r3, [r0, #0]
100004b6:	4770      	bx	lr
100004b8:	4001c004 	.word	0x4001c004
100004bc:	4001d004 	.word	0x4001d004

100004c0 <rp2040_chip_version>:
100004c0:	2380      	movs	r3, #128	@ 0x80
100004c2:	05db      	lsls	r3, r3, #23
100004c4:	6818      	ldr	r0, [r3, #0]
100004c6:	0f00      	lsrs	r0, r0, #28
100004c8:	4770      	bx	lr
100004ca:	46c0      	nop			@ (mov r8, r8)

100004cc <panic>:
100004cc:	b40f      	push	{r0, r1, r2, r3}
100004ce:	b500      	push	{lr}
100004d0:	4808      	ldr	r0, [pc, #32]	@ (100004f4 <panic+0x28>)
100004d2:	b083      	sub	sp, #12
100004d4:	f003 fe24 	bl	10004120 <__wrap_puts>
100004d8:	9b04      	ldr	r3, [sp, #16]
100004da:	2b00      	cmp	r3, #0
100004dc:	d007      	beq.n	100004ee <panic+0x22>
100004de:	a905      	add	r1, sp, #20
100004e0:	0018      	movs	r0, r3
100004e2:	9101      	str	r1, [sp, #4]
100004e4:	f003 fc86 	bl	10003df4 <weak_raw_vprintf>
100004e8:	4803      	ldr	r0, [pc, #12]	@ (100004f8 <panic+0x2c>)
100004ea:	f003 fe19 	bl	10004120 <__wrap_puts>
100004ee:	2001      	movs	r0, #1
100004f0:	f003 fc98 	bl	10003e24 <_exit>
100004f4:	10006fcc 	.word	0x10006fcc
100004f8:	10006fdc 	.word	0x10006fdc

100004fc <hw_claim_or_assert>:
100004fc:	b570      	push	{r4, r5, r6, lr}
100004fe:	468c      	mov	ip, r1
10000500:	0016      	movs	r6, r2
10000502:	f3ef 8410 	mrs	r4, PRIMASK
10000506:	b672      	cpsid	i
10000508:	490f      	ldr	r1, [pc, #60]	@ (10000548 <hw_claim_or_assert+0x4c>)
1000050a:	680b      	ldr	r3, [r1, #0]
1000050c:	2b00      	cmp	r3, #0
1000050e:	d0fc      	beq.n	1000050a <hw_claim_or_assert+0xe>
10000510:	f3bf 8f5f 	dmb	sy
10000514:	4663      	mov	r3, ip
10000516:	08db      	lsrs	r3, r3, #3
10000518:	18c5      	adds	r5, r0, r3
1000051a:	2207      	movs	r2, #7
1000051c:	5cc0      	ldrb	r0, [r0, r3]
1000051e:	4663      	mov	r3, ip
10000520:	401a      	ands	r2, r3
10000522:	2301      	movs	r3, #1
10000524:	4093      	lsls	r3, r2
10000526:	001a      	movs	r2, r3
10000528:	4002      	ands	r2, r0
1000052a:	4203      	tst	r3, r0
1000052c:	d107      	bne.n	1000053e <hw_claim_or_assert+0x42>
1000052e:	4318      	orrs	r0, r3
10000530:	7028      	strb	r0, [r5, #0]
10000532:	f3bf 8f5f 	dmb	sy
10000536:	600a      	str	r2, [r1, #0]
10000538:	f384 8810 	msr	PRIMASK, r4
1000053c:	bd70      	pop	{r4, r5, r6, pc}
1000053e:	4661      	mov	r1, ip
10000540:	0030      	movs	r0, r6
10000542:	f7ff ffc3 	bl	100004cc <panic>
10000546:	46c0      	nop			@ (mov r8, r8)
10000548:	d000012c 	.word	0xd000012c

1000054c <hw_claim_unused_from_range>:
1000054c:	b5f8      	push	{r3, r4, r5, r6, r7, lr}
1000054e:	46ce      	mov	lr, r9
10000550:	4647      	mov	r7, r8
10000552:	468c      	mov	ip, r1
10000554:	b580      	push	{r7, lr}
10000556:	001c      	movs	r4, r3
10000558:	f3ef 8810 	mrs	r8, PRIMASK
1000055c:	b672      	cpsid	i
1000055e:	491c      	ldr	r1, [pc, #112]	@ (100005d0 <hw_claim_unused_from_range+0x84>)
10000560:	680b      	ldr	r3, [r1, #0]
10000562:	2b00      	cmp	r3, #0
10000564:	d0fc      	beq.n	10000560 <hw_claim_unused_from_range+0x14>
10000566:	f3bf 8f5f 	dmb	sy
1000056a:	42a2      	cmp	r2, r4
1000056c:	d821      	bhi.n	100005b2 <hw_claim_unused_from_range+0x66>
1000056e:	2307      	movs	r3, #7
10000570:	4699      	mov	r9, r3
10000572:	e002      	b.n	1000057a <hw_claim_unused_from_range+0x2e>
10000574:	3201      	adds	r2, #1
10000576:	4294      	cmp	r4, r2
10000578:	d318      	bcc.n	100005ac <hw_claim_unused_from_range+0x60>
1000057a:	4649      	mov	r1, r9
1000057c:	2601      	movs	r6, #1
1000057e:	4011      	ands	r1, r2
10000580:	408e      	lsls	r6, r1
10000582:	08d3      	lsrs	r3, r2, #3
10000584:	18c7      	adds	r7, r0, r3
10000586:	5cc3      	ldrb	r3, [r0, r3]
10000588:	421e      	tst	r6, r3
1000058a:	d1f3      	bne.n	10000574 <hw_claim_unused_from_range+0x28>
1000058c:	0010      	movs	r0, r2
1000058e:	4333      	orrs	r3, r6
10000590:	703b      	strb	r3, [r7, #0]
10000592:	f3bf 8f5f 	dmb	sy
10000596:	2200      	movs	r2, #0
10000598:	4b0d      	ldr	r3, [pc, #52]	@ (100005d0 <hw_claim_unused_from_range+0x84>)
1000059a:	601a      	str	r2, [r3, #0]
1000059c:	f388 8810 	msr	PRIMASK, r8
100005a0:	2800      	cmp	r0, #0
100005a2:	db0e      	blt.n	100005c2 <hw_claim_unused_from_range+0x76>
100005a4:	bcc0      	pop	{r6, r7}
100005a6:	46b9      	mov	r9, r7
100005a8:	46b0      	mov	r8, r6
100005aa:	bdf8      	pop	{r3, r4, r5, r6, r7, pc}
100005ac:	2001      	movs	r0, #1
100005ae:	4240      	negs	r0, r0
100005b0:	e7ef      	b.n	10000592 <hw_claim_unused_from_range+0x46>
100005b2:	f3bf 8f5f 	dmb	sy
100005b6:	2300      	movs	r3, #0
100005b8:	600b      	str	r3, [r1, #0]
100005ba:	f388 8810 	msr	PRIMASK, r8
100005be:	2001      	movs	r0, #1
100005c0:	4240      	negs	r0, r0
100005c2:	4663      	mov	r3, ip
100005c4:	2b00      	cmp	r3, #0
100005c6:	d0ed      	beq.n	100005a4 <hw_claim_unused_from_range+0x58>
100005c8:	9808      	ldr	r0, [sp, #32]
100005ca:	f7ff ff7f 	bl	100004cc <panic>
100005ce:	46c0      	nop			@ (mov r8, r8)
100005d0:	d000012c 	.word	0xd000012c

100005d4 <next_striped_spin_lock_num>:
100005d4:	4a04      	ldr	r2, [pc, #16]	@ (100005e8 <next_striped_spin_lock_num+0x14>)
100005d6:	7810      	ldrb	r0, [r2, #0]
100005d8:	1c43      	adds	r3, r0, #1
100005da:	b2db      	uxtb	r3, r3
100005dc:	2b17      	cmp	r3, #23
100005de:	d900      	bls.n	100005e2 <next_striped_spin_lock_num+0xe>
100005e0:	2310      	movs	r3, #16
100005e2:	7013      	strb	r3, [r2, #0]
100005e4:	4770      	bx	lr
100005e6:	46c0      	nop			@ (mov r8, r8)
100005e8:	20000f98 	.word	0x20000f98

100005ec <spin_lock_claim_unused>:
100005ec:	b500      	push	{lr}
100005ee:	4b05      	ldr	r3, [pc, #20]	@ (10000604 <spin_lock_claim_unused+0x18>)
100005f0:	b083      	sub	sp, #12
100005f2:	0001      	movs	r1, r0
100005f4:	9300      	str	r3, [sp, #0]
100005f6:	2218      	movs	r2, #24
100005f8:	231f      	movs	r3, #31
100005fa:	4803      	ldr	r0, [pc, #12]	@ (10000608 <spin_lock_claim_unused+0x1c>)
100005fc:	f7ff ffa6 	bl	1000054c <hw_claim_unused_from_range>
10000600:	b003      	add	sp, #12
10000602:	bd00      	pop	{pc}
10000604:	10006fe0 	.word	0x10006fe0
10000608:	20001a90 	.word	0x20001a90

1000060c <spin_locks_reset>:
1000060c:	2100      	movs	r1, #0
1000060e:	4b04      	ldr	r3, [pc, #16]	@ (10000620 <spin_locks_reset+0x14>)
10000610:	4a04      	ldr	r2, [pc, #16]	@ (10000624 <spin_locks_reset+0x18>)
10000612:	f3bf 8f5f 	dmb	sy
10000616:	c302      	stmia	r3!, {r1}
10000618:	4293      	cmp	r3, r2
1000061a:	d1fa      	bne.n	10000612 <spin_locks_reset+0x6>
1000061c:	4770      	bx	lr
1000061e:	46c0      	nop			@ (mov r8, r8)
10000620:	d0000100 	.word	0xd0000100
10000624:	d0000180 	.word	0xd0000180

10000628 <runtime_init_per_core_irq_priorities>:
10000628:	4b08      	ldr	r3, [pc, #32]	@ (1000064c <runtime_init_per_core_irq_priorities+0x24>)
1000062a:	4a09      	ldr	r2, [pc, #36]	@ (10000650 <runtime_init_per_core_irq_priorities+0x28>)
1000062c:	6013      	str	r3, [r2, #0]
1000062e:	4a09      	ldr	r2, [pc, #36]	@ (10000654 <runtime_init_per_core_irq_priorities+0x2c>)
10000630:	6013      	str	r3, [r2, #0]
10000632:	4a09      	ldr	r2, [pc, #36]	@ (10000658 <runtime_init_per_core_irq_priorities+0x30>)
10000634:	6013      	str	r3, [r2, #0]
10000636:	4a09      	ldr	r2, [pc, #36]	@ (1000065c <runtime_init_per_core_irq_priorities+0x34>)
10000638:	6013      	str	r3, [r2, #0]
1000063a:	4a09      	ldr	r2, [pc, #36]	@ (10000660 <runtime_init_per_core_irq_priorities+0x38>)
1000063c:	6013      	str	r3, [r2, #0]
1000063e:	4a09      	ldr	r2, [pc, #36]	@ (10000664 <runtime_init_per_core_irq_priorities+0x3c>)
10000640:	6013      	str	r3, [r2, #0]
10000642:	4a09      	ldr	r2, [pc, #36]	@ (10000668 <runtime_init_per_core_irq_priorities+0x40>)
10000644:	6013      	str	r3, [r2, #0]
10000646:	4a09      	ldr	r2, [pc, #36]	@ (1000066c <runtime_init_per_core_irq_priorities+0x44>)
10000648:	6013      	str	r3, [r2, #0]
1000064a:	4770      	bx	lr
1000064c:	80808080 	.word	0x80808080
10000650:	e000e400 	.word	0xe000e400
10000654:	e000e404 	.word	0xe000e404
10000658:	e000e408 	.word	0xe000e408
1000065c:	e000e40c 	.word	0xe000e40c
10000660:	e000e410 	.word	0xe000e410
10000664:	e000e414 	.word	0xe000e414
10000668:	e000e418 	.word	0xe000e418
1000066c:	e000e41c 	.word	0xe000e41c

10000670 <irq_set_enabled>:
10000670:	231f      	movs	r3, #31
10000672:	4018      	ands	r0, r3
10000674:	3b1e      	subs	r3, #30
10000676:	4083      	lsls	r3, r0
10000678:	2900      	cmp	r1, #0
1000067a:	d005      	beq.n	10000688 <irq_set_enabled+0x18>
1000067c:	21c0      	movs	r1, #192	@ 0xc0
1000067e:	4a04      	ldr	r2, [pc, #16]	@ (10000690 <irq_set_enabled+0x20>)
10000680:	0049      	lsls	r1, r1, #1
10000682:	5053      	str	r3, [r2, r1]
10000684:	6013      	str	r3, [r2, #0]
10000686:	4770      	bx	lr
10000688:	2280      	movs	r2, #128	@ 0x80
1000068a:	4901      	ldr	r1, [pc, #4]	@ (10000690 <irq_set_enabled+0x20>)
1000068c:	508b      	str	r3, [r1, r2]
1000068e:	e7fa      	b.n	10000686 <irq_set_enabled+0x16>
10000690:	e000e100 	.word	0xe000e100

10000694 <irq_is_enabled>:
10000694:	2201      	movs	r2, #1
10000696:	4082      	lsls	r2, r0
10000698:	4b03      	ldr	r3, [pc, #12]	@ (100006a8 <irq_is_enabled+0x14>)
1000069a:	681b      	ldr	r3, [r3, #0]
1000069c:	4013      	ands	r3, r2
1000069e:	1e5a      	subs	r2, r3, #1
100006a0:	4193      	sbcs	r3, r2
100006a2:	b2d8      	uxtb	r0, r3
100006a4:	4770      	bx	lr
100006a6:	46c0      	nop			@ (mov r8, r8)
100006a8:	e000e100 	.word	0xe000e100

100006ac <irq_set_pending>:
100006ac:	2301      	movs	r3, #1
100006ae:	4083      	lsls	r3, r0
100006b0:	4a01      	ldr	r2, [pc, #4]	@ (100006b8 <irq_set_pending+0xc>)
100006b2:	6013      	str	r3, [r2, #0]
100006b4:	4770      	bx	lr
100006b6:	46c0      	nop			@ (mov r8, r8)
100006b8:	e000e200 	.word	0xe000e200

100006bc <irq_has_shared_handler>:
100006bc:	4b05      	ldr	r3, [pc, #20]	@ (100006d4 <irq_has_shared_handler+0x18>)
100006be:	3010      	adds	r0, #16
100006c0:	689b      	ldr	r3, [r3, #8]
100006c2:	0080      	lsls	r0, r0, #2
100006c4:	58c3      	ldr	r3, [r0, r3]
100006c6:	4a04      	ldr	r2, [pc, #16]	@ (100006d8 <irq_has_shared_handler+0x1c>)
100006c8:	2000      	movs	r0, #0
100006ca:	1a9b      	subs	r3, r3, r2
100006cc:	222f      	movs	r2, #47	@ 0x2f
100006ce:	429a      	cmp	r2, r3
100006d0:	4140      	adcs	r0, r0
100006d2:	4770      	bx	lr
100006d4:	e000ed00 	.word	0xe000ed00
100006d8:	20000f9c 	.word	0x20000f9c

100006dc <irq_set_exclusive_handler>:
100006dc:	b570      	push	{r4, r5, r6, lr}
100006de:	000d      	movs	r5, r1
100006e0:	f3ef 8610 	mrs	r6, PRIMASK
100006e4:	b672      	cpsid	i
100006e6:	4a0f      	ldr	r2, [pc, #60]	@ (10000724 <irq_set_exclusive_handler+0x48>)
100006e8:	6813      	ldr	r3, [r2, #0]
100006ea:	2b00      	cmp	r3, #0
100006ec:	d0fc      	beq.n	100006e8 <irq_set_exclusive_handler+0xc>
100006ee:	f3bf 8f5f 	dmb	sy
100006f2:	4b0d      	ldr	r3, [pc, #52]	@ (10000728 <irq_set_exclusive_handler+0x4c>)
100006f4:	3010      	adds	r0, #16
100006f6:	689b      	ldr	r3, [r3, #8]
100006f8:	0084      	lsls	r4, r0, #2
100006fa:	591b      	ldr	r3, [r3, r4]
100006fc:	4a0b      	ldr	r2, [pc, #44]	@ (1000072c <irq_set_exclusive_handler+0x50>)
100006fe:	4293      	cmp	r3, r2
10000700:	d003      	beq.n	1000070a <irq_set_exclusive_handler+0x2e>
10000702:	429d      	cmp	r5, r3
10000704:	d001      	beq.n	1000070a <irq_set_exclusive_handler+0x2e>
10000706:	f000 ffdd 	bl	100016c4 <hard_assertion_failure>
1000070a:	4b07      	ldr	r3, [pc, #28]	@ (10000728 <irq_set_exclusive_handler+0x4c>)
1000070c:	689b      	ldr	r3, [r3, #8]
1000070e:	511d      	str	r5, [r3, r4]
10000710:	f3bf 8f5f 	dmb	sy
10000714:	f3bf 8f5f 	dmb	sy
10000718:	2200      	movs	r2, #0
1000071a:	4b02      	ldr	r3, [pc, #8]	@ (10000724 <irq_set_exclusive_handler+0x48>)
1000071c:	601a      	str	r2, [r3, #0]
1000071e:	f386 8810 	msr	PRIMASK, r6
10000722:	bd70      	pop	{r4, r5, r6, pc}
10000724:	d0000124 	.word	0xd0000124
10000728:	e000ed00 	.word	0xe000ed00
1000072c:	100001c1 	.word	0x100001c1

10000730 <irq_add_shared_handler>:
10000730:	b5f0      	push	{r4, r5, r6, r7, lr}
10000732:	46de      	mov	lr, fp
10000734:	4657      	mov	r7, sl
10000736:	464e      	mov	r6, r9
10000738:	4645      	mov	r5, r8
1000073a:	b5e0      	push	{r5, r6, r7, lr}
1000073c:	4682      	mov	sl, r0
1000073e:	b083      	sub	sp, #12
10000740:	468b      	mov	fp, r1
10000742:	0017      	movs	r7, r2
10000744:	f3ef 8810 	mrs	r8, PRIMASK
10000748:	b672      	cpsid	i
1000074a:	4a60      	ldr	r2, [pc, #384]	@ (100008cc <irq_add_shared_handler+0x19c>)
1000074c:	6813      	ldr	r3, [r2, #0]
1000074e:	2b00      	cmp	r3, #0
10000750:	d0fc      	beq.n	1000074c <irq_add_shared_handler+0x1c>
10000752:	f3bf 8f5f 	dmb	sy
10000756:	2500      	movs	r5, #0
10000758:	4b5d      	ldr	r3, [pc, #372]	@ (100008d0 <irq_add_shared_handler+0x1a0>)
1000075a:	575d      	ldrsb	r5, [r3, r5]
1000075c:	4699      	mov	r9, r3
1000075e:	2d00      	cmp	r5, #0
10000760:	da00      	bge.n	10000764 <irq_add_shared_handler+0x34>
10000762:	e09a      	b.n	1000089a <irq_add_shared_handler+0x16a>
10000764:	464a      	mov	r2, r9
10000766:	006b      	lsls	r3, r5, #1
10000768:	4c5a      	ldr	r4, [pc, #360]	@ (100008d4 <irq_add_shared_handler+0x1a4>)
1000076a:	195e      	adds	r6, r3, r5
1000076c:	00b6      	lsls	r6, r6, #2
1000076e:	9301      	str	r3, [sp, #4]
10000770:	19a3      	adds	r3, r4, r6
10000772:	9300      	str	r3, [sp, #0]
10000774:	799b      	ldrb	r3, [r3, #6]
10000776:	7013      	strb	r3, [r2, #0]
10000778:	4b57      	ldr	r3, [pc, #348]	@ (100008d8 <irq_add_shared_handler+0x1a8>)
1000077a:	689a      	ldr	r2, [r3, #8]
1000077c:	4653      	mov	r3, sl
1000077e:	3310      	adds	r3, #16
10000780:	009b      	lsls	r3, r3, #2
10000782:	58d1      	ldr	r1, [r2, r3]
10000784:	4699      	mov	r9, r3
10000786:	1b0b      	subs	r3, r1, r4
10000788:	2b2f      	cmp	r3, #47	@ 0x2f
1000078a:	d932      	bls.n	100007f2 <irq_add_shared_handler+0xc2>
1000078c:	4b53      	ldr	r3, [pc, #332]	@ (100008dc <irq_add_shared_handler+0x1ac>)
1000078e:	4299      	cmp	r1, r3
10000790:	d000      	beq.n	10000794 <irq_add_shared_handler+0x64>
10000792:	e098      	b.n	100008c6 <irq_add_shared_handler+0x196>
10000794:	9b01      	ldr	r3, [sp, #4]
10000796:	3602      	adds	r6, #2
10000798:	18ed      	adds	r5, r5, r3
1000079a:	4b51      	ldr	r3, [pc, #324]	@ (100008e0 <irq_add_shared_handler+0x1b0>)
1000079c:	00ad      	lsls	r5, r5, #2
1000079e:	5363      	strh	r3, [r4, r5]
100007a0:	4b50      	ldr	r3, [pc, #320]	@ (100008e4 <irq_add_shared_handler+0x1b4>)
100007a2:	19a6      	adds	r6, r4, r6
100007a4:	3b04      	subs	r3, #4
100007a6:	1b9b      	subs	r3, r3, r6
100007a8:	4a4f      	ldr	r2, [pc, #316]	@ (100008e8 <irq_add_shared_handler+0x1b8>)
100007aa:	051b      	lsls	r3, r3, #20
100007ac:	0d5b      	lsrs	r3, r3, #21
100007ae:	1965      	adds	r5, r4, r5
100007b0:	4313      	orrs	r3, r2
100007b2:	806b      	strh	r3, [r5, #2]
100007b4:	4b4d      	ldr	r3, [pc, #308]	@ (100008ec <irq_add_shared_handler+0x1bc>)
100007b6:	2101      	movs	r1, #1
100007b8:	80ab      	strh	r3, [r5, #4]
100007ba:	23ff      	movs	r3, #255	@ 0xff
100007bc:	71ab      	strb	r3, [r5, #6]
100007be:	465b      	mov	r3, fp
100007c0:	60ab      	str	r3, [r5, #8]
100007c2:	9b00      	ldr	r3, [sp, #0]
100007c4:	71ef      	strb	r7, [r5, #7]
100007c6:	430b      	orrs	r3, r1
100007c8:	0019      	movs	r1, r3
100007ca:	464a      	mov	r2, r9
100007cc:	4b42      	ldr	r3, [pc, #264]	@ (100008d8 <irq_add_shared_handler+0x1a8>)
100007ce:	689b      	ldr	r3, [r3, #8]
100007d0:	5099      	str	r1, [r3, r2]
100007d2:	f3bf 8f5f 	dmb	sy
100007d6:	f3bf 8f5f 	dmb	sy
100007da:	2200      	movs	r2, #0
100007dc:	4b3b      	ldr	r3, [pc, #236]	@ (100008cc <irq_add_shared_handler+0x19c>)
100007de:	601a      	str	r2, [r3, #0]
100007e0:	f388 8810 	msr	PRIMASK, r8
100007e4:	b003      	add	sp, #12
100007e6:	bcf0      	pop	{r4, r5, r6, r7}
100007e8:	46bb      	mov	fp, r7
100007ea:	46b2      	mov	sl, r6
100007ec:	46a9      	mov	r9, r5
100007ee:	46a0      	mov	r8, r4
100007f0:	bdf0      	pop	{r4, r5, r6, r7, pc}
100007f2:	2001      	movs	r0, #1
100007f4:	000a      	movs	r2, r1
100007f6:	4382      	bics	r2, r0
100007f8:	79d3      	ldrb	r3, [r2, #7]
100007fa:	46b4      	mov	ip, r6
100007fc:	42bb      	cmp	r3, r7
100007fe:	d82d      	bhi.n	1000085c <irq_add_shared_handler+0x12c>
10000800:	4b3b      	ldr	r3, [pc, #236]	@ (100008f0 <irq_add_shared_handler+0x1c0>)
10000802:	1cb5      	adds	r5, r6, #2
10000804:	0019      	movs	r1, r3
10000806:	0013      	movs	r3, r2
10000808:	1b1b      	subs	r3, r3, r4
1000080a:	415b      	adcs	r3, r3
1000080c:	4359      	muls	r1, r3
1000080e:	0d09      	lsrs	r1, r1, #20
10000810:	468c      	mov	ip, r1
10000812:	4b33      	ldr	r3, [pc, #204]	@ (100008e0 <irq_add_shared_handler+0x1b0>)
10000814:	1965      	adds	r5, r4, r5
10000816:	53a3      	strh	r3, [r4, r6]
10000818:	4b32      	ldr	r3, [pc, #200]	@ (100008e4 <irq_add_shared_handler+0x1b4>)
1000081a:	9900      	ldr	r1, [sp, #0]
1000081c:	3b04      	subs	r3, #4
1000081e:	1b5b      	subs	r3, r3, r5
10000820:	051b      	lsls	r3, r3, #20
10000822:	4d31      	ldr	r5, [pc, #196]	@ (100008e8 <irq_add_shared_handler+0x1b8>)
10000824:	0d5b      	lsrs	r3, r3, #21
10000826:	432b      	orrs	r3, r5
10000828:	3604      	adds	r6, #4
1000082a:	804b      	strh	r3, [r1, #2]
1000082c:	19a6      	adds	r6, r4, r6
1000082e:	1f13      	subs	r3, r2, #4
10000830:	1b9b      	subs	r3, r3, r6
10000832:	051b      	lsls	r3, r3, #20
10000834:	0d5b      	lsrs	r3, r3, #21
10000836:	431d      	orrs	r5, r3
10000838:	4663      	mov	r3, ip
1000083a:	718b      	strb	r3, [r1, #6]
1000083c:	465b      	mov	r3, fp
1000083e:	608b      	str	r3, [r1, #8]
10000840:	4b2c      	ldr	r3, [pc, #176]	@ (100008f4 <irq_add_shared_handler+0x1c4>)
10000842:	808d      	strh	r5, [r1, #4]
10000844:	71cf      	strb	r7, [r1, #7]
10000846:	6013      	str	r3, [r2, #0]
10000848:	4301      	orrs	r1, r0
1000084a:	e7be      	b.n	100007ca <irq_add_shared_handler+0x9a>
1000084c:	0058      	lsls	r0, r3, #1
1000084e:	18c0      	adds	r0, r0, r3
10000850:	0080      	lsls	r0, r0, #2
10000852:	1820      	adds	r0, r4, r0
10000854:	79c6      	ldrb	r6, [r0, #7]
10000856:	42be      	cmp	r6, r7
10000858:	d925      	bls.n	100008a6 <irq_add_shared_handler+0x176>
1000085a:	0002      	movs	r2, r0
1000085c:	2306      	movs	r3, #6
1000085e:	56d3      	ldrsb	r3, [r2, r3]
10000860:	2b00      	cmp	r3, #0
10000862:	daf3      	bge.n	1000084c <irq_add_shared_handler+0x11c>
10000864:	469a      	mov	sl, r3
10000866:	1d13      	adds	r3, r2, #4
10000868:	469c      	mov	ip, r3
1000086a:	4823      	ldr	r0, [pc, #140]	@ (100008f8 <irq_add_shared_handler+0x1c8>)
1000086c:	4663      	mov	r3, ip
1000086e:	9e00      	ldr	r6, [sp, #0]
10000870:	7195      	strb	r5, [r2, #6]
10000872:	3e04      	subs	r6, #4
10000874:	1af6      	subs	r6, r6, r3
10000876:	0536      	lsls	r6, r6, #20
10000878:	4b1b      	ldr	r3, [pc, #108]	@ (100008e8 <irq_add_shared_handler+0x1b8>)
1000087a:	0d76      	lsrs	r6, r6, #21
1000087c:	431e      	orrs	r6, r3
1000087e:	9b01      	ldr	r3, [sp, #4]
10000880:	8096      	strh	r6, [r2, #4]
10000882:	195a      	adds	r2, r3, r5
10000884:	4653      	mov	r3, sl
10000886:	0092      	lsls	r2, r2, #2
10000888:	18a4      	adds	r4, r4, r2
1000088a:	71a3      	strb	r3, [r4, #6]
1000088c:	465b      	mov	r3, fp
1000088e:	4a19      	ldr	r2, [pc, #100]	@ (100008f4 <irq_add_shared_handler+0x1c4>)
10000890:	80a0      	strh	r0, [r4, #4]
10000892:	6022      	str	r2, [r4, #0]
10000894:	71e7      	strb	r7, [r4, #7]
10000896:	60a3      	str	r3, [r4, #8]
10000898:	e797      	b.n	100007ca <irq_add_shared_handler+0x9a>
1000089a:	f000 ff13 	bl	100016c4 <hard_assertion_failure>
1000089e:	2500      	movs	r5, #0
100008a0:	464b      	mov	r3, r9
100008a2:	575d      	ldrsb	r5, [r3, r5]
100008a4:	e75e      	b.n	10000764 <irq_add_shared_handler+0x34>
100008a6:	4666      	mov	r6, ip
100008a8:	469a      	mov	sl, r3
100008aa:	1d13      	adds	r3, r2, #4
100008ac:	469c      	mov	ip, r3
100008ae:	8890      	ldrh	r0, [r2, #4]
100008b0:	3604      	adds	r6, #4
100008b2:	0540      	lsls	r0, r0, #21
100008b4:	1500      	asrs	r0, r0, #20
100008b6:	19a6      	adds	r6, r4, r6
100008b8:	4460      	add	r0, ip
100008ba:	1b80      	subs	r0, r0, r6
100008bc:	0500      	lsls	r0, r0, #20
100008be:	4e0a      	ldr	r6, [pc, #40]	@ (100008e8 <irq_add_shared_handler+0x1b8>)
100008c0:	0d40      	lsrs	r0, r0, #21
100008c2:	4330      	orrs	r0, r6
100008c4:	e7d2      	b.n	1000086c <irq_add_shared_handler+0x13c>
100008c6:	f000 fefd 	bl	100016c4 <hard_assertion_failure>
100008ca:	e763      	b.n	10000794 <irq_add_shared_handler+0x64>
100008cc:	d0000124 	.word	0xd0000124
100008d0:	20001f5d 	.word	0x20001f5d
100008d4:	20000f9c 	.word	0x20000f9c
100008d8:	e000ed00 	.word	0xe000ed00
100008dc:	100001c1 	.word	0x100001c1
100008e0:	ffffa100 	.word	0xffffa100
100008e4:	20000fcc 	.word	0x20000fcc
100008e8:	ffffe000 	.word	0xffffe000
100008ec:	ffffbd01 	.word	0xffffbd01
100008f0:	0000aaaa 	.word	0x0000aaaa
100008f4:	47804801 	.word	0x47804801
100008f8:	0000bd01 	.word	0x0000bd01

100008fc <irq_add_tail_to_free_list>:
100008fc:	2301      	movs	r3, #1
100008fe:	4303      	orrs	r3, r0
10000900:	b570      	push	{r4, r5, r6, lr}
10000902:	469c      	mov	ip, r3
10000904:	f3ef 8105 	mrs	r1, IPSR
10000908:	f3ef 8510 	mrs	r5, PRIMASK
1000090c:	b672      	cpsid	i
1000090e:	4a21      	ldr	r2, [pc, #132]	@ (10000994 <irq_add_tail_to_free_list+0x98>)
10000910:	6813      	ldr	r3, [r2, #0]
10000912:	2b00      	cmp	r3, #0
10000914:	d0fc      	beq.n	10000910 <irq_add_tail_to_free_list+0x14>
10000916:	f3bf 8f5f 	dmb	sy
1000091a:	4b1f      	ldr	r3, [pc, #124]	@ (10000998 <irq_add_tail_to_free_list+0x9c>)
1000091c:	0004      	movs	r4, r0
1000091e:	4a1f      	ldr	r2, [pc, #124]	@ (1000099c <irq_add_tail_to_free_list+0xa0>)
10000920:	1ae4      	subs	r4, r4, r3
10000922:	4164      	adcs	r4, r4
10000924:	4362      	muls	r2, r4
10000926:	0d12      	lsrs	r2, r2, #20
10000928:	4c1d      	ldr	r4, [pc, #116]	@ (100009a0 <irq_add_tail_to_free_list+0xa4>)
1000092a:	0089      	lsls	r1, r1, #2
1000092c:	68a6      	ldr	r6, [r4, #8]
1000092e:	b252      	sxtb	r2, r2
10000930:	5876      	ldr	r6, [r6, r1]
10000932:	4566      	cmp	r6, ip
10000934:	d01c      	beq.n	10000970 <irq_add_tail_to_free_list+0x74>
10000936:	2106      	movs	r1, #6
10000938:	5659      	ldrsb	r1, [r3, r1]
1000093a:	4291      	cmp	r1, r2
1000093c:	d01c      	beq.n	10000978 <irq_add_tail_to_free_list+0x7c>
1000093e:	2112      	movs	r1, #18
10000940:	5659      	ldrsb	r1, [r3, r1]
10000942:	4291      	cmp	r1, r2
10000944:	d022      	beq.n	1000098c <irq_add_tail_to_free_list+0x90>
10000946:	211e      	movs	r1, #30
10000948:	5659      	ldrsb	r1, [r3, r1]
1000094a:	4291      	cmp	r1, r2
1000094c:	d020      	beq.n	10000990 <irq_add_tail_to_free_list+0x94>
1000094e:	212a      	movs	r1, #42	@ 0x2a
10000950:	5659      	ldrsb	r1, [r3, r1]
10000952:	2403      	movs	r4, #3
10000954:	4291      	cmp	r1, r2
10000956:	d010      	beq.n	1000097a <irq_add_tail_to_free_list+0x7e>
10000958:	4b12      	ldr	r3, [pc, #72]	@ (100009a4 <irq_add_tail_to_free_list+0xa8>)
1000095a:	7819      	ldrb	r1, [r3, #0]
1000095c:	701a      	strb	r2, [r3, #0]
1000095e:	7181      	strb	r1, [r0, #6]
10000960:	f3bf 8f5f 	dmb	sy
10000964:	2200      	movs	r2, #0
10000966:	4b0b      	ldr	r3, [pc, #44]	@ (10000994 <irq_add_tail_to_free_list+0x98>)
10000968:	601a      	str	r2, [r3, #0]
1000096a:	f385 8810 	msr	PRIMASK, r5
1000096e:	bd70      	pop	{r4, r5, r6, pc}
10000970:	68a3      	ldr	r3, [r4, #8]
10000972:	4c0d      	ldr	r4, [pc, #52]	@ (100009a8 <irq_add_tail_to_free_list+0xac>)
10000974:	505c      	str	r4, [r3, r1]
10000976:	e7ef      	b.n	10000958 <irq_add_tail_to_free_list+0x5c>
10000978:	2400      	movs	r4, #0
1000097a:	0061      	lsls	r1, r4, #1
1000097c:	1909      	adds	r1, r1, r4
1000097e:	0089      	lsls	r1, r1, #2
10000980:	185b      	adds	r3, r3, r1
10000982:	21ff      	movs	r1, #255	@ 0xff
10000984:	7199      	strb	r1, [r3, #6]
10000986:	4909      	ldr	r1, [pc, #36]	@ (100009ac <irq_add_tail_to_free_list+0xb0>)
10000988:	8099      	strh	r1, [r3, #4]
1000098a:	e7e5      	b.n	10000958 <irq_add_tail_to_free_list+0x5c>
1000098c:	2401      	movs	r4, #1
1000098e:	e7f4      	b.n	1000097a <irq_add_tail_to_free_list+0x7e>
10000990:	2402      	movs	r4, #2
10000992:	e7f2      	b.n	1000097a <irq_add_tail_to_free_list+0x7e>
10000994:	d0000124 	.word	0xd0000124
10000998:	20000f9c 	.word	0x20000f9c
1000099c:	0000aaaa 	.word	0x0000aaaa
100009a0:	e000ed00 	.word	0xe000ed00
100009a4:	20001f5d 	.word	0x20001f5d
100009a8:	100001c1 	.word	0x100001c1
100009ac:	ffffbd01 	.word	0xffffbd01

100009b0 <user_irq_claim_unused>:
100009b0:	b500      	push	{lr}
100009b2:	4b07      	ldr	r3, [pc, #28]	@ (100009d0 <user_irq_claim_unused+0x20>)
100009b4:	b083      	sub	sp, #12
100009b6:	0001      	movs	r1, r0
100009b8:	9300      	str	r3, [sp, #0]
100009ba:	2200      	movs	r2, #0
100009bc:	2305      	movs	r3, #5
100009be:	4805      	ldr	r0, [pc, #20]	@ (100009d4 <user_irq_claim_unused+0x24>)
100009c0:	f7ff fdc4 	bl	1000054c <hw_claim_unused_from_range>
100009c4:	2800      	cmp	r0, #0
100009c6:	db01      	blt.n	100009cc <user_irq_claim_unused+0x1c>
100009c8:	231f      	movs	r3, #31
100009ca:	1a18      	subs	r0, r3, r0
100009cc:	b003      	add	sp, #12
100009ce:	bd00      	pop	{pc}
100009d0:	10006ffc 	.word	0x10006ffc
100009d4:	20001f61 	.word	0x20001f61

100009d8 <lock_init>:
100009d8:	4b02      	ldr	r3, [pc, #8]	@ (100009e4 <lock_init+0xc>)
100009da:	18c9      	adds	r1, r1, r3
100009dc:	0089      	lsls	r1, r1, #2
100009de:	6001      	str	r1, [r0, #0]
100009e0:	4770      	bx	lr
100009e2:	46c0      	nop			@ (mov r8, r8)
100009e4:	34000040 	.word	0x34000040

100009e8 <runtime_init_mutex>:
100009e8:	b570      	push	{r4, r5, r6, lr}
100009ea:	4c11      	ldr	r4, [pc, #68]	@ (10000a30 <runtime_init_mutex+0x48>)
100009ec:	4d11      	ldr	r5, [pc, #68]	@ (10000a34 <runtime_init_mutex+0x4c>)
100009ee:	42ac      	cmp	r4, r5
100009f0:	d20f      	bcs.n	10000a12 <runtime_init_mutex+0x2a>
100009f2:	26ff      	movs	r6, #255	@ 0xff
100009f4:	6823      	ldr	r3, [r4, #0]
100009f6:	2b00      	cmp	r3, #0
100009f8:	d00c      	beq.n	10000a14 <runtime_init_mutex+0x2c>
100009fa:	f7ff fdeb 	bl	100005d4 <next_striped_spin_lock_num>
100009fe:	0001      	movs	r1, r0
10000a00:	0020      	movs	r0, r4
10000a02:	f7ff ffe9 	bl	100009d8 <lock_init>
10000a06:	80a6      	strh	r6, [r4, #4]
10000a08:	f3bf 8f5f 	dmb	sy
10000a0c:	3408      	adds	r4, #8
10000a0e:	42ac      	cmp	r4, r5
10000a10:	d3f0      	bcc.n	100009f4 <runtime_init_mutex+0xc>
10000a12:	bd70      	pop	{r4, r5, r6, pc}
10000a14:	f7ff fdde 	bl	100005d4 <next_striped_spin_lock_num>
10000a18:	0001      	movs	r1, r0
10000a1a:	0020      	movs	r0, r4
10000a1c:	f7ff ffdc 	bl	100009d8 <lock_init>
10000a20:	7126      	strb	r6, [r4, #4]
10000a22:	f3bf 8f5f 	dmb	sy
10000a26:	3408      	adds	r4, #8
10000a28:	42ac      	cmp	r4, r5
10000a2a:	d3e3      	bcc.n	100009f4 <runtime_init_mutex+0xc>
10000a2c:	e7f1      	b.n	10000a12 <runtime_init_mutex+0x2a>
10000a2e:	46c0      	nop			@ (mov r8, r8)
10000a30:	20001060 	.word	0x20001060
10000a34:	20001068 	.word	0x20001068

10000a38 <mutex_init>:
10000a38:	b510      	push	{r4, lr}
10000a3a:	0004      	movs	r4, r0
10000a3c:	f7ff fdca 	bl	100005d4 <next_striped_spin_lock_num>
10000a40:	0001      	movs	r1, r0
10000a42:	0020      	movs	r0, r4
10000a44:	f7ff ffc8 	bl	100009d8 <lock_init>
10000a48:	23ff      	movs	r3, #255	@ 0xff
10000a4a:	7123      	strb	r3, [r4, #4]
10000a4c:	f3bf 8f5f 	dmb	sy
10000a50:	bd10      	pop	{r4, pc}
10000a52:	46c0      	nop			@ (mov r8, r8)

10000a54 <critical_section_init>:
10000a54:	b510      	push	{r4, lr}
10000a56:	0004      	movs	r4, r0
10000a58:	2001      	movs	r0, #1
10000a5a:	f7ff fdc7 	bl	100005ec <spin_lock_claim_unused>
10000a5e:	4b03      	ldr	r3, [pc, #12]	@ (10000a6c <critical_section_init+0x18>)
10000a60:	18c0      	adds	r0, r0, r3
10000a62:	0080      	lsls	r0, r0, #2
10000a64:	6020      	str	r0, [r4, #0]
10000a66:	f3bf 8f5f 	dmb	sy
10000a6a:	bd10      	pop	{r4, pc}
10000a6c:	34000040 	.word	0x34000040

10000a70 <critical_section_init_with_lock_num>:
10000a70:	4b03      	ldr	r3, [pc, #12]	@ (10000a80 <critical_section_init_with_lock_num+0x10>)
10000a72:	18c9      	adds	r1, r1, r3
10000a74:	0089      	lsls	r1, r1, #2
10000a76:	6001      	str	r1, [r0, #0]
10000a78:	f3bf 8f5f 	dmb	sy
10000a7c:	4770      	bx	lr
10000a7e:	46c0      	nop			@ (mov r8, r8)
10000a80:	34000040 	.word	0x34000040

10000a84 <sleep_until_callback>:
10000a84:	4b0a      	ldr	r3, [pc, #40]	@ (10000ab0 <sleep_until_callback+0x2c>)
10000a86:	6819      	ldr	r1, [r3, #0]
10000a88:	f3ef 8010 	mrs	r0, PRIMASK
10000a8c:	b672      	cpsid	i
10000a8e:	680a      	ldr	r2, [r1, #0]
10000a90:	2a00      	cmp	r2, #0
10000a92:	d0fc      	beq.n	10000a8e <sleep_until_callback+0xa>
10000a94:	f3bf 8f5f 	dmb	sy
10000a98:	681b      	ldr	r3, [r3, #0]
10000a9a:	f3bf 8f5f 	dmb	sy
10000a9e:	2200      	movs	r2, #0
10000aa0:	601a      	str	r2, [r3, #0]
10000aa2:	f380 8810 	msr	PRIMASK, r0
10000aa6:	bf40      	sev
10000aa8:	2000      	movs	r0, #0
10000aaa:	2100      	movs	r1, #0
10000aac:	4770      	bx	lr
10000aae:	46c0      	nop			@ (mov r8, r8)
10000ab0:	20001f3c 	.word	0x20001f3c

10000ab4 <alarm_pool_irq_handler>:
10000ab4:	b5f0      	push	{r4, r5, r6, r7, lr}
10000ab6:	46de      	mov	lr, fp
10000ab8:	4657      	mov	r7, sl
10000aba:	464e      	mov	r6, r9
10000abc:	4645      	mov	r5, r8
10000abe:	b5e0      	push	{r5, r6, r7, lr}
10000ac0:	b085      	sub	sp, #20
10000ac2:	f3ef 8305 	mrs	r3, IPSR
10000ac6:	2203      	movs	r2, #3
10000ac8:	401a      	ands	r2, r3
10000aca:	4bb3      	ldr	r3, [pc, #716]	@ (10000d98 <alarm_pool_irq_handler+0x2e4>)
10000acc:	0091      	lsls	r1, r2, #2
10000ace:	585f      	ldr	r7, [r3, r1]
10000ad0:	2301      	movs	r3, #1
10000ad2:	4093      	lsls	r3, r2
10000ad4:	469b      	mov	fp, r3
10000ad6:	9202      	str	r2, [sp, #8]
10000ad8:	465a      	mov	r2, fp
10000ada:	4688      	mov	r8, r1
10000adc:	4baf      	ldr	r3, [pc, #700]	@ (10000d9c <alarm_pool_irq_handler+0x2e8>)
10000ade:	601a      	str	r2, [r3, #0]
10000ae0:	4baf      	ldr	r3, [pc, #700]	@ (10000da0 <alarm_pool_irq_handler+0x2ec>)
10000ae2:	9303      	str	r3, [sp, #12]
10000ae4:	465b      	mov	r3, fp
10000ae6:	48af      	ldr	r0, [pc, #700]	@ (10000da4 <alarm_pool_irq_handler+0x2f0>)
10000ae8:	6343      	str	r3, [r0, #52]	@ 0x34
10000aea:	2308      	movs	r3, #8
10000aec:	5efe      	ldrsh	r6, [r7, r3]
10000aee:	2e00      	cmp	r6, #0
10000af0:	da37      	bge.n	10000b62 <alarm_pool_irq_handler+0xae>
10000af2:	88bb      	ldrh	r3, [r7, #4]
10000af4:	b21b      	sxth	r3, r3
10000af6:	2b00      	cmp	r3, #0
10000af8:	db00      	blt.n	10000afc <alarm_pool_irq_handler+0x48>
10000afa:	e0a4      	b.n	10000c46 <alarm_pool_irq_handler+0x192>
10000afc:	79bb      	ldrb	r3, [r7, #6]
10000afe:	2b00      	cmp	r3, #0
10000b00:	d000      	beq.n	10000b04 <alarm_pool_irq_handler+0x50>
10000b02:	e0e5      	b.n	10000cd0 <alarm_pool_irq_handler+0x21c>
10000b04:	2308      	movs	r3, #8
10000b06:	5ef9      	ldrsh	r1, [r7, r3]
10000b08:	2900      	cmp	r1, #0
10000b0a:	db20      	blt.n	10000b4e <alarm_pool_irq_handler+0x9a>
10000b0c:	004b      	lsls	r3, r1, #1
10000b0e:	697a      	ldr	r2, [r7, #20]
10000b10:	185b      	adds	r3, r3, r1
10000b12:	00db      	lsls	r3, r3, #3
10000b14:	18d3      	adds	r3, r2, r3
10000b16:	689d      	ldr	r5, [r3, #8]
10000b18:	68dc      	ldr	r4, [r3, #12]
10000b1a:	1c6b      	adds	r3, r5, #1
10000b1c:	d100      	bne.n	10000b20 <alarm_pool_irq_handler+0x6c>
10000b1e:	e104      	b.n	10000d2a <alarm_pool_irq_handler+0x276>
10000b20:	48a0      	ldr	r0, [pc, #640]	@ (10000da4 <alarm_pool_irq_handler+0x2f0>)
10000b22:	0001      	movs	r1, r0
10000b24:	4441      	add	r1, r8
10000b26:	6a82      	ldr	r2, [r0, #40]	@ 0x28
10000b28:	690b      	ldr	r3, [r1, #16]
10000b2a:	1aae      	subs	r6, r5, r2
10000b2c:	1a9b      	subs	r3, r3, r2
10000b2e:	429e      	cmp	r6, r3
10000b30:	d315      	bcc.n	10000b5e <alarm_pool_irq_handler+0xaa>
10000b32:	2301      	movs	r3, #1
10000b34:	6a02      	ldr	r2, [r0, #32]
10000b36:	9802      	ldr	r0, [sp, #8]
10000b38:	4083      	lsls	r3, r0
10000b3a:	421a      	tst	r2, r3
10000b3c:	d00f      	beq.n	10000b5e <alarm_pool_irq_handler+0xaa>
10000b3e:	4899      	ldr	r0, [pc, #612]	@ (10000da4 <alarm_pool_irq_handler+0x2f0>)
10000b40:	f000 fbaa 	bl	10001298 <timer_time_us_64>
10000b44:	428c      	cmp	r4, r1
10000b46:	dc02      	bgt.n	10000b4e <alarm_pool_irq_handler+0x9a>
10000b48:	d1cc      	bne.n	10000ae4 <alarm_pool_irq_handler+0x30>
10000b4a:	4285      	cmp	r5, r0
10000b4c:	d9ca      	bls.n	10000ae4 <alarm_pool_irq_handler+0x30>
10000b4e:	bf40      	sev
10000b50:	b005      	add	sp, #20
10000b52:	bcf0      	pop	{r4, r5, r6, r7}
10000b54:	46bb      	mov	fp, r7
10000b56:	46b2      	mov	sl, r6
10000b58:	46a9      	mov	r9, r5
10000b5a:	46a0      	mov	r8, r4
10000b5c:	bdf0      	pop	{r4, r5, r6, r7, pc}
10000b5e:	610d      	str	r5, [r1, #16]
10000b60:	e7ed      	b.n	10000b3e <alarm_pool_irq_handler+0x8a>
10000b62:	697a      	ldr	r2, [r7, #20]
10000b64:	0073      	lsls	r3, r6, #1
10000b66:	4691      	mov	r9, r2
10000b68:	199b      	adds	r3, r3, r6
10000b6a:	00db      	lsls	r3, r3, #3
10000b6c:	4499      	add	r9, r3
10000b6e:	464b      	mov	r3, r9
10000b70:	689c      	ldr	r4, [r3, #8]
10000b72:	68dd      	ldr	r5, [r3, #12]
10000b74:	f000 fb90 	bl	10001298 <timer_time_us_64>
10000b78:	428d      	cmp	r5, r1
10000b7a:	dcba      	bgt.n	10000af2 <alarm_pool_irq_handler+0x3e>
10000b7c:	d100      	bne.n	10000b80 <alarm_pool_irq_handler+0xcc>
10000b7e:	e0f6      	b.n	10000d6e <alarm_pool_irq_handler+0x2ba>
10000b80:	2d00      	cmp	r5, #0
10000b82:	da00      	bge.n	10000b86 <alarm_pool_irq_handler+0xd2>
10000b84:	e0db      	b.n	10000d3e <alarm_pool_irq_handler+0x28a>
10000b86:	464a      	mov	r2, r9
10000b88:	464b      	mov	r3, r9
10000b8a:	6952      	ldr	r2, [r2, #20]
10000b8c:	691b      	ldr	r3, [r3, #16]
10000b8e:	4692      	mov	sl, r2
10000b90:	9a03      	ldr	r2, [sp, #12]
10000b92:	4293      	cmp	r3, r2
10000b94:	d100      	bne.n	10000b98 <alarm_pool_irq_handler+0xe4>
10000b96:	e0cc      	b.n	10000d32 <alarm_pool_irq_handler+0x27e>
10000b98:	464a      	mov	r2, r9
10000b9a:	2108      	movs	r1, #8
10000b9c:	5e78      	ldrsh	r0, [r7, r1]
10000b9e:	8852      	ldrh	r2, [r2, #2]
10000ba0:	0400      	lsls	r0, r0, #16
10000ba2:	4651      	mov	r1, sl
10000ba4:	4310      	orrs	r0, r2
10000ba6:	4798      	blx	r3
10000ba8:	9000      	str	r0, [sp, #0]
10000baa:	9101      	str	r1, [sp, #4]
10000bac:	9900      	ldr	r1, [sp, #0]
10000bae:	9a01      	ldr	r2, [sp, #4]
10000bb0:	000b      	movs	r3, r1
10000bb2:	4313      	orrs	r3, r2
10000bb4:	d100      	bne.n	10000bb8 <alarm_pool_irq_handler+0x104>
10000bb6:	e0c2      	b.n	10000d3e <alarm_pool_irq_handler+0x28a>
10000bb8:	0013      	movs	r3, r2
10000bba:	000a      	movs	r2, r1
10000bbc:	2b00      	cmp	r3, #0
10000bbe:	db00      	blt.n	10000bc2 <alarm_pool_irq_handler+0x10e>
10000bc0:	e0d9      	b.n	10000d76 <alarm_pool_irq_handler+0x2c2>
10000bc2:	0020      	movs	r0, r4
10000bc4:	0029      	movs	r1, r5
10000bc6:	1a80      	subs	r0, r0, r2
10000bc8:	4199      	sbcs	r1, r3
10000bca:	464b      	mov	r3, r9
10000bcc:	6098      	str	r0, [r3, #8]
10000bce:	60d9      	str	r1, [r3, #12]
10000bd0:	2200      	movs	r2, #0
10000bd2:	5e9b      	ldrsh	r3, [r3, r2]
10000bd4:	2b00      	cmp	r3, #0
10000bd6:	da00      	bge.n	10000bda <alarm_pool_irq_handler+0x126>
10000bd8:	e78b      	b.n	10000af2 <alarm_pool_irq_handler+0x3e>
10000bda:	005d      	lsls	r5, r3, #1
10000bdc:	697c      	ldr	r4, [r7, #20]
10000bde:	18ea      	adds	r2, r5, r3
10000be0:	00d2      	lsls	r2, r2, #3
10000be2:	18a2      	adds	r2, r4, r2
10000be4:	9400      	str	r4, [sp, #0]
10000be6:	6894      	ldr	r4, [r2, #8]
10000be8:	68d2      	ldr	r2, [r2, #12]
10000bea:	46a2      	mov	sl, r4
10000bec:	428a      	cmp	r2, r1
10000bee:	dd00      	ble.n	10000bf2 <alarm_pool_irq_handler+0x13e>
10000bf0:	e77f      	b.n	10000af2 <alarm_pool_irq_handler+0x3e>
10000bf2:	d102      	bne.n	10000bfa <alarm_pool_irq_handler+0x146>
10000bf4:	4284      	cmp	r4, r0
10000bf6:	d900      	bls.n	10000bfa <alarm_pool_irq_handler+0x146>
10000bf8:	e77b      	b.n	10000af2 <alarm_pool_irq_handler+0x3e>
10000bfa:	2408      	movs	r4, #8
10000bfc:	46a4      	mov	ip, r4
10000bfe:	813b      	strh	r3, [r7, #8]
10000c00:	44bc      	add	ip, r7
10000c02:	9c00      	ldr	r4, [sp, #0]
10000c04:	9700      	str	r7, [sp, #0]
10000c06:	002f      	movs	r7, r5
10000c08:	4665      	mov	r5, ip
10000c0a:	46b4      	mov	ip, r6
10000c0c:	003e      	movs	r6, r7
10000c0e:	e006      	b.n	10000c1e <alarm_pool_irq_handler+0x16a>
10000c10:	005e      	lsls	r6, r3, #1
10000c12:	18f2      	adds	r2, r6, r3
10000c14:	00d2      	lsls	r2, r2, #3
10000c16:	18a2      	adds	r2, r4, r2
10000c18:	6897      	ldr	r7, [r2, #8]
10000c1a:	68d2      	ldr	r2, [r2, #12]
10000c1c:	46ba      	mov	sl, r7
10000c1e:	428a      	cmp	r2, r1
10000c20:	dc07      	bgt.n	10000c32 <alarm_pool_irq_handler+0x17e>
10000c22:	d100      	bne.n	10000c26 <alarm_pool_irq_handler+0x172>
10000c24:	e0b4      	b.n	10000d90 <alarm_pool_irq_handler+0x2dc>
10000c26:	18f3      	adds	r3, r6, r3
10000c28:	00db      	lsls	r3, r3, #3
10000c2a:	18e5      	adds	r5, r4, r3
10000c2c:	5ee3      	ldrsh	r3, [r4, r3]
10000c2e:	2b00      	cmp	r3, #0
10000c30:	daee      	bge.n	10000c10 <alarm_pool_irq_handler+0x15c>
10000c32:	4666      	mov	r6, ip
10000c34:	464a      	mov	r2, r9
10000c36:	9f00      	ldr	r7, [sp, #0]
10000c38:	8013      	strh	r3, [r2, #0]
10000c3a:	802e      	strh	r6, [r5, #0]
10000c3c:	88bb      	ldrh	r3, [r7, #4]
10000c3e:	b21b      	sxth	r3, r3
10000c40:	2b00      	cmp	r3, #0
10000c42:	da00      	bge.n	10000c46 <alarm_pool_irq_handler+0x192>
10000c44:	e75a      	b.n	10000afc <alarm_pool_irq_handler+0x48>
10000c46:	693a      	ldr	r2, [r7, #16]
10000c48:	f3ef 8110 	mrs	r1, PRIMASK
10000c4c:	b672      	cpsid	i
10000c4e:	6813      	ldr	r3, [r2, #0]
10000c50:	2b00      	cmp	r3, #0
10000c52:	d0fc      	beq.n	10000c4e <alarm_pool_irq_handler+0x19a>
10000c54:	f3bf 8f5f 	dmb	sy
10000c58:	2301      	movs	r3, #1
10000c5a:	88be      	ldrh	r6, [r7, #4]
10000c5c:	425b      	negs	r3, r3
10000c5e:	80bb      	strh	r3, [r7, #4]
10000c60:	b236      	sxth	r6, r6
10000c62:	693b      	ldr	r3, [r7, #16]
10000c64:	f3bf 8f5f 	dmb	sy
10000c68:	2200      	movs	r2, #0
10000c6a:	601a      	str	r2, [r3, #0]
10000c6c:	f381 8810 	msr	PRIMASK, r1
10000c70:	2e00      	cmp	r6, #0
10000c72:	da00      	bge.n	10000c76 <alarm_pool_irq_handler+0x1c2>
10000c74:	e742      	b.n	10000afc <alarm_pool_irq_handler+0x48>
10000c76:	003b      	movs	r3, r7
10000c78:	3308      	adds	r3, #8
10000c7a:	003a      	movs	r2, r7
10000c7c:	4699      	mov	r9, r3
10000c7e:	697d      	ldr	r5, [r7, #20]
10000c80:	0073      	lsls	r3, r6, #1
10000c82:	199b      	adds	r3, r3, r6
10000c84:	2408      	movs	r4, #8
10000c86:	5f11      	ldrsh	r1, [r2, r4]
10000c88:	00db      	lsls	r3, r3, #3
10000c8a:	4648      	mov	r0, r9
10000c8c:	18eb      	adds	r3, r5, r3
10000c8e:	2900      	cmp	r1, #0
10000c90:	db13      	blt.n	10000cba <alarm_pool_irq_handler+0x206>
10000c92:	689c      	ldr	r4, [r3, #8]
10000c94:	9300      	str	r3, [sp, #0]
10000c96:	46a4      	mov	ip, r4
10000c98:	68dc      	ldr	r4, [r3, #12]
10000c9a:	e006      	b.n	10000caa <alarm_pool_irq_handler+0x1f6>
10000c9c:	42a3      	cmp	r3, r4
10000c9e:	d040      	beq.n	10000d22 <alarm_pool_irq_handler+0x26e>
10000ca0:	2300      	movs	r3, #0
10000ca2:	5ef9      	ldrsh	r1, [r7, r3]
10000ca4:	0038      	movs	r0, r7
10000ca6:	2900      	cmp	r1, #0
10000ca8:	db06      	blt.n	10000cb8 <alarm_pool_irq_handler+0x204>
10000caa:	004f      	lsls	r7, r1, #1
10000cac:	187f      	adds	r7, r7, r1
10000cae:	00ff      	lsls	r7, r7, #3
10000cb0:	19ef      	adds	r7, r5, r7
10000cb2:	68fb      	ldr	r3, [r7, #12]
10000cb4:	42a3      	cmp	r3, r4
10000cb6:	ddf1      	ble.n	10000c9c <alarm_pool_irq_handler+0x1e8>
10000cb8:	9b00      	ldr	r3, [sp, #0]
10000cba:	8006      	strh	r6, [r0, #0]
10000cbc:	2000      	movs	r0, #0
10000cbe:	5e1e      	ldrsh	r6, [r3, r0]
10000cc0:	8019      	strh	r1, [r3, #0]
10000cc2:	2e00      	cmp	r6, #0
10000cc4:	dadc      	bge.n	10000c80 <alarm_pool_irq_handler+0x1cc>
10000cc6:	0017      	movs	r7, r2
10000cc8:	79bb      	ldrb	r3, [r7, #6]
10000cca:	2b00      	cmp	r3, #0
10000ccc:	d100      	bne.n	10000cd0 <alarm_pool_irq_handler+0x21c>
10000cce:	e719      	b.n	10000b04 <alarm_pool_irq_handler+0x50>
10000cd0:	2300      	movs	r3, #0
10000cd2:	71bb      	strb	r3, [r7, #6]
10000cd4:	2308      	movs	r3, #8
10000cd6:	5ef9      	ldrsh	r1, [r7, r3]
10000cd8:	1c4b      	adds	r3, r1, #1
10000cda:	d100      	bne.n	10000cde <alarm_pool_irq_handler+0x22a>
10000cdc:	e737      	b.n	10000b4e <alarm_pool_irq_handler+0x9a>
10000cde:	003d      	movs	r5, r7
10000ce0:	3508      	adds	r5, #8
10000ce2:	46ac      	mov	ip, r5
10000ce4:	697c      	ldr	r4, [r7, #20]
10000ce6:	e003      	b.n	10000cf0 <alarm_pool_irq_handler+0x23c>
10000ce8:	4684      	mov	ip, r0
10000cea:	1c4b      	adds	r3, r1, #1
10000cec:	d100      	bne.n	10000cf0 <alarm_pool_irq_handler+0x23c>
10000cee:	e709      	b.n	10000b04 <alarm_pool_irq_handler+0x50>
10000cf0:	004b      	lsls	r3, r1, #1
10000cf2:	185b      	adds	r3, r3, r1
10000cf4:	00db      	lsls	r3, r3, #3
10000cf6:	18e0      	adds	r0, r4, r3
10000cf8:	000a      	movs	r2, r1
10000cfa:	5ee1      	ldrsh	r1, [r4, r3]
10000cfc:	8843      	ldrh	r3, [r0, #2]
10000cfe:	b21b      	sxth	r3, r3
10000d00:	2b00      	cmp	r3, #0
10000d02:	daf1      	bge.n	10000ce8 <alarm_pool_irq_handler+0x234>
10000d04:	2501      	movs	r5, #1
10000d06:	426d      	negs	r5, r5
10000d08:	17ee      	asrs	r6, r5, #31
10000d0a:	6085      	str	r5, [r0, #8]
10000d0c:	60c6      	str	r6, [r0, #12]
10000d0e:	2508      	movs	r5, #8
10000d10:	5f7b      	ldrsh	r3, [r7, r5]
10000d12:	4293      	cmp	r3, r2
10000d14:	d0e9      	beq.n	10000cea <alarm_pool_irq_handler+0x236>
10000d16:	4663      	mov	r3, ip
10000d18:	8019      	strh	r1, [r3, #0]
10000d1a:	893b      	ldrh	r3, [r7, #8]
10000d1c:	8003      	strh	r3, [r0, #0]
10000d1e:	813a      	strh	r2, [r7, #8]
10000d20:	e7e3      	b.n	10000cea <alarm_pool_irq_handler+0x236>
10000d22:	68bb      	ldr	r3, [r7, #8]
10000d24:	4563      	cmp	r3, ip
10000d26:	d9bb      	bls.n	10000ca0 <alarm_pool_irq_handler+0x1ec>
10000d28:	e7c6      	b.n	10000cb8 <alarm_pool_irq_handler+0x204>
10000d2a:	1c63      	adds	r3, r4, #1
10000d2c:	d000      	beq.n	10000d30 <alarm_pool_irq_handler+0x27c>
10000d2e:	e6f7      	b.n	10000b20 <alarm_pool_irq_handler+0x6c>
10000d30:	e705      	b.n	10000b3e <alarm_pool_irq_handler+0x8a>
10000d32:	4653      	mov	r3, sl
10000d34:	4650      	mov	r0, sl
10000d36:	691b      	ldr	r3, [r3, #16]
10000d38:	4798      	blx	r3
10000d3a:	2800      	cmp	r0, #0
10000d3c:	d123      	bne.n	10000d86 <alarm_pool_irq_handler+0x2d2>
10000d3e:	464b      	mov	r3, r9
10000d40:	881b      	ldrh	r3, [r3, #0]
10000d42:	693a      	ldr	r2, [r7, #16]
10000d44:	813b      	strh	r3, [r7, #8]
10000d46:	f3ef 8310 	mrs	r3, PRIMASK
10000d4a:	b672      	cpsid	i
10000d4c:	6811      	ldr	r1, [r2, #0]
10000d4e:	2900      	cmp	r1, #0
10000d50:	d0fc      	beq.n	10000d4c <alarm_pool_irq_handler+0x298>
10000d52:	f3bf 8f5f 	dmb	sy
10000d56:	4649      	mov	r1, r9
10000d58:	887a      	ldrh	r2, [r7, #2]
10000d5a:	800a      	strh	r2, [r1, #0]
10000d5c:	693a      	ldr	r2, [r7, #16]
10000d5e:	807e      	strh	r6, [r7, #2]
10000d60:	f3bf 8f5f 	dmb	sy
10000d64:	2100      	movs	r1, #0
10000d66:	6011      	str	r1, [r2, #0]
10000d68:	f383 8810 	msr	PRIMASK, r3
10000d6c:	e6c1      	b.n	10000af2 <alarm_pool_irq_handler+0x3e>
10000d6e:	4284      	cmp	r4, r0
10000d70:	d800      	bhi.n	10000d74 <alarm_pool_irq_handler+0x2c0>
10000d72:	e705      	b.n	10000b80 <alarm_pool_irq_handler+0xcc>
10000d74:	e6bd      	b.n	10000af2 <alarm_pool_irq_handler+0x3e>
10000d76:	480b      	ldr	r0, [pc, #44]	@ (10000da4 <alarm_pool_irq_handler+0x2f0>)
10000d78:	f000 fa8e 	bl	10001298 <timer_time_us_64>
10000d7c:	9b00      	ldr	r3, [sp, #0]
10000d7e:	9c01      	ldr	r4, [sp, #4]
10000d80:	18c0      	adds	r0, r0, r3
10000d82:	4161      	adcs	r1, r4
10000d84:	e721      	b.n	10000bca <alarm_pool_irq_handler+0x116>
10000d86:	4653      	mov	r3, sl
10000d88:	cb0c      	ldmia	r3, {r2, r3}
10000d8a:	9200      	str	r2, [sp, #0]
10000d8c:	9301      	str	r3, [sp, #4]
10000d8e:	e70d      	b.n	10000bac <alarm_pool_irq_handler+0xf8>
10000d90:	4582      	cmp	sl, r0
10000d92:	d800      	bhi.n	10000d96 <alarm_pool_irq_handler+0x2e2>
10000d94:	e747      	b.n	10000c26 <alarm_pool_irq_handler+0x172>
10000d96:	e74c      	b.n	10000c32 <alarm_pool_irq_handler+0x17e>
10000d98:	20001f20 	.word	0x20001f20
10000d9c:	4005703c 	.word	0x4005703c
10000da0:	10000ab5 	.word	0x10000ab5
10000da4:	40054000 	.word	0x40054000

10000da8 <runtime_init_default_alarm_pool>:
10000da8:	b570      	push	{r4, r5, r6, lr}
10000daa:	4c2d      	ldr	r4, [pc, #180]	@ (10000e60 <runtime_init_default_alarm_pool+0xb8>)
10000dac:	6925      	ldr	r5, [r4, #16]
10000dae:	2d00      	cmp	r5, #0
10000db0:	d004      	beq.n	10000dbc <runtime_init_default_alarm_pool+0x14>
10000db2:	210a      	movs	r1, #10
10000db4:	482b      	ldr	r0, [pc, #172]	@ (10000e64 <runtime_init_default_alarm_pool+0xbc>)
10000db6:	f7ff fe0f 	bl	100009d8 <lock_init>
10000dba:	bd70      	pop	{r4, r5, r6, pc}
10000dbc:	4e2a      	ldr	r6, [pc, #168]	@ (10000e68 <runtime_init_default_alarm_pool+0xc0>)
10000dbe:	2103      	movs	r1, #3
10000dc0:	4829      	ldr	r0, [pc, #164]	@ (10000e68 <runtime_init_default_alarm_pool+0xc0>)
10000dc2:	f000 fa5f 	bl	10001284 <timer_hardware_alarm_claim>
10000dc6:	60e6      	str	r6, [r4, #12]
10000dc8:	f7ff fc04 	bl	100005d4 <next_striped_spin_lock_num>
10000dcc:	4b27      	ldr	r3, [pc, #156]	@ (10000e6c <runtime_init_default_alarm_pool+0xc4>)
10000dce:	2203      	movs	r2, #3
10000dd0:	18c0      	adds	r0, r0, r3
10000dd2:	23d0      	movs	r3, #208	@ 0xd0
10000dd4:	7022      	strb	r2, [r4, #0]
10000dd6:	061b      	lsls	r3, r3, #24
10000dd8:	681b      	ldr	r3, [r3, #0]
10000dda:	2101      	movs	r1, #1
10000ddc:	7063      	strb	r3, [r4, #1]
10000dde:	4b24      	ldr	r3, [pc, #144]	@ (10000e70 <runtime_init_default_alarm_pool+0xc8>)
10000de0:	0080      	lsls	r0, r0, #2
10000de2:	60a3      	str	r3, [r4, #8]
10000de4:	230f      	movs	r3, #15
10000de6:	6120      	str	r0, [r4, #16]
10000de8:	2002      	movs	r0, #2
10000dea:	8063      	strh	r3, [r4, #2]
10000dec:	6963      	ldr	r3, [r4, #20]
10000dee:	4249      	negs	r1, r1
10000df0:	80a1      	strh	r1, [r4, #4]
10000df2:	8019      	strh	r1, [r3, #0]
10000df4:	3102      	adds	r1, #2
10000df6:	8619      	strh	r1, [r3, #48]	@ 0x30
10000df8:	3147      	adds	r1, #71	@ 0x47
10000dfa:	831d      	strh	r5, [r3, #24]
10000dfc:	5258      	strh	r0, [r3, r1]
10000dfe:	3118      	adds	r1, #24
10000e00:	525a      	strh	r2, [r3, r1]
10000e02:	3275      	adds	r2, #117	@ 0x75
10000e04:	395c      	subs	r1, #92	@ 0x5c
10000e06:	5299      	strh	r1, [r3, r2]
10000e08:	3218      	adds	r2, #24
10000e0a:	3101      	adds	r1, #1
10000e0c:	5299      	strh	r1, [r3, r2]
10000e0e:	3218      	adds	r2, #24
10000e10:	3101      	adds	r1, #1
10000e12:	5299      	strh	r1, [r3, r2]
10000e14:	3218      	adds	r2, #24
10000e16:	3101      	adds	r1, #1
10000e18:	5299      	strh	r1, [r3, r2]
10000e1a:	3508      	adds	r5, #8
10000e1c:	3218      	adds	r2, #24
10000e1e:	529d      	strh	r5, [r3, r2]
10000e20:	3102      	adds	r1, #2
10000e22:	3218      	adds	r2, #24
10000e24:	5299      	strh	r1, [r3, r2]
10000e26:	3218      	adds	r2, #24
10000e28:	3101      	adds	r1, #1
10000e2a:	5299      	strh	r1, [r3, r2]
10000e2c:	3218      	adds	r2, #24
10000e2e:	3101      	adds	r1, #1
10000e30:	5299      	strh	r1, [r3, r2]
10000e32:	3218      	adds	r2, #24
10000e34:	3101      	adds	r1, #1
10000e36:	5299      	strh	r1, [r3, r2]
10000e38:	3218      	adds	r2, #24
10000e3a:	3101      	adds	r1, #1
10000e3c:	5299      	strh	r1, [r3, r2]
10000e3e:	3218      	adds	r2, #24
10000e40:	3101      	adds	r1, #1
10000e42:	5299      	strh	r1, [r3, r2]
10000e44:	4b0b      	ldr	r3, [pc, #44]	@ (10000e74 <runtime_init_default_alarm_pool+0xcc>)
10000e46:	490c      	ldr	r1, [pc, #48]	@ (10000e78 <runtime_init_default_alarm_pool+0xd0>)
10000e48:	60dc      	str	r4, [r3, #12]
10000e4a:	3001      	adds	r0, #1
10000e4c:	6235      	str	r5, [r6, #32]
10000e4e:	f7ff fc45 	bl	100006dc <irq_set_exclusive_handler>
10000e52:	2101      	movs	r1, #1
10000e54:	2003      	movs	r0, #3
10000e56:	f7ff fc0b 	bl	10000670 <irq_set_enabled>
10000e5a:	4b08      	ldr	r3, [pc, #32]	@ (10000e7c <runtime_init_default_alarm_pool+0xd4>)
10000e5c:	601d      	str	r5, [r3, #0]
10000e5e:	e7a8      	b.n	10000db2 <runtime_init_default_alarm_pool+0xa>
10000e60:	20000fe4 	.word	0x20000fe4
10000e64:	20001f3c 	.word	0x20001f3c
10000e68:	40054000 	.word	0x40054000
10000e6c:	34000040 	.word	0x34000040
10000e70:	0010ffff 	.word	0x0010ffff
10000e74:	20001f20 	.word	0x20001f20
10000e78:	10000ab5 	.word	0x10000ab5
10000e7c:	40056038 	.word	0x40056038

10000e80 <alarm_pool_get_default>:
10000e80:	4800      	ldr	r0, [pc, #0]	@ (10000e84 <alarm_pool_get_default+0x4>)
10000e82:	4770      	bx	lr
10000e84:	20000fe4 	.word	0x20000fe4

10000e88 <alarm_pool_add_alarm_at>:
10000e88:	b5f8      	push	{r3, r4, r5, r6, r7, lr}
10000e8a:	001f      	movs	r7, r3
10000e8c:	ab08      	add	r3, sp, #32
10000e8e:	781b      	ldrb	r3, [r3, #0]
10000e90:	0004      	movs	r4, r0
10000e92:	0016      	movs	r6, r2
10000e94:	2b00      	cmp	r3, #0
10000e96:	d107      	bne.n	10000ea8 <alarm_pool_add_alarm_at+0x20>
10000e98:	f000 fa06 	bl	100012a8 <time_us_64>
10000e9c:	0032      	movs	r2, r6
10000e9e:	003b      	movs	r3, r7
10000ea0:	1a12      	subs	r2, r2, r0
10000ea2:	418b      	sbcs	r3, r1
10000ea4:	2b00      	cmp	r3, #0
10000ea6:	db51      	blt.n	10000f4c <alarm_pool_add_alarm_at+0xc4>
10000ea8:	6922      	ldr	r2, [r4, #16]
10000eaa:	f3ef 8c10 	mrs	ip, PRIMASK
10000eae:	b672      	cpsid	i
10000eb0:	6813      	ldr	r3, [r2, #0]
10000eb2:	2b00      	cmp	r3, #0
10000eb4:	d0fc      	beq.n	10000eb0 <alarm_pool_add_alarm_at+0x28>
10000eb6:	f3bf 8f5f 	dmb	sy
10000eba:	2302      	movs	r3, #2
10000ebc:	5ee1      	ldrsh	r1, [r4, r3]
10000ebe:	6925      	ldr	r5, [r4, #16]
10000ec0:	2900      	cmp	r1, #0
10000ec2:	db3a      	blt.n	10000f3a <alarm_pool_add_alarm_at+0xb2>
10000ec4:	004b      	lsls	r3, r1, #1
10000ec6:	6960      	ldr	r0, [r4, #20]
10000ec8:	185b      	adds	r3, r3, r1
10000eca:	00db      	lsls	r3, r3, #3
10000ecc:	18c2      	adds	r2, r0, r3
10000ece:	5ac3      	ldrh	r3, [r0, r3]
10000ed0:	8063      	strh	r3, [r4, #2]
10000ed2:	f3bf 8f5f 	dmb	sy
10000ed6:	2300      	movs	r3, #0
10000ed8:	602b      	str	r3, [r5, #0]
10000eda:	f38c 8810 	msr	PRIMASK, ip
10000ede:	9b06      	ldr	r3, [sp, #24]
10000ee0:	6096      	str	r6, [r2, #8]
10000ee2:	60d7      	str	r7, [r2, #12]
10000ee4:	6113      	str	r3, [r2, #16]
10000ee6:	9b07      	ldr	r3, [sp, #28]
10000ee8:	6153      	str	r3, [r2, #20]
10000eea:	8853      	ldrh	r3, [r2, #2]
10000eec:	3301      	adds	r3, #1
10000eee:	045b      	lsls	r3, r3, #17
10000ef0:	0c5b      	lsrs	r3, r3, #17
10000ef2:	1c18      	adds	r0, r3, #0
10000ef4:	2b00      	cmp	r3, #0
10000ef6:	d01e      	beq.n	10000f36 <alarm_pool_add_alarm_at+0xae>
10000ef8:	b283      	uxth	r3, r0
10000efa:	8050      	strh	r0, [r2, #2]
10000efc:	0408      	lsls	r0, r1, #16
10000efe:	4318      	orrs	r0, r3
10000f00:	6925      	ldr	r5, [r4, #16]
10000f02:	f3ef 8610 	mrs	r6, PRIMASK
10000f06:	b672      	cpsid	i
10000f08:	682b      	ldr	r3, [r5, #0]
10000f0a:	2b00      	cmp	r3, #0
10000f0c:	d0fc      	beq.n	10000f08 <alarm_pool_add_alarm_at+0x80>
10000f0e:	f3bf 8f5f 	dmb	sy
10000f12:	88a3      	ldrh	r3, [r4, #4]
10000f14:	8013      	strh	r3, [r2, #0]
10000f16:	80a1      	strh	r1, [r4, #4]
10000f18:	6923      	ldr	r3, [r4, #16]
10000f1a:	f3bf 8f5f 	dmb	sy
10000f1e:	2200      	movs	r2, #0
10000f20:	601a      	str	r2, [r3, #0]
10000f22:	f386 8810 	msr	PRIMASK, r6
10000f26:	7823      	ldrb	r3, [r4, #0]
10000f28:	3201      	adds	r2, #1
10000f2a:	409a      	lsls	r2, r3
10000f2c:	4908      	ldr	r1, [pc, #32]	@ (10000f50 <alarm_pool_add_alarm_at+0xc8>)
10000f2e:	68e3      	ldr	r3, [r4, #12]
10000f30:	185b      	adds	r3, r3, r1
10000f32:	601a      	str	r2, [r3, #0]
10000f34:	bdf8      	pop	{r3, r4, r5, r6, r7, pc}
10000f36:	2001      	movs	r0, #1
10000f38:	e7de      	b.n	10000ef8 <alarm_pool_add_alarm_at+0x70>
10000f3a:	f3bf 8f5f 	dmb	sy
10000f3e:	2300      	movs	r3, #0
10000f40:	602b      	str	r3, [r5, #0]
10000f42:	f38c 8810 	msr	PRIMASK, ip
10000f46:	2001      	movs	r0, #1
10000f48:	4240      	negs	r0, r0
10000f4a:	e7f3      	b.n	10000f34 <alarm_pool_add_alarm_at+0xac>
10000f4c:	2000      	movs	r0, #0
10000f4e:	e7f1      	b.n	10000f34 <alarm_pool_add_alarm_at+0xac>
10000f50:	0000203c 	.word	0x0000203c

10000f54 <alarm_pool_add_alarm_at_force_in_context>:
10000f54:	b570      	push	{r4, r5, r6, lr}
10000f56:	b082      	sub	sp, #8
10000f58:	9200      	str	r2, [sp, #0]
10000f5a:	9301      	str	r3, [sp, #4]
10000f5c:	0001      	movs	r1, r0
10000f5e:	6902      	ldr	r2, [r0, #16]
10000f60:	f3ef 8410 	mrs	r4, PRIMASK
10000f64:	b672      	cpsid	i
10000f66:	6813      	ldr	r3, [r2, #0]
10000f68:	2b00      	cmp	r3, #0
10000f6a:	d0fc      	beq.n	10000f66 <alarm_pool_add_alarm_at_force_in_context+0x12>
10000f6c:	f3bf 8f5f 	dmb	sy
10000f70:	2302      	movs	r3, #2
10000f72:	5ec8      	ldrsh	r0, [r1, r3]
10000f74:	690d      	ldr	r5, [r1, #16]
10000f76:	2800      	cmp	r0, #0
10000f78:	db3f      	blt.n	10000ffa <alarm_pool_add_alarm_at_force_in_context+0xa6>
10000f7a:	694a      	ldr	r2, [r1, #20]
10000f7c:	0043      	lsls	r3, r0, #1
10000f7e:	0016      	movs	r6, r2
10000f80:	181b      	adds	r3, r3, r0
10000f82:	00db      	lsls	r3, r3, #3
10000f84:	18d2      	adds	r2, r2, r3
10000f86:	5af3      	ldrh	r3, [r6, r3]
10000f88:	804b      	strh	r3, [r1, #2]
10000f8a:	f3bf 8f5f 	dmb	sy
10000f8e:	2300      	movs	r3, #0
10000f90:	602b      	str	r3, [r5, #0]
10000f92:	f384 8810 	msr	PRIMASK, r4
10000f96:	9b06      	ldr	r3, [sp, #24]
10000f98:	6113      	str	r3, [r2, #16]
10000f9a:	9b07      	ldr	r3, [sp, #28]
10000f9c:	6153      	str	r3, [r2, #20]
10000f9e:	9b00      	ldr	r3, [sp, #0]
10000fa0:	9c01      	ldr	r4, [sp, #4]
10000fa2:	6093      	str	r3, [r2, #8]
10000fa4:	60d4      	str	r4, [r2, #12]
10000fa6:	8853      	ldrh	r3, [r2, #2]
10000fa8:	3301      	adds	r3, #1
10000faa:	045b      	lsls	r3, r3, #17
10000fac:	0c5b      	lsrs	r3, r3, #17
10000fae:	1c1d      	adds	r5, r3, #0
10000fb0:	2b00      	cmp	r3, #0
10000fb2:	d020      	beq.n	10000ff6 <alarm_pool_add_alarm_at_force_in_context+0xa2>
10000fb4:	b2ac      	uxth	r4, r5
10000fb6:	0403      	lsls	r3, r0, #16
10000fb8:	8055      	strh	r5, [r2, #2]
10000fba:	4323      	orrs	r3, r4
10000fbc:	690d      	ldr	r5, [r1, #16]
10000fbe:	f3ef 8c10 	mrs	ip, PRIMASK
10000fc2:	b672      	cpsid	i
10000fc4:	682c      	ldr	r4, [r5, #0]
10000fc6:	2c00      	cmp	r4, #0
10000fc8:	d0fc      	beq.n	10000fc4 <alarm_pool_add_alarm_at_force_in_context+0x70>
10000fca:	f3bf 8f5f 	dmb	sy
10000fce:	888c      	ldrh	r4, [r1, #4]
10000fd0:	8014      	strh	r4, [r2, #0]
10000fd2:	8088      	strh	r0, [r1, #4]
10000fd4:	690a      	ldr	r2, [r1, #16]
10000fd6:	f3bf 8f5f 	dmb	sy
10000fda:	2000      	movs	r0, #0
10000fdc:	6010      	str	r0, [r2, #0]
10000fde:	f38c 8810 	msr	PRIMASK, ip
10000fe2:	780a      	ldrb	r2, [r1, #0]
10000fe4:	3001      	adds	r0, #1
10000fe6:	4090      	lsls	r0, r2
10000fe8:	68ca      	ldr	r2, [r1, #12]
10000fea:	4908      	ldr	r1, [pc, #32]	@ (1000100c <alarm_pool_add_alarm_at_force_in_context+0xb8>)
10000fec:	1852      	adds	r2, r2, r1
10000fee:	6010      	str	r0, [r2, #0]
10000ff0:	0018      	movs	r0, r3
10000ff2:	b002      	add	sp, #8
10000ff4:	bd70      	pop	{r4, r5, r6, pc}
10000ff6:	2501      	movs	r5, #1
10000ff8:	e7dc      	b.n	10000fb4 <alarm_pool_add_alarm_at_force_in_context+0x60>
10000ffa:	f3bf 8f5f 	dmb	sy
10000ffe:	2300      	movs	r3, #0
10001000:	602b      	str	r3, [r5, #0]
10001002:	f384 8810 	msr	PRIMASK, r4
10001006:	3b01      	subs	r3, #1
10001008:	e7f2      	b.n	10000ff0 <alarm_pool_add_alarm_at_force_in_context+0x9c>
1000100a:	46c0      	nop			@ (mov r8, r8)
1000100c:	0000203c 	.word	0x0000203c

10001010 <alarm_pool_cancel_alarm>:
10001010:	b510      	push	{r4, lr}
10001012:	8943      	ldrh	r3, [r0, #10]
10001014:	140a      	asrs	r2, r1, #16
10001016:	4293      	cmp	r3, r2
10001018:	dd1a      	ble.n	10001050 <alarm_pool_cancel_alarm+0x40>
1000101a:	0053      	lsls	r3, r2, #1
1000101c:	189b      	adds	r3, r3, r2
1000101e:	6942      	ldr	r2, [r0, #20]
10001020:	00db      	lsls	r3, r3, #3
10001022:	18d3      	adds	r3, r2, r3
10001024:	6904      	ldr	r4, [r0, #16]
10001026:	f3ef 8c10 	mrs	ip, PRIMASK
1000102a:	b672      	cpsid	i
1000102c:	6822      	ldr	r2, [r4, #0]
1000102e:	2a00      	cmp	r2, #0
10001030:	d0fc      	beq.n	1000102c <alarm_pool_cancel_alarm+0x1c>
10001032:	f3bf 8f5f 	dmb	sy
10001036:	885a      	ldrh	r2, [r3, #2]
10001038:	0409      	lsls	r1, r1, #16
1000103a:	b294      	uxth	r4, r2
1000103c:	0c09      	lsrs	r1, r1, #16
1000103e:	428a      	cmp	r2, r1
10001040:	d008      	beq.n	10001054 <alarm_pool_cancel_alarm+0x44>
10001042:	6903      	ldr	r3, [r0, #16]
10001044:	f3bf 8f5f 	dmb	sy
10001048:	2200      	movs	r2, #0
1000104a:	601a      	str	r2, [r3, #0]
1000104c:	f38c 8810 	msr	PRIMASK, ip
10001050:	2000      	movs	r0, #0
10001052:	bd10      	pop	{r4, pc}
10001054:	4a09      	ldr	r2, [pc, #36]	@ (1000107c <alarm_pool_cancel_alarm+0x6c>)
10001056:	4322      	orrs	r2, r4
10001058:	805a      	strh	r2, [r3, #2]
1000105a:	2301      	movs	r3, #1
1000105c:	6902      	ldr	r2, [r0, #16]
1000105e:	7183      	strb	r3, [r0, #6]
10001060:	f3bf 8f5f 	dmb	sy
10001064:	2100      	movs	r1, #0
10001066:	6011      	str	r1, [r2, #0]
10001068:	f38c 8810 	msr	PRIMASK, ip
1000106c:	7802      	ldrb	r2, [r0, #0]
1000106e:	4904      	ldr	r1, [pc, #16]	@ (10001080 <alarm_pool_cancel_alarm+0x70>)
10001070:	4093      	lsls	r3, r2
10001072:	68c2      	ldr	r2, [r0, #12]
10001074:	2001      	movs	r0, #1
10001076:	1852      	adds	r2, r2, r1
10001078:	6013      	str	r3, [r2, #0]
1000107a:	e7ea      	b.n	10001052 <alarm_pool_cancel_alarm+0x42>
1000107c:	ffff8000 	.word	0xffff8000
10001080:	0000203c 	.word	0x0000203c

10001084 <alarm_pool_core_num>:
10001084:	7840      	ldrb	r0, [r0, #1]
10001086:	4770      	bx	lr

10001088 <sleep_ms>:
10001088:	b5f0      	push	{r4, r5, r6, r7, lr}
1000108a:	46c6      	mov	lr, r8
1000108c:	b500      	push	{lr}
1000108e:	b082      	sub	sp, #8
10001090:	0004      	movs	r4, r0
10001092:	f000 f909 	bl	100012a8 <time_us_64>
10001096:	22fa      	movs	r2, #250	@ 0xfa
10001098:	0006      	movs	r6, r0
1000109a:	000f      	movs	r7, r1
1000109c:	0020      	movs	r0, r4
1000109e:	2300      	movs	r3, #0
100010a0:	2100      	movs	r1, #0
100010a2:	0092      	lsls	r2, r2, #2
100010a4:	f001 fa86 	bl	100025b4 <__wrap___aeabi_lmul>
100010a8:	1980      	adds	r0, r0, r6
100010aa:	4179      	adcs	r1, r7
100010ac:	0004      	movs	r4, r0
100010ae:	1e0d      	subs	r5, r1, #0
100010b0:	da02      	bge.n	100010b8 <sleep_ms+0x30>
100010b2:	2401      	movs	r4, #1
100010b4:	4d2e      	ldr	r5, [pc, #184]	@ (10001170 <sleep_ms+0xe8>)
100010b6:	4264      	negs	r4, r4
100010b8:	2606      	movs	r6, #6
100010ba:	4276      	negs	r6, r6
100010bc:	17f7      	asrs	r7, r6, #31
100010be:	1936      	adds	r6, r6, r4
100010c0:	416f      	adcs	r7, r5
100010c2:	42af      	cmp	r7, r5
100010c4:	d814      	bhi.n	100010f0 <sleep_ms+0x68>
100010c6:	d011      	beq.n	100010ec <sleep_ms+0x64>
100010c8:	f000 f8ee 	bl	100012a8 <time_us_64>
100010cc:	0032      	movs	r2, r6
100010ce:	003b      	movs	r3, r7
100010d0:	1a12      	subs	r2, r2, r0
100010d2:	418b      	sbcs	r3, r1
100010d4:	2b00      	cmp	r3, #0
100010d6:	dc15      	bgt.n	10001104 <sleep_ms+0x7c>
100010d8:	2b00      	cmp	r3, #0
100010da:	d046      	beq.n	1000116a <sleep_ms+0xe2>
100010dc:	0020      	movs	r0, r4
100010de:	0029      	movs	r1, r5
100010e0:	f000 f8ec 	bl	100012bc <busy_wait_until>
100010e4:	b002      	add	sp, #8
100010e6:	bc80      	pop	{r7}
100010e8:	46b8      	mov	r8, r7
100010ea:	bdf0      	pop	{r4, r5, r6, r7, pc}
100010ec:	42a6      	cmp	r6, r4
100010ee:	d9eb      	bls.n	100010c8 <sleep_ms+0x40>
100010f0:	2600      	movs	r6, #0
100010f2:	2700      	movs	r7, #0
100010f4:	f000 f8d8 	bl	100012a8 <time_us_64>
100010f8:	0032      	movs	r2, r6
100010fa:	003b      	movs	r3, r7
100010fc:	1a12      	subs	r2, r2, r0
100010fe:	418b      	sbcs	r3, r1
10001100:	2b00      	cmp	r3, #0
10001102:	dde9      	ble.n	100010d8 <sleep_ms+0x50>
10001104:	f000 f8d0 	bl	100012a8 <time_us_64>
10001108:	0032      	movs	r2, r6
1000110a:	003b      	movs	r3, r7
1000110c:	1a12      	subs	r2, r2, r0
1000110e:	418b      	sbcs	r3, r1
10001110:	2b00      	cmp	r3, #0
10001112:	db0a      	blt.n	1000112a <sleep_ms+0xa2>
10001114:	2300      	movs	r3, #0
10001116:	9301      	str	r3, [sp, #4]
10001118:	4b16      	ldr	r3, [pc, #88]	@ (10001174 <sleep_ms+0xec>)
1000111a:	0032      	movs	r2, r6
1000111c:	9300      	str	r3, [sp, #0]
1000111e:	4816      	ldr	r0, [pc, #88]	@ (10001178 <sleep_ms+0xf0>)
10001120:	003b      	movs	r3, r7
10001122:	f7ff ff17 	bl	10000f54 <alarm_pool_add_alarm_at_force_in_context>
10001126:	3001      	adds	r0, #1
10001128:	d0d8      	beq.n	100010dc <sleep_ms+0x54>
1000112a:	2300      	movs	r3, #0
1000112c:	0039      	movs	r1, r7
1000112e:	46b0      	mov	r8, r6
10001130:	469c      	mov	ip, r3
10001132:	4a12      	ldr	r2, [pc, #72]	@ (1000117c <sleep_ms+0xf4>)
10001134:	4812      	ldr	r0, [pc, #72]	@ (10001180 <sleep_ms+0xf8>)
10001136:	6a53      	ldr	r3, [r2, #36]	@ 0x24
10001138:	4299      	cmp	r1, r3
1000113a:	d804      	bhi.n	10001146 <sleep_ms+0xbe>
1000113c:	6a96      	ldr	r6, [r2, #40]	@ 0x28
1000113e:	4546      	cmp	r6, r8
10001140:	d2cc      	bcs.n	100010dc <sleep_ms+0x54>
10001142:	4299      	cmp	r1, r3
10001144:	d1ca      	bne.n	100010dc <sleep_ms+0x54>
10001146:	6806      	ldr	r6, [r0, #0]
10001148:	f3ef 8710 	mrs	r7, PRIMASK
1000114c:	b672      	cpsid	i
1000114e:	6833      	ldr	r3, [r6, #0]
10001150:	2b00      	cmp	r3, #0
10001152:	d0fc      	beq.n	1000114e <sleep_ms+0xc6>
10001154:	f3bf 8f5f 	dmb	sy
10001158:	6803      	ldr	r3, [r0, #0]
1000115a:	f3bf 8f5f 	dmb	sy
1000115e:	4666      	mov	r6, ip
10001160:	601e      	str	r6, [r3, #0]
10001162:	f387 8810 	msr	PRIMASK, r7
10001166:	bf20      	wfe
10001168:	e7e5      	b.n	10001136 <sleep_ms+0xae>
1000116a:	2a00      	cmp	r2, #0
1000116c:	d0b6      	beq.n	100010dc <sleep_ms+0x54>
1000116e:	e7c9      	b.n	10001104 <sleep_ms+0x7c>
10001170:	7fffffff 	.word	0x7fffffff
10001174:	10000a85 	.word	0x10000a85
10001178:	20000fe4 	.word	0x20000fe4
1000117c:	40054000 	.word	0x40054000
10001180:	20001f3c 	.word	0x20001f3c

10001184 <best_effort_wfe_or_timeout>:
10001184:	b5f0      	push	{r4, r5, r6, r7, lr}
10001186:	46ce      	mov	lr, r9
10001188:	4647      	mov	r7, r8
1000118a:	b580      	push	{r7, lr}
1000118c:	0004      	movs	r4, r0
1000118e:	000d      	movs	r5, r1
10001190:	b085      	sub	sp, #20
10001192:	f3ef 8605 	mrs	r6, IPSR
10001196:	4689      	mov	r9, r1
10001198:	2e00      	cmp	r6, #0
1000119a:	d010      	beq.n	100011be <best_effort_wfe_or_timeout+0x3a>
1000119c:	4936      	ldr	r1, [pc, #216]	@ (10001278 <best_effort_wfe_or_timeout+0xf4>)
1000119e:	2000      	movs	r0, #0
100011a0:	6a4b      	ldr	r3, [r1, #36]	@ 0x24
100011a2:	42ab      	cmp	r3, r5
100011a4:	d306      	bcc.n	100011b4 <best_effort_wfe_or_timeout+0x30>
100011a6:	6a8a      	ldr	r2, [r1, #40]	@ 0x28
100011a8:	1b5b      	subs	r3, r3, r5
100011aa:	1e59      	subs	r1, r3, #1
100011ac:	418b      	sbcs	r3, r1
100011ae:	42a2      	cmp	r2, r4
100011b0:	4140      	adcs	r0, r0
100011b2:	4318      	orrs	r0, r3
100011b4:	b005      	add	sp, #20
100011b6:	bcc0      	pop	{r6, r7}
100011b8:	46b9      	mov	r9, r7
100011ba:	46b0      	mov	r8, r6
100011bc:	bdf0      	pop	{r4, r5, r6, r7, pc}
100011be:	4f2f      	ldr	r7, [pc, #188]	@ (1000127c <best_effort_wfe_or_timeout+0xf8>)
100011c0:	68fb      	ldr	r3, [r7, #12]
100011c2:	783a      	ldrb	r2, [r7, #0]
100011c4:	4698      	mov	r8, r3
100011c6:	0018      	movs	r0, r3
100011c8:	9203      	str	r2, [sp, #12]
100011ca:	f000 f865 	bl	10001298 <timer_time_us_64>
100011ce:	9a03      	ldr	r2, [sp, #12]
100011d0:	1d13      	adds	r3, r2, #4
100011d2:	4642      	mov	r2, r8
100011d4:	009b      	lsls	r3, r3, #2
100011d6:	589b      	ldr	r3, [r3, r2]
100011d8:	0022      	movs	r2, r4
100011da:	1a1b      	subs	r3, r3, r0
100011dc:	469c      	mov	ip, r3
100011de:	002b      	movs	r3, r5
100011e0:	1a12      	subs	r2, r2, r0
100011e2:	418b      	sbcs	r3, r1
100011e4:	429e      	cmp	r6, r3
100011e6:	dc10      	bgt.n	1000120a <best_effort_wfe_or_timeout+0x86>
100011e8:	d00d      	beq.n	10001206 <best_effort_wfe_or_timeout+0x82>
100011ea:	bf20      	wfe
100011ec:	4a22      	ldr	r2, [pc, #136]	@ (10001278 <best_effort_wfe_or_timeout+0xf4>)
100011ee:	2000      	movs	r0, #0
100011f0:	6a53      	ldr	r3, [r2, #36]	@ 0x24
100011f2:	454b      	cmp	r3, r9
100011f4:	d3de      	bcc.n	100011b4 <best_effort_wfe_or_timeout+0x30>
100011f6:	6a92      	ldr	r2, [r2, #40]	@ 0x28
100011f8:	1b5b      	subs	r3, r3, r5
100011fa:	1e59      	subs	r1, r3, #1
100011fc:	418b      	sbcs	r3, r1
100011fe:	42a2      	cmp	r2, r4
10001200:	4140      	adcs	r0, r0
10001202:	4318      	orrs	r0, r3
10001204:	e7d6      	b.n	100011b4 <best_effort_wfe_or_timeout+0x30>
10001206:	4594      	cmp	ip, r2
10001208:	d9ef      	bls.n	100011ea <best_effort_wfe_or_timeout+0x66>
1000120a:	f000 f84d 	bl	100012a8 <time_us_64>
1000120e:	0022      	movs	r2, r4
10001210:	002b      	movs	r3, r5
10001212:	1a12      	subs	r2, r2, r0
10001214:	418b      	sbcs	r3, r1
10001216:	2b00      	cmp	r3, #0
10001218:	db1b      	blt.n	10001252 <best_effort_wfe_or_timeout+0xce>
1000121a:	2300      	movs	r3, #0
1000121c:	9301      	str	r3, [sp, #4]
1000121e:	4b18      	ldr	r3, [pc, #96]	@ (10001280 <best_effort_wfe_or_timeout+0xfc>)
10001220:	0022      	movs	r2, r4
10001222:	9300      	str	r3, [sp, #0]
10001224:	0038      	movs	r0, r7
10001226:	002b      	movs	r3, r5
10001228:	f7ff fe94 	bl	10000f54 <alarm_pool_add_alarm_at_force_in_context>
1000122c:	2800      	cmp	r0, #0
1000122e:	dd10      	ble.n	10001252 <best_effort_wfe_or_timeout+0xce>
10001230:	4b11      	ldr	r3, [pc, #68]	@ (10001278 <best_effort_wfe_or_timeout+0xf4>)
10001232:	6a5a      	ldr	r2, [r3, #36]	@ 0x24
10001234:	454a      	cmp	r2, r9
10001236:	d31c      	bcc.n	10001272 <best_effort_wfe_or_timeout+0xee>
10001238:	6a9b      	ldr	r3, [r3, #40]	@ 0x28
1000123a:	42a3      	cmp	r3, r4
1000123c:	d317      	bcc.n	1000126e <best_effort_wfe_or_timeout+0xea>
1000123e:	0001      	movs	r1, r0
10001240:	0038      	movs	r0, r7
10001242:	f7ff fee5 	bl	10001010 <alarm_pool_cancel_alarm>
10001246:	4a0c      	ldr	r2, [pc, #48]	@ (10001278 <best_effort_wfe_or_timeout+0xf4>)
10001248:	2000      	movs	r0, #0
1000124a:	6a53      	ldr	r3, [r2, #36]	@ 0x24
1000124c:	454b      	cmp	r3, r9
1000124e:	d3b1      	bcc.n	100011b4 <best_effort_wfe_or_timeout+0x30>
10001250:	e7d1      	b.n	100011f6 <best_effort_wfe_or_timeout+0x72>
10001252:	4a09      	ldr	r2, [pc, #36]	@ (10001278 <best_effort_wfe_or_timeout+0xf4>)
10001254:	2000      	movs	r0, #0
10001256:	6a53      	ldr	r3, [r2, #36]	@ 0x24
10001258:	454b      	cmp	r3, r9
1000125a:	d3ab      	bcc.n	100011b4 <best_effort_wfe_or_timeout+0x30>
1000125c:	2000      	movs	r0, #0
1000125e:	6a92      	ldr	r2, [r2, #40]	@ 0x28
10001260:	1b5b      	subs	r3, r3, r5
10001262:	42a2      	cmp	r2, r4
10001264:	4140      	adcs	r0, r0
10001266:	1e5a      	subs	r2, r3, #1
10001268:	4193      	sbcs	r3, r2
1000126a:	4318      	orrs	r0, r3
1000126c:	e7a2      	b.n	100011b4 <best_effort_wfe_or_timeout+0x30>
1000126e:	454a      	cmp	r2, r9
10001270:	d1e5      	bne.n	1000123e <best_effort_wfe_or_timeout+0xba>
10001272:	bf20      	wfe
10001274:	e7e3      	b.n	1000123e <best_effort_wfe_or_timeout+0xba>
10001276:	46c0      	nop			@ (mov r8, r8)
10001278:	40054000 	.word	0x40054000
1000127c:	20000fe4 	.word	0x20000fe4
10001280:	10000a85 	.word	0x10000a85

10001284 <timer_hardware_alarm_claim>:
10001284:	b510      	push	{r4, lr}
10001286:	4a02      	ldr	r2, [pc, #8]	@ (10001290 <timer_hardware_alarm_claim+0xc>)
10001288:	4802      	ldr	r0, [pc, #8]	@ (10001294 <timer_hardware_alarm_claim+0x10>)
1000128a:	f7ff f937 	bl	100004fc <hw_claim_or_assert>
1000128e:	bd10      	pop	{r4, pc}
10001290:	10007018 	.word	0x10007018
10001294:	20001a94 	.word	0x20001a94

10001298 <timer_time_us_64>:
10001298:	0003      	movs	r3, r0
1000129a:	6a41      	ldr	r1, [r0, #36]	@ 0x24
1000129c:	000a      	movs	r2, r1
1000129e:	6a98      	ldr	r0, [r3, #40]	@ 0x28
100012a0:	6a59      	ldr	r1, [r3, #36]	@ 0x24
100012a2:	428a      	cmp	r2, r1
100012a4:	d1fa      	bne.n	1000129c <timer_time_us_64+0x4>
100012a6:	4770      	bx	lr

100012a8 <time_us_64>:
100012a8:	4b03      	ldr	r3, [pc, #12]	@ (100012b8 <time_us_64+0x10>)
100012aa:	6a59      	ldr	r1, [r3, #36]	@ 0x24
100012ac:	000a      	movs	r2, r1
100012ae:	6a98      	ldr	r0, [r3, #40]	@ 0x28
100012b0:	6a59      	ldr	r1, [r3, #36]	@ 0x24
100012b2:	4291      	cmp	r1, r2
100012b4:	d1fa      	bne.n	100012ac <time_us_64+0x4>
100012b6:	4770      	bx	lr
100012b8:	40054000 	.word	0x40054000

100012bc <busy_wait_until>:
100012bc:	4a06      	ldr	r2, [pc, #24]	@ (100012d8 <busy_wait_until+0x1c>)
100012be:	6a53      	ldr	r3, [r2, #36]	@ 0x24
100012c0:	4299      	cmp	r1, r3
100012c2:	d8fc      	bhi.n	100012be <busy_wait_until+0x2>
100012c4:	d107      	bne.n	100012d6 <busy_wait_until+0x1a>
100012c6:	4b04      	ldr	r3, [pc, #16]	@ (100012d8 <busy_wait_until+0x1c>)
100012c8:	e002      	b.n	100012d0 <busy_wait_until+0x14>
100012ca:	6a5a      	ldr	r2, [r3, #36]	@ 0x24
100012cc:	4291      	cmp	r1, r2
100012ce:	d102      	bne.n	100012d6 <busy_wait_until+0x1a>
100012d0:	6a9a      	ldr	r2, [r3, #40]	@ 0x28
100012d2:	4290      	cmp	r0, r2
100012d4:	d8f9      	bhi.n	100012ca <busy_wait_until+0xe>
100012d6:	4770      	bx	lr
100012d8:	40054000 	.word	0x40054000

100012dc <clock_configure_int_divider>:
100012dc:	b5f8      	push	{r3, r4, r5, r6, r7, lr}
100012de:	46de      	mov	lr, fp
100012e0:	464e      	mov	r6, r9
100012e2:	4645      	mov	r5, r8
100012e4:	4657      	mov	r7, sl
100012e6:	b5e0      	push	{r5, r6, r7, lr}
100012e8:	0005      	movs	r5, r0
100012ea:	468b      	mov	fp, r1
100012ec:	0018      	movs	r0, r3
100012ee:	990a      	ldr	r1, [sp, #40]	@ 0x28
100012f0:	4691      	mov	r9, r2
100012f2:	f000 fb3b 	bl	1000196c <__wrap___aeabi_uidiv>
100012f6:	9b0a      	ldr	r3, [sp, #40]	@ 0x28
100012f8:	006c      	lsls	r4, r5, #1
100012fa:	021e      	lsls	r6, r3, #8
100012fc:	1964      	adds	r4, r4, r5
100012fe:	4b30      	ldr	r3, [pc, #192]	@ (100013c0 <clock_configure_int_divider+0xe4>)
10001300:	00a4      	lsls	r4, r4, #2
10001302:	18e4      	adds	r4, r4, r3
10001304:	6863      	ldr	r3, [r4, #4]
10001306:	4680      	mov	r8, r0
10001308:	429e      	cmp	r6, r3
1000130a:	d900      	bls.n	1000130e <clock_configure_int_divider+0x32>
1000130c:	6066      	str	r6, [r4, #4]
1000130e:	1f2f      	subs	r7, r5, #4
10001310:	b2fb      	uxtb	r3, r7
10001312:	469a      	mov	sl, r3
10001314:	2b01      	cmp	r3, #1
10001316:	d92f      	bls.n	10001378 <clock_configure_int_divider+0x9c>
10001318:	23c0      	movs	r3, #192	@ 0xc0
1000131a:	2280      	movs	r2, #128	@ 0x80
1000131c:	4f29      	ldr	r7, [pc, #164]	@ (100013c4 <clock_configure_int_divider+0xe8>)
1000131e:	00ad      	lsls	r5, r5, #2
10001320:	019b      	lsls	r3, r3, #6
10001322:	5979      	ldr	r1, [r7, r5]
10001324:	0112      	lsls	r2, r2, #4
10001326:	18e3      	adds	r3, r4, r3
10001328:	601a      	str	r2, [r3, #0]
1000132a:	2900      	cmp	r1, #0
1000132c:	d11b      	bne.n	10001366 <clock_configure_int_divider+0x8a>
1000132e:	464b      	mov	r3, r9
10001330:	6822      	ldr	r2, [r4, #0]
10001332:	015b      	lsls	r3, r3, #5
10001334:	4053      	eors	r3, r2
10001336:	22e0      	movs	r2, #224	@ 0xe0
10001338:	4013      	ands	r3, r2
1000133a:	2280      	movs	r2, #128	@ 0x80
1000133c:	0152      	lsls	r2, r2, #5
1000133e:	18a2      	adds	r2, r4, r2
10001340:	6013      	str	r3, [r2, #0]
10001342:	4653      	mov	r3, sl
10001344:	2b01      	cmp	r3, #1
10001346:	d92f      	bls.n	100013a8 <clock_configure_int_divider+0xcc>
10001348:	2380      	movs	r3, #128	@ 0x80
1000134a:	2280      	movs	r2, #128	@ 0x80
1000134c:	019b      	lsls	r3, r3, #6
1000134e:	18e3      	adds	r3, r4, r3
10001350:	0112      	lsls	r2, r2, #4
10001352:	601a      	str	r2, [r3, #0]
10001354:	4643      	mov	r3, r8
10001356:	6066      	str	r6, [r4, #4]
10001358:	517b      	str	r3, [r7, r5]
1000135a:	bcf0      	pop	{r4, r5, r6, r7}
1000135c:	46bb      	mov	fp, r7
1000135e:	46b2      	mov	sl, r6
10001360:	46a9      	mov	r9, r5
10001362:	46a0      	mov	r8, r4
10001364:	bdf8      	pop	{r3, r4, r5, r6, r7, pc}
10001366:	6978      	ldr	r0, [r7, #20]
10001368:	f000 fb00 	bl	1000196c <__wrap___aeabi_uidiv>
1000136c:	3001      	adds	r0, #1
1000136e:	0043      	lsls	r3, r0, #1
10001370:	181b      	adds	r3, r3, r0
10001372:	3b03      	subs	r3, #3
10001374:	d2fd      	bcs.n	10001372 <clock_configure_int_divider+0x96>
10001376:	e7da      	b.n	1000132e <clock_configure_int_divider+0x52>
10001378:	465b      	mov	r3, fp
1000137a:	2b01      	cmp	r3, #1
1000137c:	d1cc      	bne.n	10001318 <clock_configure_int_divider+0x3c>
1000137e:	23c0      	movs	r3, #192	@ 0xc0
10001380:	2203      	movs	r2, #3
10001382:	019b      	lsls	r3, r3, #6
10001384:	18e3      	adds	r3, r4, r3
10001386:	601a      	str	r2, [r3, #0]
10001388:	3a02      	subs	r2, #2
1000138a:	68a3      	ldr	r3, [r4, #8]
1000138c:	421a      	tst	r2, r3
1000138e:	d0fc      	beq.n	1000138a <clock_configure_int_divider+0xae>
10001390:	464a      	mov	r2, r9
10001392:	6823      	ldr	r3, [r4, #0]
10001394:	0152      	lsls	r2, r2, #5
10001396:	405a      	eors	r2, r3
10001398:	23e0      	movs	r3, #224	@ 0xe0
1000139a:	4013      	ands	r3, r2
1000139c:	2280      	movs	r2, #128	@ 0x80
1000139e:	0152      	lsls	r2, r2, #5
100013a0:	18a2      	adds	r2, r4, r2
100013a2:	4f08      	ldr	r7, [pc, #32]	@ (100013c4 <clock_configure_int_divider+0xe8>)
100013a4:	6013      	str	r3, [r2, #0]
100013a6:	00ad      	lsls	r5, r5, #2
100013a8:	4658      	mov	r0, fp
100013aa:	2303      	movs	r3, #3
100013ac:	6821      	ldr	r1, [r4, #0]
100013ae:	4041      	eors	r1, r0
100013b0:	400b      	ands	r3, r1
100013b2:	6013      	str	r3, [r2, #0]
100013b4:	2201      	movs	r2, #1
100013b6:	4082      	lsls	r2, r0
100013b8:	68a3      	ldr	r3, [r4, #8]
100013ba:	421a      	tst	r2, r3
100013bc:	d0fc      	beq.n	100013b8 <clock_configure_int_divider+0xdc>
100013be:	e7c3      	b.n	10001348 <clock_configure_int_divider+0x6c>
100013c0:	40008000 	.word	0x40008000
100013c4:	20001a98 	.word	0x20001a98

100013c8 <clock_configure_undivided>:
100013c8:	b5f0      	push	{r4, r5, r6, r7, lr}
100013ca:	46d6      	mov	lr, sl
100013cc:	464f      	mov	r7, r9
100013ce:	4646      	mov	r6, r8
100013d0:	0044      	lsls	r4, r0, #1
100013d2:	4698      	mov	r8, r3
100013d4:	1824      	adds	r4, r4, r0
100013d6:	4b32      	ldr	r3, [pc, #200]	@ (100014a0 <clock_configure_undivided+0xd8>)
100013d8:	00a4      	lsls	r4, r4, #2
100013da:	18e4      	adds	r4, r4, r3
100013dc:	6863      	ldr	r3, [r4, #4]
100013de:	468a      	mov	sl, r1
100013e0:	4691      	mov	r9, r2
100013e2:	b5c0      	push	{r6, r7, lr}
100013e4:	2bff      	cmp	r3, #255	@ 0xff
100013e6:	d802      	bhi.n	100013ee <clock_configure_undivided+0x26>
100013e8:	2380      	movs	r3, #128	@ 0x80
100013ea:	005b      	lsls	r3, r3, #1
100013ec:	6063      	str	r3, [r4, #4]
100013ee:	1f06      	subs	r6, r0, #4
100013f0:	b2f6      	uxtb	r6, r6
100013f2:	2e01      	cmp	r6, #1
100013f4:	d92f      	bls.n	10001456 <clock_configure_undivided+0x8e>
100013f6:	23c0      	movs	r3, #192	@ 0xc0
100013f8:	2280      	movs	r2, #128	@ 0x80
100013fa:	4f2a      	ldr	r7, [pc, #168]	@ (100014a4 <clock_configure_undivided+0xdc>)
100013fc:	0085      	lsls	r5, r0, #2
100013fe:	019b      	lsls	r3, r3, #6
10001400:	5979      	ldr	r1, [r7, r5]
10001402:	0112      	lsls	r2, r2, #4
10001404:	18e3      	adds	r3, r4, r3
10001406:	601a      	str	r2, [r3, #0]
10001408:	2900      	cmp	r1, #0
1000140a:	d11b      	bne.n	10001444 <clock_configure_undivided+0x7c>
1000140c:	464b      	mov	r3, r9
1000140e:	6822      	ldr	r2, [r4, #0]
10001410:	015b      	lsls	r3, r3, #5
10001412:	4053      	eors	r3, r2
10001414:	22e0      	movs	r2, #224	@ 0xe0
10001416:	4013      	ands	r3, r2
10001418:	2280      	movs	r2, #128	@ 0x80
1000141a:	0152      	lsls	r2, r2, #5
1000141c:	18a2      	adds	r2, r4, r2
1000141e:	6013      	str	r3, [r2, #0]
10001420:	2e01      	cmp	r6, #1
10001422:	d930      	bls.n	10001486 <clock_configure_undivided+0xbe>
10001424:	2380      	movs	r3, #128	@ 0x80
10001426:	2280      	movs	r2, #128	@ 0x80
10001428:	019b      	lsls	r3, r3, #6
1000142a:	18e3      	adds	r3, r4, r3
1000142c:	0112      	lsls	r2, r2, #4
1000142e:	601a      	str	r2, [r3, #0]
10001430:	2380      	movs	r3, #128	@ 0x80
10001432:	005b      	lsls	r3, r3, #1
10001434:	6063      	str	r3, [r4, #4]
10001436:	4643      	mov	r3, r8
10001438:	517b      	str	r3, [r7, r5]
1000143a:	bce0      	pop	{r5, r6, r7}
1000143c:	46ba      	mov	sl, r7
1000143e:	46b1      	mov	r9, r6
10001440:	46a8      	mov	r8, r5
10001442:	bdf0      	pop	{r4, r5, r6, r7, pc}
10001444:	6978      	ldr	r0, [r7, #20]
10001446:	f000 fa91 	bl	1000196c <__wrap___aeabi_uidiv>
1000144a:	3001      	adds	r0, #1
1000144c:	0043      	lsls	r3, r0, #1
1000144e:	181b      	adds	r3, r3, r0
10001450:	3b03      	subs	r3, #3
10001452:	d2fd      	bcs.n	10001450 <clock_configure_undivided+0x88>
10001454:	e7da      	b.n	1000140c <clock_configure_undivided+0x44>
10001456:	4653      	mov	r3, sl
10001458:	2b01      	cmp	r3, #1
1000145a:	d1cc      	bne.n	100013f6 <clock_configure_undivided+0x2e>
1000145c:	23c0      	movs	r3, #192	@ 0xc0
1000145e:	2203      	movs	r2, #3
10001460:	019b      	lsls	r3, r3, #6
10001462:	18e3      	adds	r3, r4, r3
10001464:	601a      	str	r2, [r3, #0]
10001466:	3a02      	subs	r2, #2
10001468:	68a3      	ldr	r3, [r4, #8]
1000146a:	421a      	tst	r2, r3
1000146c:	d0fc      	beq.n	10001468 <clock_configure_undivided+0xa0>
1000146e:	464a      	mov	r2, r9
10001470:	6823      	ldr	r3, [r4, #0]
10001472:	0152      	lsls	r2, r2, #5
10001474:	405a      	eors	r2, r3
10001476:	23e0      	movs	r3, #224	@ 0xe0
10001478:	4013      	ands	r3, r2
1000147a:	2280      	movs	r2, #128	@ 0x80
1000147c:	0152      	lsls	r2, r2, #5
1000147e:	18a2      	adds	r2, r4, r2
10001480:	4f08      	ldr	r7, [pc, #32]	@ (100014a4 <clock_configure_undivided+0xdc>)
10001482:	6013      	str	r3, [r2, #0]
10001484:	0085      	lsls	r5, r0, #2
10001486:	4650      	mov	r0, sl
10001488:	2303      	movs	r3, #3
1000148a:	6821      	ldr	r1, [r4, #0]
1000148c:	4041      	eors	r1, r0
1000148e:	400b      	ands	r3, r1
10001490:	6013      	str	r3, [r2, #0]
10001492:	2201      	movs	r2, #1
10001494:	4082      	lsls	r2, r0
10001496:	68a3      	ldr	r3, [r4, #8]
10001498:	421a      	tst	r2, r3
1000149a:	d0fc      	beq.n	10001496 <clock_configure_undivided+0xce>
1000149c:	e7c2      	b.n	10001424 <clock_configure_undivided+0x5c>
1000149e:	46c0      	nop			@ (mov r8, r8)
100014a0:	40008000 	.word	0x40008000
100014a4:	20001a98 	.word	0x20001a98

100014a8 <clock_get_hz>:
100014a8:	4b01      	ldr	r3, [pc, #4]	@ (100014b0 <clock_get_hz+0x8>)
100014aa:	0080      	lsls	r0, r0, #2
100014ac:	58c0      	ldr	r0, [r0, r3]
100014ae:	4770      	bx	lr
100014b0:	20001a98 	.word	0x20001a98

100014b4 <pll_init>:
100014b4:	b5f0      	push	{r4, r5, r6, r7, lr}
100014b6:	46c6      	mov	lr, r8
100014b8:	0004      	movs	r4, r0
100014ba:	b500      	push	{lr}
100014bc:	4823      	ldr	r0, [pc, #140]	@ (1000154c <pll_init+0x98>)
100014be:	0016      	movs	r6, r2
100014c0:	4698      	mov	r8, r3
100014c2:	000d      	movs	r5, r1
100014c4:	f000 fa52 	bl	1000196c <__wrap___aeabi_uidiv>
100014c8:	0001      	movs	r1, r0
100014ca:	0030      	movs	r0, r6
100014cc:	f000 fa4e 	bl	1000196c <__wrap___aeabi_uidiv>
100014d0:	4643      	mov	r3, r8
100014d2:	9a06      	ldr	r2, [sp, #24]
100014d4:	041b      	lsls	r3, r3, #16
100014d6:	0312      	lsls	r2, r2, #12
100014d8:	4313      	orrs	r3, r2
100014da:	469c      	mov	ip, r3
100014dc:	6823      	ldr	r3, [r4, #0]
100014de:	0006      	movs	r6, r0
100014e0:	2b00      	cmp	r3, #0
100014e2:	db22      	blt.n	1000152a <pll_init+0x76>
100014e4:	4b1a      	ldr	r3, [pc, #104]	@ (10001550 <pll_init+0x9c>)
100014e6:	481b      	ldr	r0, [pc, #108]	@ (10001554 <pll_init+0xa0>)
100014e8:	18e2      	adds	r2, r4, r3
100014ea:	1e53      	subs	r3, r2, #1
100014ec:	419a      	sbcs	r2, r3
100014ee:	2380      	movs	r3, #128	@ 0x80
100014f0:	4252      	negs	r2, r2
100014f2:	0b12      	lsrs	r2, r2, #12
100014f4:	019b      	lsls	r3, r3, #6
100014f6:	0312      	lsls	r2, r2, #12
100014f8:	18d2      	adds	r2, r2, r3
100014fa:	4b17      	ldr	r3, [pc, #92]	@ (10001558 <pll_init+0xa4>)
100014fc:	601a      	str	r2, [r3, #0]
100014fe:	4b17      	ldr	r3, [pc, #92]	@ (1000155c <pll_init+0xa8>)
10001500:	601a      	str	r2, [r3, #0]
10001502:	0013      	movs	r3, r2
10001504:	6801      	ldr	r1, [r0, #0]
10001506:	438b      	bics	r3, r1
10001508:	d1fb      	bne.n	10001502 <pll_init+0x4e>
1000150a:	2221      	movs	r2, #33	@ 0x21
1000150c:	4b14      	ldr	r3, [pc, #80]	@ (10001560 <pll_init+0xac>)
1000150e:	6025      	str	r5, [r4, #0]
10001510:	18e3      	adds	r3, r4, r3
10001512:	60a6      	str	r6, [r4, #8]
10001514:	601a      	str	r2, [r3, #0]
10001516:	6822      	ldr	r2, [r4, #0]
10001518:	2a00      	cmp	r2, #0
1000151a:	dafc      	bge.n	10001516 <pll_init+0x62>
1000151c:	4662      	mov	r2, ip
1000151e:	60e2      	str	r2, [r4, #12]
10001520:	2208      	movs	r2, #8
10001522:	601a      	str	r2, [r3, #0]
10001524:	bc80      	pop	{r7}
10001526:	46b8      	mov	r8, r7
10001528:	bdf0      	pop	{r4, r5, r6, r7, pc}
1000152a:	233f      	movs	r3, #63	@ 0x3f
1000152c:	6822      	ldr	r2, [r4, #0]
1000152e:	4013      	ands	r3, r2
10001530:	42ab      	cmp	r3, r5
10001532:	d1d7      	bne.n	100014e4 <pll_init+0x30>
10001534:	68a3      	ldr	r3, [r4, #8]
10001536:	051b      	lsls	r3, r3, #20
10001538:	0d1b      	lsrs	r3, r3, #20
1000153a:	4283      	cmp	r3, r0
1000153c:	d1d2      	bne.n	100014e4 <pll_init+0x30>
1000153e:	22ee      	movs	r2, #238	@ 0xee
10001540:	68e3      	ldr	r3, [r4, #12]
10001542:	02d2      	lsls	r2, r2, #11
10001544:	4013      	ands	r3, r2
10001546:	4563      	cmp	r3, ip
10001548:	d1cc      	bne.n	100014e4 <pll_init+0x30>
1000154a:	e7eb      	b.n	10001524 <pll_init+0x70>
1000154c:	00b71b00 	.word	0x00b71b00
10001550:	bffd4000 	.word	0xbffd4000
10001554:	4000c008 	.word	0x4000c008
10001558:	4000e000 	.word	0x4000e000
1000155c:	4000f000 	.word	0x4000f000
10001560:	00003004 	.word	0x00003004

10001564 <watchdog_reboot>:
10001564:	b510      	push	{r4, lr}
10001566:	2480      	movs	r4, #128	@ 0x80
10001568:	4b1c      	ldr	r3, [pc, #112]	@ (100015dc <watchdog_reboot+0x78>)
1000156a:	05e4      	lsls	r4, r4, #23
1000156c:	601c      	str	r4, [r3, #0]
1000156e:	2800      	cmp	r0, #0
10001570:	d01a      	beq.n	100015a8 <watchdog_reboot+0x44>
10001572:	2301      	movs	r3, #1
10001574:	4c1a      	ldr	r4, [pc, #104]	@ (100015e0 <watchdog_reboot+0x7c>)
10001576:	4318      	orrs	r0, r3
10001578:	4b1a      	ldr	r3, [pc, #104]	@ (100015e4 <watchdog_reboot+0x80>)
1000157a:	61dc      	str	r4, [r3, #28]
1000157c:	4c1a      	ldr	r4, [pc, #104]	@ (100015e8 <watchdog_reboot+0x84>)
1000157e:	4044      	eors	r4, r0
10001580:	621c      	str	r4, [r3, #32]
10001582:	6259      	str	r1, [r3, #36]	@ 0x24
10001584:	6298      	str	r0, [r3, #40]	@ 0x28
10001586:	2180      	movs	r1, #128	@ 0x80
10001588:	4b14      	ldr	r3, [pc, #80]	@ (100015dc <watchdog_reboot+0x78>)
1000158a:	05c9      	lsls	r1, r1, #23
1000158c:	6019      	str	r1, [r3, #0]
1000158e:	4817      	ldr	r0, [pc, #92]	@ (100015ec <watchdog_reboot+0x88>)
10001590:	4917      	ldr	r1, [pc, #92]	@ (100015f0 <watchdog_reboot+0x8c>)
10001592:	6008      	str	r0, [r1, #0]
10001594:	21e0      	movs	r1, #224	@ 0xe0
10001596:	04c9      	lsls	r1, r1, #19
10001598:	6019      	str	r1, [r3, #0]
1000159a:	2a00      	cmp	r2, #0
1000159c:	d107      	bne.n	100015ae <watchdog_reboot+0x4a>
1000159e:	2280      	movs	r2, #128	@ 0x80
100015a0:	4b14      	ldr	r3, [pc, #80]	@ (100015f4 <watchdog_reboot+0x90>)
100015a2:	0612      	lsls	r2, r2, #24
100015a4:	601a      	str	r2, [r3, #0]
100015a6:	bd10      	pop	{r4, pc}
100015a8:	4b0e      	ldr	r3, [pc, #56]	@ (100015e4 <watchdog_reboot+0x80>)
100015aa:	61d8      	str	r0, [r3, #28]
100015ac:	e7eb      	b.n	10001586 <watchdog_reboot+0x22>
100015ae:	0153      	lsls	r3, r2, #5
100015b0:	1a9b      	subs	r3, r3, r2
100015b2:	009b      	lsls	r3, r3, #2
100015b4:	189a      	adds	r2, r3, r2
100015b6:	2380      	movs	r3, #128	@ 0x80
100015b8:	0112      	lsls	r2, r2, #4
100015ba:	045b      	lsls	r3, r3, #17
100015bc:	429a      	cmp	r2, r3
100015be:	d209      	bcs.n	100015d4 <watchdog_reboot+0x70>
100015c0:	0013      	movs	r3, r2
100015c2:	490d      	ldr	r1, [pc, #52]	@ (100015f8 <watchdog_reboot+0x94>)
100015c4:	600b      	str	r3, [r1, #0]
100015c6:	4b07      	ldr	r3, [pc, #28]	@ (100015e4 <watchdog_reboot+0x80>)
100015c8:	605a      	str	r2, [r3, #4]
100015ca:	2280      	movs	r2, #128	@ 0x80
100015cc:	4b09      	ldr	r3, [pc, #36]	@ (100015f4 <watchdog_reboot+0x90>)
100015ce:	05d2      	lsls	r2, r2, #23
100015d0:	601a      	str	r2, [r3, #0]
100015d2:	e7e8      	b.n	100015a6 <watchdog_reboot+0x42>
100015d4:	4b09      	ldr	r3, [pc, #36]	@ (100015fc <watchdog_reboot+0x98>)
100015d6:	001a      	movs	r2, r3
100015d8:	e7f3      	b.n	100015c2 <watchdog_reboot+0x5e>
100015da:	46c0      	nop			@ (mov r8, r8)
100015dc:	4005b000 	.word	0x4005b000
100015e0:	b007c0d3 	.word	0xb007c0d3
100015e4:	40058000 	.word	0x40058000
100015e8:	4ff83f2d 	.word	0x4ff83f2d
100015ec:	0001fffc 	.word	0x0001fffc
100015f0:	40012008 	.word	0x40012008
100015f4:	4005a000 	.word	0x4005a000
100015f8:	20001ef8 	.word	0x20001ef8
100015fc:	00ffffff 	.word	0x00ffffff

10001600 <tick_start>:
10001600:	2380      	movs	r3, #128	@ 0x80
10001602:	4a02      	ldr	r2, [pc, #8]	@ (1000160c <tick_start+0xc>)
10001604:	009b      	lsls	r3, r3, #2
10001606:	430b      	orrs	r3, r1
10001608:	62d3      	str	r3, [r2, #44]	@ 0x2c
1000160a:	4770      	bx	lr
1000160c:	40058000 	.word	0x40058000

10001610 <rom_func_lookup>:
10001610:	2300      	movs	r3, #0
10001612:	b510      	push	{r4, lr}
10001614:	0001      	movs	r1, r0
10001616:	8a98      	ldrh	r0, [r3, #20]
10001618:	8b1b      	ldrh	r3, [r3, #24]
1000161a:	4798      	blx	r3
1000161c:	bd10      	pop	{r4, pc}
1000161e:	46c0      	nop			@ (mov r8, r8)

10001620 <rom_data_lookup>:
10001620:	2316      	movs	r3, #22
10001622:	b510      	push	{r4, lr}
10001624:	0001      	movs	r1, r0
10001626:	8818      	ldrh	r0, [r3, #0]
10001628:	885b      	ldrh	r3, [r3, #2]
1000162a:	4798      	blx	r3
1000162c:	bd10      	pop	{r4, pc}
1000162e:	46c0      	nop			@ (mov r8, r8)

10001630 <rom_funcs_lookup>:
10001630:	b5f8      	push	{r3, r4, r5, r6, r7, lr}
10001632:	4647      	mov	r7, r8
10001634:	46ce      	mov	lr, r9
10001636:	b580      	push	{r7, lr}
10001638:	1e0f      	subs	r7, r1, #0
1000163a:	d018      	beq.n	1000166e <rom_funcs_lookup+0x3e>
1000163c:	2314      	movs	r3, #20
1000163e:	4699      	mov	r9, r3
10001640:	3304      	adds	r3, #4
10001642:	0004      	movs	r4, r0
10001644:	2500      	movs	r5, #0
10001646:	2601      	movs	r6, #1
10001648:	4698      	mov	r8, r3
1000164a:	464b      	mov	r3, r9
1000164c:	8818      	ldrh	r0, [r3, #0]
1000164e:	4643      	mov	r3, r8
10001650:	6821      	ldr	r1, [r4, #0]
10001652:	881b      	ldrh	r3, [r3, #0]
10001654:	4798      	blx	r3
10001656:	c401      	stmia	r4!, {r0}
10001658:	1e43      	subs	r3, r0, #1
1000165a:	4198      	sbcs	r0, r3
1000165c:	3501      	adds	r5, #1
1000165e:	4006      	ands	r6, r0
10001660:	42af      	cmp	r7, r5
10001662:	d1f2      	bne.n	1000164a <rom_funcs_lookup+0x1a>
10001664:	0030      	movs	r0, r6
10001666:	bcc0      	pop	{r6, r7}
10001668:	46b9      	mov	r9, r7
1000166a:	46b0      	mov	r8, r6
1000166c:	bdf8      	pop	{r3, r4, r5, r6, r7, pc}
1000166e:	2601      	movs	r6, #1
10001670:	e7f8      	b.n	10001664 <rom_funcs_lookup+0x34>
10001672:	46c0      	nop			@ (mov r8, r8)

10001674 <rom_reset_usb_boot_extra>:
10001674:	2300      	movs	r3, #0
10001676:	b570      	push	{r4, r5, r6, lr}
10001678:	0004      	movs	r4, r0
1000167a:	000d      	movs	r5, r1
1000167c:	8a98      	ldrh	r0, [r3, #20]
1000167e:	4905      	ldr	r1, [pc, #20]	@ (10001694 <rom_reset_usb_boot_extra+0x20>)
10001680:	8b1b      	ldrh	r3, [r3, #24]
10001682:	4798      	blx	r3
10001684:	0003      	movs	r3, r0
10001686:	2000      	movs	r0, #0
10001688:	2c00      	cmp	r4, #0
1000168a:	db01      	blt.n	10001690 <rom_reset_usb_boot_extra+0x1c>
1000168c:	3001      	adds	r0, #1
1000168e:	40a0      	lsls	r0, r4
10001690:	0029      	movs	r1, r5
10001692:	4798      	blx	r3
10001694:	00004255 	.word	0x00004255

10001698 <xosc_init>:
10001698:	23aa      	movs	r3, #170	@ 0xaa
1000169a:	4a06      	ldr	r2, [pc, #24]	@ (100016b4 <xosc_init+0x1c>)
1000169c:	011b      	lsls	r3, r3, #4
1000169e:	6013      	str	r3, [r2, #0]
100016a0:	238d      	movs	r3, #141	@ 0x8d
100016a2:	005b      	lsls	r3, r3, #1
100016a4:	60d3      	str	r3, [r2, #12]
100016a6:	4904      	ldr	r1, [pc, #16]	@ (100016b8 <xosc_init+0x20>)
100016a8:	4b04      	ldr	r3, [pc, #16]	@ (100016bc <xosc_init+0x24>)
100016aa:	6019      	str	r1, [r3, #0]
100016ac:	6853      	ldr	r3, [r2, #4]
100016ae:	2b00      	cmp	r3, #0
100016b0:	dafc      	bge.n	100016ac <xosc_init+0x14>
100016b2:	4770      	bx	lr
100016b4:	40024000 	.word	0x40024000
100016b8:	00fab000 	.word	0x00fab000
100016bc:	40026000 	.word	0x40026000

100016c0 <first_per_core_initializer>:
100016c0:	4770      	bx	lr
100016c2:	46c0      	nop			@ (mov r8, r8)

100016c4 <hard_assertion_failure>:
100016c4:	b510      	push	{r4, lr}
100016c6:	4801      	ldr	r0, [pc, #4]	@ (100016cc <hard_assertion_failure+0x8>)
100016c8:	f7fe ff00 	bl	100004cc <panic>
100016cc:	1000703c 	.word	0x1000703c

100016d0 <runtime_run_initializers>:
100016d0:	b570      	push	{r4, r5, r6, lr}
100016d2:	4d07      	ldr	r5, [pc, #28]	@ (100016f0 <runtime_run_initializers+0x20>)
100016d4:	4e07      	ldr	r6, [pc, #28]	@ (100016f4 <runtime_run_initializers+0x24>)
100016d6:	42b5      	cmp	r5, r6
100016d8:	d209      	bcs.n	100016ee <runtime_run_initializers+0x1e>
100016da:	2400      	movs	r4, #0
100016dc:	3e01      	subs	r6, #1
100016de:	1b76      	subs	r6, r6, r5
100016e0:	08b6      	lsrs	r6, r6, #2
100016e2:	3601      	adds	r6, #1
100016e4:	cd08      	ldmia	r5!, {r3}
100016e6:	3401      	adds	r4, #1
100016e8:	4798      	blx	r3
100016ea:	42b4      	cmp	r4, r6
100016ec:	d1fa      	bne.n	100016e4 <runtime_run_initializers+0x14>
100016ee:	bd70      	pop	{r4, r5, r6, pc}
100016f0:	10006d98 	.word	0x10006d98
100016f4:	10006dd4 	.word	0x10006dd4

100016f8 <runtime_init_early_resets>:
100016f8:	4b05      	ldr	r3, [pc, #20]	@ (10001710 <runtime_init_early_resets+0x18>)
100016fa:	4a06      	ldr	r2, [pc, #24]	@ (10001714 <runtime_init_early_resets+0x1c>)
100016fc:	4906      	ldr	r1, [pc, #24]	@ (10001718 <runtime_init_early_resets+0x20>)
100016fe:	601a      	str	r2, [r3, #0]
10001700:	4a06      	ldr	r2, [pc, #24]	@ (1000171c <runtime_init_early_resets+0x24>)
10001702:	4b07      	ldr	r3, [pc, #28]	@ (10001720 <runtime_init_early_resets+0x28>)
10001704:	601a      	str	r2, [r3, #0]
10001706:	0010      	movs	r0, r2
10001708:	680b      	ldr	r3, [r1, #0]
1000170a:	4398      	bics	r0, r3
1000170c:	d1fb      	bne.n	10001706 <runtime_init_early_resets+0xe>
1000170e:	4770      	bx	lr
10001710:	4000e000 	.word	0x4000e000
10001714:	fefbcdbf 	.word	0xfefbcdbf
10001718:	4000c008 	.word	0x4000c008
1000171c:	003c7ffe 	.word	0x003c7ffe
10001720:	4000f000 	.word	0x4000f000

10001724 <runtime_init_usb_power_down>:
10001724:	4b04      	ldr	r3, [pc, #16]	@ (10001738 <runtime_init_usb_power_down+0x14>)
10001726:	6cdb      	ldr	r3, [r3, #76]	@ 0x4c
10001728:	2b00      	cmp	r3, #0
1000172a:	d103      	bne.n	10001734 <runtime_init_usb_power_down+0x10>
1000172c:	2280      	movs	r2, #128	@ 0x80
1000172e:	4b03      	ldr	r3, [pc, #12]	@ (1000173c <runtime_init_usb_power_down+0x18>)
10001730:	02d2      	lsls	r2, r2, #11
10001732:	601a      	str	r2, [r3, #0]
10001734:	4770      	bx	lr
10001736:	46c0      	nop			@ (mov r8, r8)
10001738:	50110000 	.word	0x50110000
1000173c:	5011204c 	.word	0x5011204c

10001740 <runtime_init_post_clock_resets>:
10001740:	4a04      	ldr	r2, [pc, #16]	@ (10001754 <runtime_init_post_clock_resets+0x14>)
10001742:	4b05      	ldr	r3, [pc, #20]	@ (10001758 <runtime_init_post_clock_resets+0x18>)
10001744:	601a      	str	r2, [r3, #0]
10001746:	4a05      	ldr	r2, [pc, #20]	@ (1000175c <runtime_init_post_clock_resets+0x1c>)
10001748:	6813      	ldr	r3, [r2, #0]
1000174a:	01db      	lsls	r3, r3, #7
1000174c:	3380      	adds	r3, #128	@ 0x80
1000174e:	d1fb      	bne.n	10001748 <runtime_init_post_clock_resets+0x8>
10001750:	4770      	bx	lr
10001752:	46c0      	nop			@ (mov r8, r8)
10001754:	01ffffff 	.word	0x01ffffff
10001758:	4000f000 	.word	0x4000f000
1000175c:	4000c008 	.word	0x4000c008

10001760 <runtime_init_rp2040_gpio_ie_disable>:
10001760:	2240      	movs	r2, #64	@ 0x40
10001762:	4b03      	ldr	r3, [pc, #12]	@ (10001770 <runtime_init_rp2040_gpio_ie_disable+0x10>)
10001764:	679a      	str	r2, [r3, #120]	@ 0x78
10001766:	675a      	str	r2, [r3, #116]	@ 0x74
10001768:	671a      	str	r2, [r3, #112]	@ 0x70
1000176a:	66da      	str	r2, [r3, #108]	@ 0x6c
1000176c:	4770      	bx	lr
1000176e:	46c0      	nop			@ (mov r8, r8)
10001770:	4001f000 	.word	0x4001f000

10001774 <runtime_init_spin_locks_reset>:
10001774:	b510      	push	{r4, lr}
10001776:	f7fe ff49 	bl	1000060c <spin_locks_reset>
1000177a:	bd10      	pop	{r4, pc}

1000177c <runtime_init_install_ram_vector_table>:
1000177c:	b570      	push	{r4, r5, r6, lr}
1000177e:	4928      	ldr	r1, [pc, #160]	@ (10001820 <runtime_init_install_ram_vector_table+0xa4>)
10001780:	4d28      	ldr	r5, [pc, #160]	@ (10001824 <runtime_init_install_ram_vector_table+0xa8>)
10001782:	4e29      	ldr	r6, [pc, #164]	@ (10001828 <runtime_init_install_ram_vector_table+0xac>)
10001784:	1a6d      	subs	r5, r5, r1
10001786:	10ac      	asrs	r4, r5, #2
10001788:	0022      	movs	r2, r4
1000178a:	2c30      	cmp	r4, #48	@ 0x30
1000178c:	d900      	bls.n	10001790 <runtime_init_install_ram_vector_table+0x14>
1000178e:	2230      	movs	r2, #48	@ 0x30
10001790:	0030      	movs	r0, r6
10001792:	0092      	lsls	r2, r2, #2
10001794:	f000 ff80 	bl	10002698 <__wrap___aeabi_memcpy>
10001798:	2dbc      	cmp	r5, #188	@ 0xbc
1000179a:	d83d      	bhi.n	10001818 <runtime_init_install_ram_vector_table+0x9c>
1000179c:	0023      	movs	r3, r4
1000179e:	3b2a      	subs	r3, #42	@ 0x2a
100017a0:	4a22      	ldr	r2, [pc, #136]	@ (1000182c <runtime_init_install_ram_vector_table+0xb0>)
100017a2:	2b05      	cmp	r3, #5
100017a4:	d91d      	bls.n	100017e2 <runtime_init_install_ram_vector_table+0x66>
100017a6:	2030      	movs	r0, #48	@ 0x30
100017a8:	1975      	adds	r5, r6, r5
100017aa:	076d      	lsls	r5, r5, #29
100017ac:	46a4      	mov	ip, r4
100017ae:	1b00      	subs	r0, r0, r4
100017b0:	0feb      	lsrs	r3, r5, #31
100017b2:	2d00      	cmp	r5, #0
100017b4:	da03      	bge.n	100017be <runtime_init_install_ram_vector_table+0x42>
100017b6:	1c61      	adds	r1, r4, #1
100017b8:	468c      	mov	ip, r1
100017ba:	00a1      	lsls	r1, r4, #2
100017bc:	5072      	str	r2, [r6, r1]
100017be:	1ac0      	subs	r0, r0, r3
100017c0:	18e3      	adds	r3, r4, r3
100017c2:	009b      	lsls	r3, r3, #2
100017c4:	0841      	lsrs	r1, r0, #1
100017c6:	18f3      	adds	r3, r6, r3
100017c8:	00c9      	lsls	r1, r1, #3
100017ca:	18c9      	adds	r1, r1, r3
100017cc:	601a      	str	r2, [r3, #0]
100017ce:	605a      	str	r2, [r3, #4]
100017d0:	3308      	adds	r3, #8
100017d2:	4299      	cmp	r1, r3
100017d4:	d1fa      	bne.n	100017cc <runtime_init_install_ram_vector_table+0x50>
100017d6:	2301      	movs	r3, #1
100017d8:	4203      	tst	r3, r0
100017da:	d01d      	beq.n	10001818 <runtime_init_install_ram_vector_table+0x9c>
100017dc:	4398      	bics	r0, r3
100017de:	4460      	add	r0, ip
100017e0:	0004      	movs	r4, r0
100017e2:	00a3      	lsls	r3, r4, #2
100017e4:	50f2      	str	r2, [r6, r3]
100017e6:	1c63      	adds	r3, r4, #1
100017e8:	2c2f      	cmp	r4, #47	@ 0x2f
100017ea:	d015      	beq.n	10001818 <runtime_init_install_ram_vector_table+0x9c>
100017ec:	009b      	lsls	r3, r3, #2
100017ee:	50f2      	str	r2, [r6, r3]
100017f0:	1ca3      	adds	r3, r4, #2
100017f2:	2c2e      	cmp	r4, #46	@ 0x2e
100017f4:	d010      	beq.n	10001818 <runtime_init_install_ram_vector_table+0x9c>
100017f6:	009b      	lsls	r3, r3, #2
100017f8:	50f2      	str	r2, [r6, r3]
100017fa:	1ce3      	adds	r3, r4, #3
100017fc:	2c2d      	cmp	r4, #45	@ 0x2d
100017fe:	d00b      	beq.n	10001818 <runtime_init_install_ram_vector_table+0x9c>
10001800:	009b      	lsls	r3, r3, #2
10001802:	50f2      	str	r2, [r6, r3]
10001804:	1d23      	adds	r3, r4, #4
10001806:	2c2c      	cmp	r4, #44	@ 0x2c
10001808:	d006      	beq.n	10001818 <runtime_init_install_ram_vector_table+0x9c>
1000180a:	009b      	lsls	r3, r3, #2
1000180c:	50f2      	str	r2, [r6, r3]
1000180e:	1d63      	adds	r3, r4, #5
10001810:	2c2b      	cmp	r4, #43	@ 0x2b
10001812:	d001      	beq.n	10001818 <runtime_init_install_ram_vector_table+0x9c>
10001814:	009b      	lsls	r3, r3, #2
10001816:	50f2      	str	r2, [r6, r3]
10001818:	4b05      	ldr	r3, [pc, #20]	@ (10001830 <runtime_init_install_ram_vector_table+0xb4>)
1000181a:	609e      	str	r6, [r3, #8]
1000181c:	bd70      	pop	{r4, r5, r6, pc}
1000181e:	46c0      	nop			@ (mov r8, r8)
10001820:	10000100 	.word	0x10000100
10001824:	100001c0 	.word	0x100001c0
10001828:	20000000 	.word	0x20000000
1000182c:	100001c1 	.word	0x100001c1
10001830:	e000ed00 	.word	0xe000ed00

10001834 <runtime_init_clocks>:
10001834:	2300      	movs	r3, #0
10001836:	b510      	push	{r4, lr}
10001838:	4c29      	ldr	r4, [pc, #164]	@ (100018e0 <runtime_init_clocks+0xac>)
1000183a:	b082      	sub	sp, #8
1000183c:	67a3      	str	r3, [r4, #120]	@ 0x78
1000183e:	f7ff ff2b 	bl	10001698 <xosc_init>
10001842:	2201      	movs	r2, #1
10001844:	4b27      	ldr	r3, [pc, #156]	@ (100018e4 <runtime_init_clocks+0xb0>)
10001846:	601a      	str	r2, [r3, #0]
10001848:	6c63      	ldr	r3, [r4, #68]	@ 0x44
1000184a:	2b01      	cmp	r3, #1
1000184c:	d1fc      	bne.n	10001848 <runtime_init_clocks+0x14>
1000184e:	2203      	movs	r2, #3
10001850:	4b25      	ldr	r3, [pc, #148]	@ (100018e8 <runtime_init_clocks+0xb4>)
10001852:	601a      	str	r2, [r3, #0]
10001854:	4a22      	ldr	r2, [pc, #136]	@ (100018e0 <runtime_init_clocks+0xac>)
10001856:	6b93      	ldr	r3, [r2, #56]	@ 0x38
10001858:	2b01      	cmp	r3, #1
1000185a:	d1fc      	bne.n	10001856 <runtime_init_clocks+0x22>
1000185c:	3301      	adds	r3, #1
1000185e:	9300      	str	r3, [sp, #0]
10001860:	2101      	movs	r1, #1
10001862:	4a22      	ldr	r2, [pc, #136]	@ (100018ec <runtime_init_clocks+0xb8>)
10001864:	4822      	ldr	r0, [pc, #136]	@ (100018f0 <runtime_init_clocks+0xbc>)
10001866:	3304      	adds	r3, #4
10001868:	f7ff fe24 	bl	100014b4 <pll_init>
1000186c:	2305      	movs	r3, #5
1000186e:	2101      	movs	r1, #1
10001870:	9300      	str	r3, [sp, #0]
10001872:	4a20      	ldr	r2, [pc, #128]	@ (100018f4 <runtime_init_clocks+0xc0>)
10001874:	4820      	ldr	r0, [pc, #128]	@ (100018f8 <runtime_init_clocks+0xc4>)
10001876:	f7ff fe1d 	bl	100014b4 <pll_init>
1000187a:	2200      	movs	r2, #0
1000187c:	2102      	movs	r1, #2
1000187e:	2004      	movs	r0, #4
10001880:	4b1e      	ldr	r3, [pc, #120]	@ (100018fc <runtime_init_clocks+0xc8>)
10001882:	f7ff fda1 	bl	100013c8 <clock_configure_undivided>
10001886:	2200      	movs	r2, #0
10001888:	2101      	movs	r1, #1
1000188a:	2005      	movs	r0, #5
1000188c:	4b1c      	ldr	r3, [pc, #112]	@ (10001900 <runtime_init_clocks+0xcc>)
1000188e:	f7ff fd9b 	bl	100013c8 <clock_configure_undivided>
10001892:	2200      	movs	r2, #0
10001894:	2100      	movs	r1, #0
10001896:	2007      	movs	r0, #7
10001898:	4b1a      	ldr	r3, [pc, #104]	@ (10001904 <runtime_init_clocks+0xd0>)
1000189a:	f7ff fd95 	bl	100013c8 <clock_configure_undivided>
1000189e:	2200      	movs	r2, #0
100018a0:	2100      	movs	r1, #0
100018a2:	2008      	movs	r0, #8
100018a4:	4b17      	ldr	r3, [pc, #92]	@ (10001904 <runtime_init_clocks+0xd0>)
100018a6:	f7ff fd8f 	bl	100013c8 <clock_configure_undivided>
100018aa:	2380      	movs	r3, #128	@ 0x80
100018ac:	00db      	lsls	r3, r3, #3
100018ae:	9300      	str	r3, [sp, #0]
100018b0:	2200      	movs	r2, #0
100018b2:	2100      	movs	r1, #0
100018b4:	2009      	movs	r0, #9
100018b6:	4b13      	ldr	r3, [pc, #76]	@ (10001904 <runtime_init_clocks+0xd0>)
100018b8:	f7ff fd10 	bl	100012dc <clock_configure_int_divider>
100018bc:	2200      	movs	r2, #0
100018be:	4b10      	ldr	r3, [pc, #64]	@ (10001900 <runtime_init_clocks+0xcc>)
100018c0:	2100      	movs	r1, #0
100018c2:	2006      	movs	r0, #6
100018c4:	f7ff fd80 	bl	100013c8 <clock_configure_undivided>
100018c8:	2004      	movs	r0, #4
100018ca:	f7ff fded 	bl	100014a8 <clock_get_hz>
100018ce:	490e      	ldr	r1, [pc, #56]	@ (10001908 <runtime_init_clocks+0xd4>)
100018d0:	f000 f84c 	bl	1000196c <__wrap___aeabi_uidiv>
100018d4:	0001      	movs	r1, r0
100018d6:	2000      	movs	r0, #0
100018d8:	f7ff fe92 	bl	10001600 <tick_start>
100018dc:	b002      	add	sp, #8
100018de:	bd10      	pop	{r4, pc}
100018e0:	40008000 	.word	0x40008000
100018e4:	4000b03c 	.word	0x4000b03c
100018e8:	4000b030 	.word	0x4000b030
100018ec:	59682f00 	.word	0x59682f00
100018f0:	40028000 	.word	0x40028000
100018f4:	47868c00 	.word	0x47868c00
100018f8:	4002c000 	.word	0x4002c000
100018fc:	00b71b00 	.word	0x00b71b00
10001900:	07735940 	.word	0x07735940
10001904:	02dc6c00 	.word	0x02dc6c00
10001908:	000f4240 	.word	0x000f4240

1000190c <__aeabi_bits_init>:
1000190c:	4801      	ldr	r0, [pc, #4]	@ (10001914 <__aeabi_bits_init+0x8>)
1000190e:	2104      	movs	r1, #4
10001910:	4b01      	ldr	r3, [pc, #4]	@ (10001918 <__aeabi_bits_init+0xc>)
10001912:	4718      	bx	r3
10001914:	20001000 	.word	0x20001000
10001918:	10001631 	.word	0x10001631

1000191c <__wrap___aeabi_idiv>:
1000191c:	4a12      	ldr	r2, [pc, #72]	@ (10001968 <divmod_s32s32_savestate+0x18>)
1000191e:	6f93      	ldr	r3, [r2, #120]	@ 0x78
10001920:	089b      	lsrs	r3, r3, #2
10001922:	d215      	bcs.n	10001950 <divmod_s32s32_savestate>

10001924 <divmod_s32s32_unsafe>:
10001924:	6690      	str	r0, [r2, #104]	@ 0x68
10001926:	66d1      	str	r1, [r2, #108]	@ 0x6c
10001928:	2900      	cmp	r1, #0
1000192a:	d005      	beq.n	10001938 <divmod_s32s32_unsafe+0x14>
1000192c:	e7ff      	b.n	1000192e <divmod_s32s32_unsafe+0xa>
1000192e:	e7ff      	b.n	10001930 <divmod_s32s32_unsafe+0xc>
10001930:	e7ff      	b.n	10001932 <divmod_s32s32_unsafe+0xe>
10001932:	6f51      	ldr	r1, [r2, #116]	@ 0x74
10001934:	6f10      	ldr	r0, [r2, #112]	@ 0x70
10001936:	4770      	bx	lr
10001938:	b504      	push	{r2, lr}
1000193a:	2180      	movs	r1, #128	@ 0x80
1000193c:	0609      	lsls	r1, r1, #24
1000193e:	17c2      	asrs	r2, r0, #31
10001940:	4051      	eors	r1, r2
10001942:	2800      	cmp	r0, #0
10001944:	d000      	beq.n	10001948 <divmod_s32s32_unsafe+0x24>
10001946:	43c8      	mvns	r0, r1
10001948:	f005 f9e6 	bl	10006d18 <____aeabi_idiv0_veneer>
1000194c:	2100      	movs	r1, #0
1000194e:	bd04      	pop	{r2, pc}

10001950 <divmod_s32s32_savestate>:
10001950:	b5f0      	push	{r4, r5, r6, r7, lr}
10001952:	6e14      	ldr	r4, [r2, #96]	@ 0x60
10001954:	6e55      	ldr	r5, [r2, #100]	@ 0x64
10001956:	6f57      	ldr	r7, [r2, #116]	@ 0x74
10001958:	6f16      	ldr	r6, [r2, #112]	@ 0x70
1000195a:	f7ff ffe3 	bl	10001924 <divmod_s32s32_unsafe>
1000195e:	6614      	str	r4, [r2, #96]	@ 0x60
10001960:	6655      	str	r5, [r2, #100]	@ 0x64
10001962:	6757      	str	r7, [r2, #116]	@ 0x74
10001964:	6716      	str	r6, [r2, #112]	@ 0x70
10001966:	bdf0      	pop	{r4, r5, r6, r7, pc}
10001968:	d0000000 	.word	0xd0000000

1000196c <__wrap___aeabi_uidiv>:
1000196c:	4a11      	ldr	r2, [pc, #68]	@ (100019b4 <divmod_u32u32_savestate+0x18>)
1000196e:	6f93      	ldr	r3, [r2, #120]	@ 0x78
10001970:	089b      	lsrs	r3, r3, #2
10001972:	d213      	bcs.n	1000199c <divmod_u32u32_savestate>

10001974 <divmod_u32u32_unsafe>:
10001974:	6610      	str	r0, [r2, #96]	@ 0x60
10001976:	6651      	str	r1, [r2, #100]	@ 0x64
10001978:	2900      	cmp	r1, #0
1000197a:	d005      	beq.n	10001988 <divmod_u32u32_unsafe+0x14>
1000197c:	e7ff      	b.n	1000197e <divmod_u32u32_unsafe+0xa>
1000197e:	e7ff      	b.n	10001980 <divmod_u32u32_unsafe+0xc>
10001980:	e7ff      	b.n	10001982 <divmod_u32u32_unsafe+0xe>
10001982:	6f51      	ldr	r1, [r2, #116]	@ 0x74
10001984:	6f10      	ldr	r0, [r2, #112]	@ 0x70
10001986:	4770      	bx	lr
10001988:	b504      	push	{r2, lr}
1000198a:	2800      	cmp	r0, #0
1000198c:	d001      	beq.n	10001992 <divmod_u32u32_unsafe+0x1e>
1000198e:	2000      	movs	r0, #0
10001990:	43c0      	mvns	r0, r0
10001992:	f005 f9c1 	bl	10006d18 <____aeabi_idiv0_veneer>
10001996:	2100      	movs	r1, #0
10001998:	bd04      	pop	{r2, pc}
1000199a:	46c0      	nop			@ (mov r8, r8)

1000199c <divmod_u32u32_savestate>:
1000199c:	b5f0      	push	{r4, r5, r6, r7, lr}
1000199e:	6e14      	ldr	r4, [r2, #96]	@ 0x60
100019a0:	6e55      	ldr	r5, [r2, #100]	@ 0x64
100019a2:	6f57      	ldr	r7, [r2, #116]	@ 0x74
100019a4:	6f16      	ldr	r6, [r2, #112]	@ 0x70
100019a6:	f7ff ffe5 	bl	10001974 <divmod_u32u32_unsafe>
100019aa:	6614      	str	r4, [r2, #96]	@ 0x60
100019ac:	6655      	str	r5, [r2, #100]	@ 0x64
100019ae:	6757      	str	r7, [r2, #116]	@ 0x74
100019b0:	6716      	str	r6, [r2, #112]	@ 0x70
100019b2:	bdf0      	pop	{r4, r5, r6, r7, pc}
100019b4:	d0000000 	.word	0xd0000000

100019b8 <__wrap___aeabi_ldivmod>:
100019b8:	4694      	mov	ip, r2
100019ba:	4a4a      	ldr	r2, [pc, #296]	@ (10001ae4 <udiv0+0x1a>)
100019bc:	6f92      	ldr	r2, [r2, #120]	@ 0x78
100019be:	0892      	lsrs	r2, r2, #2
100019c0:	4662      	mov	r2, ip
100019c2:	d201      	bcs.n	100019c8 <divmod_s64s64_savestate>
100019c4:	e028      	b.n	10001a18 <divmod_s64s64_unsafe>
100019c6:	46c0      	nop			@ (mov r8, r8)

100019c8 <divmod_s64s64_savestate>:
100019c8:	b5f0      	push	{r4, r5, r6, r7, lr}
100019ca:	4e46      	ldr	r6, [pc, #280]	@ (10001ae4 <udiv0+0x1a>)
100019cc:	6e34      	ldr	r4, [r6, #96]	@ 0x60
100019ce:	6e75      	ldr	r5, [r6, #100]	@ 0x64
100019d0:	6f77      	ldr	r7, [r6, #116]	@ 0x74
100019d2:	6f36      	ldr	r6, [r6, #112]	@ 0x70
100019d4:	f000 f820 	bl	10001a18 <divmod_s64s64_unsafe>
100019d8:	4694      	mov	ip, r2
100019da:	4a42      	ldr	r2, [pc, #264]	@ (10001ae4 <udiv0+0x1a>)
100019dc:	6614      	str	r4, [r2, #96]	@ 0x60
100019de:	6655      	str	r5, [r2, #100]	@ 0x64
100019e0:	6757      	str	r7, [r2, #116]	@ 0x74
100019e2:	6716      	str	r6, [r2, #112]	@ 0x70
100019e4:	4662      	mov	r2, ip
100019e6:	bdf0      	pop	{r4, r5, r6, r7, pc}

100019e8 <__wrap___aeabi_uldivmod>:
100019e8:	4694      	mov	ip, r2
100019ea:	4a3e      	ldr	r2, [pc, #248]	@ (10001ae4 <udiv0+0x1a>)
100019ec:	6f92      	ldr	r2, [r2, #120]	@ 0x78
100019ee:	0892      	lsrs	r2, r2, #2
100019f0:	4662      	mov	r2, ip
100019f2:	d201      	bcs.n	100019f8 <divmod_u64u64_savestate>
100019f4:	e054      	b.n	10001aa0 <divmod_u64u64_unsafe>
100019f6:	46c0      	nop			@ (mov r8, r8)

100019f8 <divmod_u64u64_savestate>:
100019f8:	b5f0      	push	{r4, r5, r6, r7, lr}
100019fa:	4e3a      	ldr	r6, [pc, #232]	@ (10001ae4 <udiv0+0x1a>)
100019fc:	6e34      	ldr	r4, [r6, #96]	@ 0x60
100019fe:	6e75      	ldr	r5, [r6, #100]	@ 0x64
10001a00:	6f77      	ldr	r7, [r6, #116]	@ 0x74
10001a02:	6f36      	ldr	r6, [r6, #112]	@ 0x70
10001a04:	f000 f84c 	bl	10001aa0 <divmod_u64u64_unsafe>
10001a08:	4694      	mov	ip, r2
10001a0a:	4a36      	ldr	r2, [pc, #216]	@ (10001ae4 <udiv0+0x1a>)
10001a0c:	6614      	str	r4, [r2, #96]	@ 0x60
10001a0e:	6655      	str	r5, [r2, #100]	@ 0x64
10001a10:	6757      	str	r7, [r2, #116]	@ 0x74
10001a12:	6716      	str	r6, [r2, #112]	@ 0x70
10001a14:	4662      	mov	r2, ip
10001a16:	bdf0      	pop	{r4, r5, r6, r7, pc}

10001a18 <divmod_s64s64_unsafe>:
10001a18:	2b00      	cmp	r3, #0
10001a1a:	db24      	blt.n	10001a66 <l42_1+0x26>
10001a1c:	d011      	beq.n	10001a42 <l42_1+0x2>
10001a1e:	2900      	cmp	r1, #0
10001a20:	da3e      	bge.n	10001aa0 <divmod_u64u64_unsafe>
10001a22:	b500      	push	{lr}
10001a24:	43c9      	mvns	r1, r1
10001a26:	4240      	negs	r0, r0
10001a28:	d100      	bne.n	10001a2c <l40_1>
10001a2a:	3101      	adds	r1, #1

10001a2c <l40_1>:
10001a2c:	f000 f838 	bl	10001aa0 <divmod_u64u64_unsafe>
10001a30:	43c9      	mvns	r1, r1
10001a32:	4240      	negs	r0, r0
10001a34:	d100      	bne.n	10001a38 <l41_1>
10001a36:	3101      	adds	r1, #1

10001a38 <l41_1>:
10001a38:	43db      	mvns	r3, r3
10001a3a:	4252      	negs	r2, r2
10001a3c:	d100      	bne.n	10001a40 <l42_1>
10001a3e:	3301      	adds	r3, #1

10001a40 <l42_1>:
10001a40:	bd00      	pop	{pc}
10001a42:	2a00      	cmp	r2, #0
10001a44:	d1eb      	bne.n	10001a1e <divmod_s64s64_unsafe+0x6>
10001a46:	2800      	cmp	r0, #0
10001a48:	d101      	bne.n	10001a4e <l42_1+0xe>
10001a4a:	2900      	cmp	r1, #0
10001a4c:	d005      	beq.n	10001a5a <l42_1+0x1a>
10001a4e:	2000      	movs	r0, #0
10001a50:	0fc9      	lsrs	r1, r1, #31
10001a52:	07c9      	lsls	r1, r1, #31
10001a54:	d101      	bne.n	10001a5a <l42_1+0x1a>
10001a56:	43c0      	mvns	r0, r0
10001a58:	0841      	lsrs	r1, r0, #1
10001a5a:	b500      	push	{lr}
10001a5c:	f005 f94c 	bl	10006cf8 <____aeabi_ldiv0_veneer>
10001a60:	2200      	movs	r2, #0
10001a62:	2300      	movs	r3, #0
10001a64:	bd00      	pop	{pc}
10001a66:	b500      	push	{lr}
10001a68:	2900      	cmp	r1, #0
10001a6a:	db0a      	blt.n	10001a82 <l44_1+0x2>
10001a6c:	43db      	mvns	r3, r3
10001a6e:	4252      	negs	r2, r2
10001a70:	d100      	bne.n	10001a74 <l43_1>
10001a72:	3301      	adds	r3, #1

10001a74 <l43_1>:
10001a74:	f000 f814 	bl	10001aa0 <divmod_u64u64_unsafe>
10001a78:	43c9      	mvns	r1, r1
10001a7a:	4240      	negs	r0, r0
10001a7c:	d100      	bne.n	10001a80 <l44_1>
10001a7e:	3101      	adds	r1, #1

10001a80 <l44_1>:
10001a80:	bd00      	pop	{pc}
10001a82:	43c9      	mvns	r1, r1
10001a84:	4240      	negs	r0, r0
10001a86:	d100      	bne.n	10001a8a <l45_1>
10001a88:	3101      	adds	r1, #1

10001a8a <l45_1>:
10001a8a:	43db      	mvns	r3, r3
10001a8c:	4252      	negs	r2, r2
10001a8e:	d100      	bne.n	10001a92 <l46_1>
10001a90:	3301      	adds	r3, #1

10001a92 <l46_1>:
10001a92:	f000 f805 	bl	10001aa0 <divmod_u64u64_unsafe>
10001a96:	43db      	mvns	r3, r3
10001a98:	4252      	negs	r2, r2
10001a9a:	d100      	bne.n	10001a9e <l47_1>
10001a9c:	3301      	adds	r3, #1

10001a9e <l47_1>:
10001a9e:	bd00      	pop	{pc}

10001aa0 <divmod_u64u64_unsafe>:
10001aa0:	2900      	cmp	r1, #0
10001aa2:	d123      	bne.n	10001aec <y64>
10001aa4:	2b00      	cmp	r3, #0
10001aa6:	d118      	bne.n	10001ada <udiv0+0x10>
10001aa8:	2a00      	cmp	r2, #0
10001aaa:	d00c      	beq.n	10001ac6 <divmod_u64u64_unsafe+0x26>
10001aac:	46bc      	mov	ip, r7
10001aae:	4f0d      	ldr	r7, [pc, #52]	@ (10001ae4 <udiv0+0x1a>)
10001ab0:	6638      	str	r0, [r7, #96]	@ 0x60
10001ab2:	667a      	str	r2, [r7, #100]	@ 0x64
10001ab4:	2100      	movs	r1, #0
10001ab6:	2300      	movs	r3, #0
10001ab8:	e7ff      	b.n	10001aba <divmod_u64u64_unsafe+0x1a>
10001aba:	e7ff      	b.n	10001abc <divmod_u64u64_unsafe+0x1c>
10001abc:	e7ff      	b.n	10001abe <divmod_u64u64_unsafe+0x1e>
10001abe:	6f7a      	ldr	r2, [r7, #116]	@ 0x74
10001ac0:	6f38      	ldr	r0, [r7, #112]	@ 0x70
10001ac2:	4667      	mov	r7, ip
10001ac4:	4770      	bx	lr
10001ac6:	2800      	cmp	r0, #0
10001ac8:	d001      	beq.n	10001ace <udiv0+0x4>

10001aca <udiv0>:
10001aca:	4807      	ldr	r0, [pc, #28]	@ (10001ae8 <udiv0+0x1e>)
10001acc:	0001      	movs	r1, r0
10001ace:	b500      	push	{lr}
10001ad0:	f005 f912 	bl	10006cf8 <____aeabi_ldiv0_veneer>
10001ad4:	2200      	movs	r2, #0
10001ad6:	2300      	movs	r3, #0
10001ad8:	bd00      	pop	{pc}
10001ada:	0002      	movs	r2, r0
10001adc:	000b      	movs	r3, r1
10001ade:	2000      	movs	r0, #0
10001ae0:	2100      	movs	r1, #0
10001ae2:	4770      	bx	lr
10001ae4:	d0000000 	.word	0xd0000000
10001ae8:	ffffffff 	.word	0xffffffff

10001aec <y64>:
10001aec:	2b00      	cmp	r3, #0
10001aee:	d000      	beq.n	10001af2 <y64+0x6>
10001af0:	e0bf      	b.n	10001c72 <y64_x48>
10001af2:	0c13      	lsrs	r3, r2, #16
10001af4:	d128      	bne.n	10001b48 <y64_x32>
10001af6:	2a00      	cmp	r2, #0
10001af8:	d0e7      	beq.n	10001aca <udiv0>
10001afa:	b480      	push	{r7}
10001afc:	4f11      	ldr	r7, [pc, #68]	@ (10001b44 <y64+0x58>)
10001afe:	6639      	str	r1, [r7, #96]	@ 0x60
10001b00:	667a      	str	r2, [r7, #100]	@ 0x64
10001b02:	e7ff      	b.n	10001b04 <y64+0x18>
10001b04:	e7ff      	b.n	10001b06 <y64+0x1a>
10001b06:	b430      	push	{r4, r5}
10001b08:	0c04      	lsrs	r4, r0, #16
10001b0a:	6f7b      	ldr	r3, [r7, #116]	@ 0x74
10001b0c:	6f39      	ldr	r1, [r7, #112]	@ 0x70
10001b0e:	041b      	lsls	r3, r3, #16
10001b10:	4323      	orrs	r3, r4
10001b12:	663b      	str	r3, [r7, #96]	@ 0x60
10001b14:	667a      	str	r2, [r7, #100]	@ 0x64
10001b16:	e7ff      	b.n	10001b18 <y64+0x2c>
10001b18:	e7ff      	b.n	10001b1a <y64+0x2e>
10001b1a:	e7ff      	b.n	10001b1c <y64+0x30>
10001b1c:	46c0      	nop			@ (mov r8, r8)
10001b1e:	b284      	uxth	r4, r0
10001b20:	6f7b      	ldr	r3, [r7, #116]	@ 0x74
10001b22:	6f3d      	ldr	r5, [r7, #112]	@ 0x70
10001b24:	041b      	lsls	r3, r3, #16
10001b26:	4323      	orrs	r3, r4
10001b28:	663b      	str	r3, [r7, #96]	@ 0x60
10001b2a:	667a      	str	r2, [r7, #100]	@ 0x64
10001b2c:	e7ff      	b.n	10001b2e <y64+0x42>
10001b2e:	e7ff      	b.n	10001b30 <y64+0x44>
10001b30:	46c0      	nop			@ (mov r8, r8)
10001b32:	2300      	movs	r3, #0
10001b34:	042c      	lsls	r4, r5, #16
10001b36:	0c2d      	lsrs	r5, r5, #16
10001b38:	6f7a      	ldr	r2, [r7, #116]	@ 0x74
10001b3a:	6f38      	ldr	r0, [r7, #112]	@ 0x70
10001b3c:	1900      	adds	r0, r0, r4
10001b3e:	4169      	adcs	r1, r5
10001b40:	bcb0      	pop	{r4, r5, r7}
10001b42:	4770      	bx	lr
10001b44:	d0000000 	.word	0xd0000000

10001b48 <y64_x32>:
10001b48:	b5f0      	push	{r4, r5, r6, r7, lr}
10001b4a:	4694      	mov	ip, r2
10001b4c:	2500      	movs	r5, #0
10001b4e:	0e14      	lsrs	r4, r2, #24
10001b50:	d101      	bne.n	10001b56 <y64_x32+0xe>
10001b52:	0212      	lsls	r2, r2, #8
10001b54:	3508      	adds	r5, #8
10001b56:	0f14      	lsrs	r4, r2, #28
10001b58:	d101      	bne.n	10001b5e <y64_x32+0x16>
10001b5a:	0112      	lsls	r2, r2, #4
10001b5c:	3504      	adds	r5, #4
10001b5e:	0f94      	lsrs	r4, r2, #30
10001b60:	d101      	bne.n	10001b66 <y64_x32+0x1e>
10001b62:	0092      	lsls	r2, r2, #2
10001b64:	3502      	adds	r5, #2
10001b66:	0fd4      	lsrs	r4, r2, #31
10001b68:	d101      	bne.n	10001b6e <y64_x32+0x26>
10001b6a:	0052      	lsls	r2, r2, #1
10001b6c:	3501      	adds	r5, #1
10001b6e:	0bd4      	lsrs	r4, r2, #15
10001b70:	3401      	adds	r4, #1
10001b72:	4f25      	ldr	r7, [pc, #148]	@ (10001c08 <y64_x32+0xc0>)
10001b74:	667c      	str	r4, [r7, #100]	@ 0x64
10001b76:	4c25      	ldr	r4, [pc, #148]	@ (10001c0c <y64_x32+0xc4>)
10001b78:	663c      	str	r4, [r7, #96]	@ 0x60
10001b7a:	0c0e      	lsrs	r6, r1, #16
10001b7c:	b293      	uxth	r3, r2
10001b7e:	e7ff      	b.n	10001b80 <y64_x32+0x38>
10001b80:	e7ff      	b.n	10001b82 <y64_x32+0x3a>
10001b82:	e7ff      	b.n	10001b84 <y64_x32+0x3c>
10001b84:	6f3c      	ldr	r4, [r7, #112]	@ 0x70
10001b86:	4366      	muls	r6, r4
10001b88:	0c36      	lsrs	r6, r6, #16
10001b8a:	0377      	lsls	r7, r6, #13
10001b8c:	46be      	mov	lr, r7
10001b8e:	4373      	muls	r3, r6
10001b90:	0bdf      	lsrs	r7, r3, #15
10001b92:	045b      	lsls	r3, r3, #17
10001b94:	1ac0      	subs	r0, r0, r3
10001b96:	41b9      	sbcs	r1, r7
10001b98:	0c13      	lsrs	r3, r2, #16
10001b9a:	4373      	muls	r3, r6
10001b9c:	18db      	adds	r3, r3, r3
10001b9e:	1ac9      	subs	r1, r1, r3
10001ba0:	08ce      	lsrs	r6, r1, #3
10001ba2:	4366      	muls	r6, r4
10001ba4:	0c36      	lsrs	r6, r6, #16
10001ba6:	44b6      	add	lr, r6
10001ba8:	b293      	uxth	r3, r2
10001baa:	4373      	muls	r3, r6
10001bac:	0f1f      	lsrs	r7, r3, #28
10001bae:	011b      	lsls	r3, r3, #4
10001bb0:	1ac0      	subs	r0, r0, r3
10001bb2:	41b9      	sbcs	r1, r7
10001bb4:	0c13      	lsrs	r3, r2, #16
10001bb6:	4373      	muls	r3, r6
10001bb8:	0b1f      	lsrs	r7, r3, #12
10001bba:	051b      	lsls	r3, r3, #20
10001bbc:	1ac0      	subs	r0, r0, r3
10001bbe:	41b9      	sbcs	r1, r7
10001bc0:	0d86      	lsrs	r6, r0, #22
10001bc2:	028f      	lsls	r7, r1, #10
10001bc4:	433e      	orrs	r6, r7
10001bc6:	4366      	muls	r6, r4
10001bc8:	0c36      	lsrs	r6, r6, #16
10001bca:	2d09      	cmp	r5, #9
10001bcc:	db24      	blt.n	10001c18 <last0>
10001bce:	0a52      	lsrs	r2, r2, #9
10001bd0:	4372      	muls	r2, r6
10001bd2:	1a80      	subs	r0, r0, r2
10001bd4:	0377      	lsls	r7, r6, #13
10001bd6:	0a46      	lsrs	r6, r0, #9
10001bd8:	4366      	muls	r6, r4
10001bda:	0c36      	lsrs	r6, r6, #16
10001bdc:	2316      	movs	r3, #22
10001bde:	1b5b      	subs	r3, r3, r5
10001be0:	40de      	lsrs	r6, r3
10001be2:	40df      	lsrs	r7, r3
10001be4:	19bf      	adds	r7, r7, r6
10001be6:	4664      	mov	r4, ip
10001be8:	4366      	muls	r6, r4
10001bea:	1b82      	subs	r2, r0, r6
10001bec:	4670      	mov	r0, lr
10001bee:	3504      	adds	r5, #4
10001bf0:	3306      	adds	r3, #6
10001bf2:	0001      	movs	r1, r0
10001bf4:	40d9      	lsrs	r1, r3
10001bf6:	40a8      	lsls	r0, r5
10001bf8:	19c0      	adds	r0, r0, r7
10001bfa:	d300      	bcc.n	10001bfe <y64_x32+0xb6>
10001bfc:	3101      	adds	r1, #1
10001bfe:	42a2      	cmp	r2, r4
10001c00:	d206      	bcs.n	10001c10 <y64_x32+0xc8>
10001c02:	2300      	movs	r3, #0
10001c04:	bdf0      	pop	{r4, r5, r6, r7, pc}
10001c06:	0000      	.short	0x0000
10001c08:	d0000000 	.word	0xd0000000
10001c0c:	ffffffff 	.word	0xffffffff
10001c10:	1b12      	subs	r2, r2, r4
10001c12:	3001      	adds	r0, #1
10001c14:	d3f3      	bcc.n	10001bfe <y64_x32+0xb6>
10001c16:	e7f1      	b.n	10001bfc <y64_x32+0xb4>

10001c18 <last0>:
10001c18:	2709      	movs	r7, #9
10001c1a:	1b7f      	subs	r7, r7, r5
10001c1c:	40fe      	lsrs	r6, r7
10001c1e:	4664      	mov	r4, ip
10001c20:	b2a2      	uxth	r2, r4
10001c22:	4372      	muls	r2, r6
10001c24:	1a80      	subs	r0, r0, r2
10001c26:	d200      	bcs.n	10001c2a <last0+0x12>
10001c28:	3901      	subs	r1, #1
10001c2a:	0c22      	lsrs	r2, r4, #16
10001c2c:	4372      	muls	r2, r6
10001c2e:	0c13      	lsrs	r3, r2, #16
10001c30:	0412      	lsls	r2, r2, #16
10001c32:	1a82      	subs	r2, r0, r2
10001c34:	4199      	sbcs	r1, r3
10001c36:	000b      	movs	r3, r1
10001c38:	4670      	mov	r0, lr
10001c3a:	3504      	adds	r5, #4
10001c3c:	3713      	adds	r7, #19
10001c3e:	0001      	movs	r1, r0
10001c40:	40f9      	lsrs	r1, r7
10001c42:	40a8      	lsls	r0, r5
10001c44:	1980      	adds	r0, r0, r6
10001c46:	d300      	bcc.n	10001c4a <last0+0x32>
10001c48:	3101      	adds	r1, #1
10001c4a:	2b00      	cmp	r3, #0
10001c4c:	d102      	bne.n	10001c54 <last0+0x3c>
10001c4e:	42a2      	cmp	r2, r4
10001c50:	d20a      	bcs.n	10001c68 <last0+0x50>
10001c52:	bdf0      	pop	{r4, r5, r6, r7, pc}
10001c54:	3001      	adds	r0, #1
10001c56:	d300      	bcc.n	10001c5a <last0+0x42>
10001c58:	3101      	adds	r1, #1
10001c5a:	1b12      	subs	r2, r2, r4
10001c5c:	d2fa      	bcs.n	10001c54 <last0+0x3c>
10001c5e:	3b01      	subs	r3, #1
10001c60:	d1f8      	bne.n	10001c54 <last0+0x3c>
10001c62:	42a2      	cmp	r2, r4
10001c64:	d200      	bcs.n	10001c68 <last0+0x50>
10001c66:	bdf0      	pop	{r4, r5, r6, r7, pc}
10001c68:	3001      	adds	r0, #1
10001c6a:	d300      	bcc.n	10001c6e <last0+0x56>
10001c6c:	3101      	adds	r1, #1
10001c6e:	1b12      	subs	r2, r2, r4
10001c70:	e7f7      	b.n	10001c62 <last0+0x4a>

10001c72 <y64_x48>:
10001c72:	b5f0      	push	{r4, r5, r6, r7, lr}
10001c74:	0c1c      	lsrs	r4, r3, #16
10001c76:	d000      	beq.n	10001c7a <y64_x48+0x8>
10001c78:	e080      	b.n	10001d7c <y64_x64>
10001c7a:	b40c      	push	{r2, r3}
10001c7c:	2500      	movs	r5, #0
10001c7e:	0a1c      	lsrs	r4, r3, #8
10001c80:	d104      	bne.n	10001c8c <y64_x48+0x1a>
10001c82:	021b      	lsls	r3, r3, #8
10001c84:	0e16      	lsrs	r6, r2, #24
10001c86:	4333      	orrs	r3, r6
10001c88:	0212      	lsls	r2, r2, #8
10001c8a:	3508      	adds	r5, #8
10001c8c:	0b1c      	lsrs	r4, r3, #12
10001c8e:	d104      	bne.n	10001c9a <y64_x48+0x28>
10001c90:	011b      	lsls	r3, r3, #4
10001c92:	0f16      	lsrs	r6, r2, #28
10001c94:	4333      	orrs	r3, r6
10001c96:	0112      	lsls	r2, r2, #4
10001c98:	3504      	adds	r5, #4
10001c9a:	0b9c      	lsrs	r4, r3, #14
10001c9c:	d104      	bne.n	10001ca8 <y64_x48+0x36>
10001c9e:	009b      	lsls	r3, r3, #2
10001ca0:	0f96      	lsrs	r6, r2, #30
10001ca2:	4333      	orrs	r3, r6
10001ca4:	0092      	lsls	r2, r2, #2
10001ca6:	3502      	adds	r5, #2
10001ca8:	0bdc      	lsrs	r4, r3, #15
10001caa:	d102      	bne.n	10001cb2 <y64_x48+0x40>
10001cac:	1892      	adds	r2, r2, r2
10001cae:	415b      	adcs	r3, r3
10001cb0:	3501      	adds	r5, #1
10001cb2:	001c      	movs	r4, r3
10001cb4:	1897      	adds	r7, r2, r2
10001cb6:	4164      	adcs	r4, r4
10001cb8:	3401      	adds	r4, #1
10001cba:	4f46      	ldr	r7, [pc, #280]	@ (10001dd4 <y64_x64+0x58>)
10001cbc:	667c      	str	r4, [r7, #100]	@ 0x64
10001cbe:	4c46      	ldr	r4, [pc, #280]	@ (10001dd8 <y64_x64+0x5c>)
10001cc0:	663c      	str	r4, [r7, #96]	@ 0x60
10001cc2:	0c0e      	lsrs	r6, r1, #16
10001cc4:	e7ff      	b.n	10001cc6 <y64_x48+0x54>
10001cc6:	e7ff      	b.n	10001cc8 <y64_x48+0x56>
10001cc8:	e7ff      	b.n	10001cca <y64_x48+0x58>
10001cca:	46c0      	nop			@ (mov r8, r8)
10001ccc:	6f3c      	ldr	r4, [r7, #112]	@ 0x70
10001cce:	4366      	muls	r6, r4
10001cd0:	0c36      	lsrs	r6, r6, #16
10001cd2:	0377      	lsls	r7, r6, #13
10001cd4:	46be      	mov	lr, r7
10001cd6:	b297      	uxth	r7, r2
10001cd8:	4377      	muls	r7, r6
10001cda:	1bc0      	subs	r0, r0, r7
10001cdc:	d200      	bcs.n	10001ce0 <y64_x48+0x6e>
10001cde:	3901      	subs	r1, #1
10001ce0:	1bc0      	subs	r0, r0, r7
10001ce2:	d200      	bcs.n	10001ce6 <y64_x48+0x74>
10001ce4:	3901      	subs	r1, #1
10001ce6:	b29f      	uxth	r7, r3
10001ce8:	4377      	muls	r7, r6
10001cea:	1bc9      	subs	r1, r1, r7
10001cec:	1bc9      	subs	r1, r1, r7
10001cee:	0c17      	lsrs	r7, r2, #16
10001cf0:	4377      	muls	r7, r6
10001cf2:	047e      	lsls	r6, r7, #17
10001cf4:	0bff      	lsrs	r7, r7, #15
10001cf6:	1b80      	subs	r0, r0, r6
10001cf8:	41b9      	sbcs	r1, r7
10001cfa:	08ce      	lsrs	r6, r1, #3
10001cfc:	4366      	muls	r6, r4
10001cfe:	0c36      	lsrs	r6, r6, #16
10001d00:	2d0c      	cmp	r5, #12
10001d02:	db33      	blt.n	10001d6c <last1>
10001d04:	44b6      	add	lr, r6
10001d06:	0b12      	lsrs	r2, r2, #12
10001d08:	051f      	lsls	r7, r3, #20
10001d0a:	433a      	orrs	r2, r7
10001d0c:	0b1b      	lsrs	r3, r3, #12
10001d0e:	b297      	uxth	r7, r2
10001d10:	4377      	muls	r7, r6
10001d12:	1bc0      	subs	r0, r0, r7
10001d14:	d200      	bcs.n	10001d18 <y64_x48+0xa6>
10001d16:	3901      	subs	r1, #1
10001d18:	b29f      	uxth	r7, r3
10001d1a:	4377      	muls	r7, r6
10001d1c:	1bc9      	subs	r1, r1, r7
10001d1e:	0c17      	lsrs	r7, r2, #16
10001d20:	4377      	muls	r7, r6
10001d22:	043e      	lsls	r6, r7, #16
10001d24:	0c3f      	lsrs	r7, r7, #16
10001d26:	1b80      	subs	r0, r0, r6
10001d28:	41b9      	sbcs	r1, r7
10001d2a:	0d86      	lsrs	r6, r0, #22
10001d2c:	028f      	lsls	r7, r1, #10
10001d2e:	433e      	orrs	r6, r7
10001d30:	4366      	muls	r6, r4
10001d32:	2729      	movs	r7, #41	@ 0x29
10001d34:	1b7f      	subs	r7, r7, r5
10001d36:	40fe      	lsrs	r6, r7
10001d38:	3d0c      	subs	r5, #12
10001d3a:	4677      	mov	r7, lr
10001d3c:	40af      	lsls	r7, r5
10001d3e:	19bf      	adds	r7, r7, r6
10001d40:	bc30      	pop	{r4, r5}
10001d42:	b2a2      	uxth	r2, r4
10001d44:	b2ab      	uxth	r3, r5
10001d46:	4372      	muls	r2, r6
10001d48:	4373      	muls	r3, r6
10001d4a:	1a80      	subs	r0, r0, r2
10001d4c:	4199      	sbcs	r1, r3
10001d4e:	0c22      	lsrs	r2, r4, #16
10001d50:	4372      	muls	r2, r6
10001d52:	0c13      	lsrs	r3, r2, #16
10001d54:	0412      	lsls	r2, r2, #16
10001d56:	1a80      	subs	r0, r0, r2
10001d58:	4199      	sbcs	r1, r3
10001d5a:	0002      	movs	r2, r0
10001d5c:	000b      	movs	r3, r1
10001d5e:	3701      	adds	r7, #1
10001d60:	1b00      	subs	r0, r0, r4
10001d62:	41a9      	sbcs	r1, r5
10001d64:	d2f9      	bcs.n	10001d5a <y64_x48+0xe8>
10001d66:	1e78      	subs	r0, r7, #1
10001d68:	2100      	movs	r1, #0
10001d6a:	bdf0      	pop	{r4, r5, r6, r7, pc}

10001d6c <last1>:
10001d6c:	270c      	movs	r7, #12
10001d6e:	1b7f      	subs	r7, r7, r5
10001d70:	40fe      	lsrs	r6, r7
10001d72:	4677      	mov	r7, lr
10001d74:	0b7f      	lsrs	r7, r7, #13
10001d76:	40af      	lsls	r7, r5
10001d78:	19ff      	adds	r7, r7, r7
10001d7a:	e7e0      	b.n	10001d3e <y64_x48+0xcc>

10001d7c <y64_x64>:
10001d7c:	2400      	movs	r4, #0
10001d7e:	1c5d      	adds	r5, r3, #1
10001d80:	d007      	beq.n	10001d92 <y64_x64+0x16>
10001d82:	4f14      	ldr	r7, [pc, #80]	@ (10001dd4 <y64_x64+0x58>)
10001d84:	667d      	str	r5, [r7, #100]	@ 0x64
10001d86:	6639      	str	r1, [r7, #96]	@ 0x60
10001d88:	e7ff      	b.n	10001d8a <y64_x64+0xe>
10001d8a:	e7ff      	b.n	10001d8c <y64_x64+0x10>
10001d8c:	e7ff      	b.n	10001d8e <y64_x64+0x12>
10001d8e:	e7ff      	b.n	10001d90 <y64_x64+0x14>
10001d90:	6f3c      	ldr	r4, [r7, #112]	@ 0x70
10001d92:	b295      	uxth	r5, r2
10001d94:	b29e      	uxth	r6, r3
10001d96:	4365      	muls	r5, r4
10001d98:	4366      	muls	r6, r4
10001d9a:	1b40      	subs	r0, r0, r5
10001d9c:	41b1      	sbcs	r1, r6
10001d9e:	0c15      	lsrs	r5, r2, #16
10001da0:	0c1e      	lsrs	r6, r3, #16
10001da2:	4365      	muls	r5, r4
10001da4:	4366      	muls	r6, r4
10001da6:	0436      	lsls	r6, r6, #16
10001da8:	0c2f      	lsrs	r7, r5, #16
10001daa:	433e      	orrs	r6, r7
10001dac:	042d      	lsls	r5, r5, #16
10001dae:	1b40      	subs	r0, r0, r5
10001db0:	41b1      	sbcs	r1, r6
10001db2:	4299      	cmp	r1, r3
10001db4:	d204      	bcs.n	10001dc0 <y64_x64+0x44>
10001db6:	0002      	movs	r2, r0
10001db8:	000b      	movs	r3, r1
10001dba:	0020      	movs	r0, r4
10001dbc:	2100      	movs	r1, #0
10001dbe:	bdf0      	pop	{r4, r5, r6, r7, pc}
10001dc0:	d101      	bne.n	10001dc6 <y64_x64+0x4a>
10001dc2:	4290      	cmp	r0, r2
10001dc4:	d3f7      	bcc.n	10001db6 <y64_x64+0x3a>
10001dc6:	1a80      	subs	r0, r0, r2
10001dc8:	4199      	sbcs	r1, r3
10001dca:	3401      	adds	r4, #1
10001dcc:	4299      	cmp	r1, r3
10001dce:	d3f2      	bcc.n	10001db6 <y64_x64+0x3a>
10001dd0:	e7f6      	b.n	10001dc0 <y64_x64+0x44>
10001dd2:	0000      	.short	0x0000
10001dd4:	d0000000 	.word	0xd0000000
10001dd8:	ffffffff 	.word	0xffffffff

10001ddc <__wrap___aeabi_drsub>:
10001ddc:	4048      	eors	r0, r1
10001dde:	4041      	eors	r1, r0
10001de0:	4048      	eors	r0, r1

10001de2 <__wrap___aeabi_dsub>:
10001de2:	b418      	push	{r3, r4}
10001de4:	4b1b      	ldr	r3, [pc, #108]	@ (10001e54 <__wrap___aeabi_dmul+0x12>)
10001de6:	685b      	ldr	r3, [r3, #4]
10001de8:	46fc      	mov	ip, pc
10001dea:	9301      	str	r3, [sp, #4]
10001dec:	bd08      	pop	{r3, pc}
10001dee:	df04      	.short	0xdf04
10001df0:	10002087 	.word	0x10002087

10001df4 <__wrap___aeabi_dadd>:
10001df4:	b418      	push	{r3, r4}
10001df6:	4b17      	ldr	r3, [pc, #92]	@ (10001e54 <__wrap___aeabi_dmul+0x12>)
10001df8:	681b      	ldr	r3, [r3, #0]
10001dfa:	46fc      	mov	ip, pc
10001dfc:	9301      	str	r3, [sp, #4]
10001dfe:	bd08      	pop	{r3, pc}
10001e00:	2091df00 	.word	0x2091df00
10001e04:	1000      	.short	0x1000

10001e06 <__wrap___aeabi_ddiv>:
10001e06:	4694      	mov	ip, r2
10001e08:	4a13      	ldr	r2, [pc, #76]	@ (10001e58 <__wrap___aeabi_dmul+0x16>)
10001e0a:	6f92      	ldr	r2, [r2, #120]	@ 0x78
10001e0c:	0892      	lsrs	r2, r2, #2
10001e0e:	d209      	bcs.n	10001e24 <ddiv_save_state>
10001e10:	4662      	mov	r2, ip

10001e12 <ddiv_shim_call>:
10001e12:	b418      	push	{r3, r4}
10001e14:	4b0f      	ldr	r3, [pc, #60]	@ (10001e54 <__wrap___aeabi_dmul+0x12>)
10001e16:	68db      	ldr	r3, [r3, #12]
10001e18:	46fc      	mov	ip, pc
10001e1a:	9301      	str	r3, [sp, #4]
10001e1c:	bd08      	pop	{r3, pc}
10001e1e:	df0c      	.short	0xdf0c
10001e20:	10002349 	.word	0x10002349

10001e24 <ddiv_save_state>:
10001e24:	4a0c      	ldr	r2, [pc, #48]	@ (10001e58 <__wrap___aeabi_dmul+0x16>)
10001e26:	b5f0      	push	{r4, r5, r6, r7, lr}
10001e28:	6e14      	ldr	r4, [r2, #96]	@ 0x60
10001e2a:	6e55      	ldr	r5, [r2, #100]	@ 0x64
10001e2c:	6f57      	ldr	r7, [r2, #116]	@ 0x74
10001e2e:	6f16      	ldr	r6, [r2, #112]	@ 0x70
10001e30:	4662      	mov	r2, ip
10001e32:	f7ff ffee 	bl	10001e12 <ddiv_shim_call>
10001e36:	4a08      	ldr	r2, [pc, #32]	@ (10001e58 <__wrap___aeabi_dmul+0x16>)
10001e38:	6614      	str	r4, [r2, #96]	@ 0x60
10001e3a:	6655      	str	r5, [r2, #100]	@ 0x64
10001e3c:	6757      	str	r7, [r2, #116]	@ 0x74
10001e3e:	6716      	str	r6, [r2, #112]	@ 0x70
10001e40:	bdf0      	pop	{r4, r5, r6, r7, pc}

10001e42 <__wrap___aeabi_dmul>:
10001e42:	b418      	push	{r3, r4}
10001e44:	4b03      	ldr	r3, [pc, #12]	@ (10001e54 <__wrap___aeabi_dmul+0x12>)
10001e46:	689b      	ldr	r3, [r3, #8]
10001e48:	46fc      	mov	ip, pc
10001e4a:	9301      	str	r3, [sp, #4]
10001e4c:	bd08      	pop	{r3, pc}
10001e4e:	df08      	.short	0xdf08
10001e50:	100021ed 	.word	0x100021ed
10001e54:	200012b8 	.word	0x200012b8
10001e58:	d0000000 	.word	0xd0000000

10001e5c <__wrap___aeabi_cdrcmple>:
10001e5c:	b5ff      	push	{r0, r1, r2, r3, r4, r5, r6, r7, lr}
10001e5e:	4050      	eors	r0, r2
10001e60:	4042      	eors	r2, r0
10001e62:	4050      	eors	r0, r2
10001e64:	4059      	eors	r1, r3
10001e66:	404b      	eors	r3, r1
10001e68:	4059      	eors	r1, r3
10001e6a:	e000      	b.n	10001e6e <__aeabi_dfcmple_guts>

10001e6c <__wrap___aeabi_cdcmpeq>:
10001e6c:	b5ff      	push	{r0, r1, r2, r3, r4, r5, r6, r7, lr}

10001e6e <__aeabi_dfcmple_guts>:
10001e6e:	4f15      	ldr	r7, [pc, #84]	@ (10001ec4 <__aeabi_dfcmple_guts+0x56>)
10001e70:	004c      	lsls	r4, r1, #1
10001e72:	0d64      	lsrs	r4, r4, #21
10001e74:	d003      	beq.n	10001e7e <__aeabi_dfcmple_guts+0x10>
10001e76:	42bc      	cmp	r4, r7
10001e78:	d104      	bne.n	10001e84 <__aeabi_dfcmple_guts+0x16>
10001e7a:	030c      	lsls	r4, r1, #12
10001e7c:	d814      	bhi.n	10001ea8 <__aeabi_dfcmple_guts+0x3a>
10001e7e:	2000      	movs	r0, #0
10001e80:	0d09      	lsrs	r1, r1, #20
10001e82:	0509      	lsls	r1, r1, #20
10001e84:	005c      	lsls	r4, r3, #1
10001e86:	0d64      	lsrs	r4, r4, #21
10001e88:	d003      	beq.n	10001e92 <__aeabi_dfcmple_guts+0x24>
10001e8a:	42bc      	cmp	r4, r7
10001e8c:	d104      	bne.n	10001e98 <__aeabi_dfcmple_guts+0x2a>
10001e8e:	031c      	lsls	r4, r3, #12
10001e90:	d80a      	bhi.n	10001ea8 <__aeabi_dfcmple_guts+0x3a>
10001e92:	2200      	movs	r2, #0
10001e94:	0d1b      	lsrs	r3, r3, #20
10001e96:	051b      	lsls	r3, r3, #20
10001e98:	2601      	movs	r6, #1
10001e9a:	404b      	eors	r3, r1
10001e9c:	d409      	bmi.n	10001eb2 <__aeabi_dfcmple_guts+0x44>
10001e9e:	404b      	eors	r3, r1
10001ea0:	d503      	bpl.n	10001eaa <__aeabi_dfcmple_guts+0x3c>
10001ea2:	428b      	cmp	r3, r1
10001ea4:	d100      	bne.n	10001ea8 <__aeabi_dfcmple_guts+0x3a>
10001ea6:	4282      	cmp	r2, r0
10001ea8:	bdff      	pop	{r0, r1, r2, r3, r4, r5, r6, r7, pc}
10001eaa:	4299      	cmp	r1, r3
10001eac:	d1fc      	bne.n	10001ea8 <__aeabi_dfcmple_guts+0x3a>
10001eae:	4290      	cmp	r0, r2
10001eb0:	bdff      	pop	{r0, r1, r2, r3, r4, r5, r6, r7, pc}
10001eb2:	430b      	orrs	r3, r1
10001eb4:	18db      	adds	r3, r3, r3
10001eb6:	4303      	orrs	r3, r0
10001eb8:	4313      	orrs	r3, r2
10001eba:	d0f5      	beq.n	10001ea8 <__aeabi_dfcmple_guts+0x3a>
10001ebc:	43c9      	mvns	r1, r1
10001ebe:	1849      	adds	r1, r1, r1
10001ec0:	bdff      	pop	{r0, r1, r2, r3, r4, r5, r6, r7, pc}
10001ec2:	0000      	.short	0x0000
10001ec4:	000007ff 	.word	0x000007ff

10001ec8 <__wrap___aeabi_dcmplt>:
10001ec8:	b500      	push	{lr}
10001eca:	f7ff ffcf 	bl	10001e6c <__wrap___aeabi_cdcmpeq>
10001ece:	4180      	sbcs	r0, r0
10001ed0:	bd00      	pop	{pc}
10001ed2:	46c0      	nop			@ (mov r8, r8)

10001ed4 <__wrap___aeabi_dcmple>:
10001ed4:	b500      	push	{lr}
10001ed6:	f7ff ffc9 	bl	10001e6c <__wrap___aeabi_cdcmpeq>
10001eda:	d901      	bls.n	10001ee0 <__wrap___aeabi_dcmple+0xc>
10001edc:	2000      	movs	r0, #0
10001ede:	bd00      	pop	{pc}
10001ee0:	2001      	movs	r0, #1
10001ee2:	bd00      	pop	{pc}

10001ee4 <__wrap___aeabi_dcmpge>:
10001ee4:	b500      	push	{lr}
10001ee6:	f7ff ffb9 	bl	10001e5c <__wrap___aeabi_cdrcmple>
10001eea:	d901      	bls.n	10001ef0 <__wrap___aeabi_dcmpge+0xc>
10001eec:	2000      	movs	r0, #0
10001eee:	bd00      	pop	{pc}
10001ef0:	2001      	movs	r0, #1
10001ef2:	bd00      	pop	{pc}

10001ef4 <__wrap___aeabi_dcmpgt>:
10001ef4:	b500      	push	{lr}
10001ef6:	f7ff ffb1 	bl	10001e5c <__wrap___aeabi_cdrcmple>
10001efa:	4180      	sbcs	r0, r0
10001efc:	bd00      	pop	{pc}

10001efe <__wrap___aeabi_dcmpun>:
10001efe:	2001      	movs	r0, #1
10001f00:	0540      	lsls	r0, r0, #21
10001f02:	004a      	lsls	r2, r1, #1
10001f04:	1812      	adds	r2, r2, r0
10001f06:	d804      	bhi.n	10001f12 <__wrap___aeabi_dcmpun+0x14>
10001f08:	005a      	lsls	r2, r3, #1
10001f0a:	1812      	adds	r2, r2, r0
10001f0c:	d801      	bhi.n	10001f12 <__wrap___aeabi_dcmpun+0x14>
10001f0e:	2000      	movs	r0, #0
10001f10:	4770      	bx	lr
10001f12:	2001      	movs	r0, #1
10001f14:	4770      	bx	lr
	...

10001f18 <__wrap___aeabi_ui2d>:
10001f18:	2100      	movs	r1, #0
10001f1a:	2800      	cmp	r0, #0
10001f1c:	d105      	bne.n	10001f2a <__wrap___aeabi_i2d+0xa>
10001f1e:	4770      	bx	lr

10001f20 <__wrap___aeabi_i2d>:
10001f20:	17c1      	asrs	r1, r0, #31
10001f22:	4048      	eors	r0, r1
10001f24:	1a40      	subs	r0, r0, r1
10001f26:	d0fa      	beq.n	10001f1e <__wrap___aeabi_ui2d+0x6>
10001f28:	07c9      	lsls	r1, r1, #31
10001f2a:	b513      	push	{r0, r1, r4, lr}
10001f2c:	4b06      	ldr	r3, [pc, #24]	@ (10001f48 <__wrap___aeabi_i2d+0x28>)
10001f2e:	681b      	ldr	r3, [r3, #0]
10001f30:	4798      	blx	r3
10001f32:	bc0c      	pop	{r2, r3}
10001f34:	1c44      	adds	r4, r0, #1
10001f36:	40a2      	lsls	r2, r4
10001f38:	0510      	lsls	r0, r2, #20
10001f3a:	0b12      	lsrs	r2, r2, #12
10001f3c:	4903      	ldr	r1, [pc, #12]	@ (10001f4c <__wrap___aeabi_i2d+0x2c>)
10001f3e:	1b09      	subs	r1, r1, r4
10001f40:	0509      	lsls	r1, r1, #20
10001f42:	4319      	orrs	r1, r3
10001f44:	4311      	orrs	r1, r2
10001f46:	bd10      	pop	{r4, pc}
10001f48:	20001f38 	.word	0x20001f38
10001f4c:	0000041f 	.word	0x0000041f

10001f50 <__wrap___aeabi_d2iz>:
10001f50:	b510      	push	{r4, lr}
10001f52:	004c      	lsls	r4, r1, #1
10001f54:	0d62      	lsrs	r2, r4, #21
10001f56:	2380      	movs	r3, #128	@ 0x80
10001f58:	18d2      	adds	r2, r2, r3
10001f5a:	00db      	lsls	r3, r3, #3
10001f5c:	1ad2      	subs	r2, r2, r3
10001f5e:	055b      	lsls	r3, r3, #21
10001f60:	2a7e      	cmp	r2, #126	@ 0x7e
10001f62:	dd10      	ble.n	10001f86 <__wrap___aeabi_d2iz+0x36>
10001f64:	3a9e      	subs	r2, #158	@ 0x9e
10001f66:	da13      	bge.n	10001f90 <__wrap___aeabi_d2iz+0x40>
10001f68:	17cc      	asrs	r4, r1, #31
10001f6a:	0309      	lsls	r1, r1, #12
10001f6c:	0849      	lsrs	r1, r1, #1
10001f6e:	4319      	orrs	r1, r3
10001f70:	4252      	negs	r2, r2
10001f72:	40d1      	lsrs	r1, r2
10001f74:	0064      	lsls	r4, r4, #1
10001f76:	3401      	adds	r4, #1
10001f78:	3215      	adds	r2, #21
10001f7a:	2a20      	cmp	r2, #32
10001f7c:	da05      	bge.n	10001f8a <__wrap___aeabi_d2iz+0x3a>
10001f7e:	40d0      	lsrs	r0, r2
10001f80:	4308      	orrs	r0, r1
10001f82:	4360      	muls	r0, r4
10001f84:	bd10      	pop	{r4, pc}
10001f86:	2000      	movs	r0, #0
10001f88:	bd10      	pop	{r4, pc}
10001f8a:	4608      	mov	r0, r1
10001f8c:	4360      	muls	r0, r4
10001f8e:	bd10      	pop	{r4, pc}
10001f90:	0fc8      	lsrs	r0, r1, #31
10001f92:	18c0      	adds	r0, r0, r3
10001f94:	3801      	subs	r0, #1
10001f96:	bd10      	pop	{r4, pc}

10001f98 <__wrap___aeabi_d2uiz>:
10001f98:	b418      	push	{r3, r4}
10001f9a:	4b04      	ldr	r3, [pc, #16]	@ (10001fac <__wrap___aeabi_d2uiz+0x14>)
10001f9c:	6a5b      	ldr	r3, [r3, #36]	@ 0x24
10001f9e:	46fc      	mov	ip, pc
10001fa0:	9301      	str	r3, [sp, #4]
10001fa2:	bd08      	pop	{r3, pc}
10001fa4:	24f9df24 	.word	0x24f9df24
10001fa8:	00001000 	.word	0x00001000
10001fac:	200012b8 	.word	0x200012b8

10001fb0 <__aeabi_double_init>:
10001fb0:	2313      	movs	r3, #19
10001fb2:	b570      	push	{r4, r5, r6, lr}
10001fb4:	781d      	ldrb	r5, [r3, #0]
10001fb6:	2d01      	cmp	r5, #1
10001fb8:	d019      	beq.n	10001fee <__aeabi_double_init+0x3e>
10001fba:	dd14      	ble.n	10001fe6 <__aeabi_double_init+0x36>
10001fbc:	481f      	ldr	r0, [pc, #124]	@ (1000203c <__aeabi_double_init+0x8c>)
10001fbe:	f7ff fb2f 	bl	10001620 <rom_data_lookup>
10001fc2:	0006      	movs	r6, r0
10001fc4:	481e      	ldr	r0, [pc, #120]	@ (10002040 <__aeabi_double_init+0x90>)
10001fc6:	f7ff fb2b 	bl	10001620 <rom_data_lookup>
10001fca:	4c1e      	ldr	r4, [pc, #120]	@ (10002044 <__aeabi_double_init+0x94>)
10001fcc:	2280      	movs	r2, #128	@ 0x80
10001fce:	0031      	movs	r1, r6
10001fd0:	0020      	movs	r0, r4
10001fd2:	f000 fb61 	bl	10002698 <__wrap___aeabi_memcpy>
10001fd6:	2d02      	cmp	r5, #2
10001fd8:	d02d      	beq.n	10002036 <__aeabi_double_init+0x86>
10001fda:	481b      	ldr	r0, [pc, #108]	@ (10002048 <__aeabi_double_init+0x98>)
10001fdc:	f7ff fb18 	bl	10001610 <rom_func_lookup>
10001fe0:	4b1a      	ldr	r3, [pc, #104]	@ (1000204c <__aeabi_double_init+0x9c>)
10001fe2:	6018      	str	r0, [r3, #0]
10001fe4:	bd70      	pop	{r4, r5, r6, pc}
10001fe6:	4b1a      	ldr	r3, [pc, #104]	@ (10002050 <__aeabi_double_init+0xa0>)
10001fe8:	4c16      	ldr	r4, [pc, #88]	@ (10002044 <__aeabi_double_init+0x94>)
10001fea:	64a3      	str	r3, [r4, #72]	@ 0x48
10001fec:	e7f5      	b.n	10001fda <__aeabi_double_init+0x2a>
10001fee:	4b18      	ldr	r3, [pc, #96]	@ (10002050 <__aeabi_double_init+0xa0>)
10001ff0:	4c14      	ldr	r4, [pc, #80]	@ (10002044 <__aeabi_double_init+0x94>)
10001ff2:	6023      	str	r3, [r4, #0]
10001ff4:	6063      	str	r3, [r4, #4]
10001ff6:	60a3      	str	r3, [r4, #8]
10001ff8:	60e3      	str	r3, [r4, #12]
10001ffa:	6123      	str	r3, [r4, #16]
10001ffc:	6163      	str	r3, [r4, #20]
10001ffe:	61a3      	str	r3, [r4, #24]
10002000:	61e3      	str	r3, [r4, #28]
10002002:	6223      	str	r3, [r4, #32]
10002004:	6263      	str	r3, [r4, #36]	@ 0x24
10002006:	62a3      	str	r3, [r4, #40]	@ 0x28
10002008:	62e3      	str	r3, [r4, #44]	@ 0x2c
1000200a:	6323      	str	r3, [r4, #48]	@ 0x30
1000200c:	6363      	str	r3, [r4, #52]	@ 0x34
1000200e:	63a3      	str	r3, [r4, #56]	@ 0x38
10002010:	63e3      	str	r3, [r4, #60]	@ 0x3c
10002012:	6423      	str	r3, [r4, #64]	@ 0x40
10002014:	6463      	str	r3, [r4, #68]	@ 0x44
10002016:	64a3      	str	r3, [r4, #72]	@ 0x48
10002018:	64e3      	str	r3, [r4, #76]	@ 0x4c
1000201a:	6523      	str	r3, [r4, #80]	@ 0x50
1000201c:	6563      	str	r3, [r4, #84]	@ 0x54
1000201e:	65a3      	str	r3, [r4, #88]	@ 0x58
10002020:	65e3      	str	r3, [r4, #92]	@ 0x5c
10002022:	6623      	str	r3, [r4, #96]	@ 0x60
10002024:	6663      	str	r3, [r4, #100]	@ 0x64
10002026:	66a3      	str	r3, [r4, #104]	@ 0x68
10002028:	66e3      	str	r3, [r4, #108]	@ 0x6c
1000202a:	6723      	str	r3, [r4, #112]	@ 0x70
1000202c:	6763      	str	r3, [r4, #116]	@ 0x74
1000202e:	67a3      	str	r3, [r4, #120]	@ 0x78
10002030:	67e3      	str	r3, [r4, #124]	@ 0x7c
10002032:	64a3      	str	r3, [r4, #72]	@ 0x48
10002034:	e7d1      	b.n	10001fda <__aeabi_double_init+0x2a>
10002036:	4b06      	ldr	r3, [pc, #24]	@ (10002050 <__aeabi_double_init+0xa0>)
10002038:	64a3      	str	r3, [r4, #72]	@ 0x48
1000203a:	e7ce      	b.n	10001fda <__aeabi_double_init+0x2a>
1000203c:	00004453 	.word	0x00004453
10002040:	00004653 	.word	0x00004653
10002044:	200012b8 	.word	0x200012b8
10002048:	0000334c 	.word	0x0000334c
1000204c:	20001f38 	.word	0x20001f38
10002050:	10002055 	.word	0x10002055

10002054 <double_table_shim_on_use_helper>:
10002054:	b507      	push	{r0, r1, r2, lr}
10002056:	4660      	mov	r0, ip
10002058:	8801      	ldrh	r1, [r0, #0]
1000205a:	0a0a      	lsrs	r2, r1, #8
1000205c:	3002      	adds	r0, #2
1000205e:	2adf      	cmp	r2, #223	@ 0xdf
10002060:	d1fa      	bne.n	10002058 <double_table_shim_on_use_helper+0x4>
10002062:	b2c9      	uxtb	r1, r1
10002064:	0882      	lsrs	r2, r0, #2
10002066:	d304      	bcc.n	10002072 <double_table_shim_on_use_helper+0x1e>
10002068:	8802      	ldrh	r2, [r0, #0]
1000206a:	8840      	ldrh	r0, [r0, #2]
1000206c:	0400      	lsls	r0, r0, #16
1000206e:	4310      	orrs	r0, r2
10002070:	e000      	b.n	10002074 <double_table_shim_on_use_helper+0x20>
10002072:	6800      	ldr	r0, [r0, #0]
10002074:	4a01      	ldr	r2, [pc, #4]	@ (1000207c <double_table_shim_on_use_helper+0x28>)
10002076:	5050      	str	r0, [r2, r1]
10002078:	9003      	str	r0, [sp, #12]
1000207a:	bd07      	pop	{r0, r1, r2, pc}
1000207c:	200012b8 	.word	0x200012b8

10002080 <drsub_shim>:
10002080:	b40f      	push	{r0, r1, r2, r3}
10002082:	bc03      	pop	{r0, r1}
10002084:	bc0c      	pop	{r2, r3}

10002086 <dsub_shim>:
10002086:	b5f0      	push	{r4, r5, r6, r7, lr}
10002088:	2401      	movs	r4, #1
1000208a:	07e4      	lsls	r4, r4, #31
1000208c:	4063      	eors	r3, r4
1000208e:	e000      	b.n	10002092 <da_entry>

10002090 <dadd_shim>:
10002090:	b5f0      	push	{r4, r5, r6, r7, lr}

10002092 <da_entry>:
10002092:	0d0c      	lsrs	r4, r1, #20
10002094:	0fcf      	lsrs	r7, r1, #31
10002096:	1e66      	subs	r6, r4, #1
10002098:	0536      	lsls	r6, r6, #20
1000209a:	1b89      	subs	r1, r1, r6
1000209c:	0564      	lsls	r4, r4, #21
1000209e:	d303      	bcc.n	100020a8 <l8_1>
100020a0:	43c9      	mvns	r1, r1
100020a2:	4240      	negs	r0, r0
100020a4:	d300      	bcc.n	100020a8 <l8_1>
100020a6:	3101      	adds	r1, #1

100020a8 <l8_1>:
100020a8:	0d64      	lsrs	r4, r4, #21
100020aa:	d003      	beq.n	100020b4 <l8_2>
100020ac:	1c66      	adds	r6, r4, #1
100020ae:	0af6      	lsrs	r6, r6, #11
100020b0:	d007      	beq.n	100020c2 <l8_3>
100020b2:	1be4      	subs	r4, r4, r7

100020b4 <l8_2>:
100020b4:	2000      	movs	r0, #0
100020b6:	007f      	lsls	r7, r7, #1
100020b8:	1c79      	adds	r1, r7, #1
100020ba:	0789      	lsls	r1, r1, #30
100020bc:	1289      	asrs	r1, r1, #10
100020be:	3c80      	subs	r4, #128	@ 0x80
100020c0:	0324      	lsls	r4, r4, #12

100020c2 <l8_3>:
100020c2:	0d1d      	lsrs	r5, r3, #20
100020c4:	0fdf      	lsrs	r7, r3, #31
100020c6:	1e6e      	subs	r6, r5, #1
100020c8:	0536      	lsls	r6, r6, #20
100020ca:	1b9b      	subs	r3, r3, r6
100020cc:	056d      	lsls	r5, r5, #21
100020ce:	d303      	bcc.n	100020d8 <l9_1>
100020d0:	43db      	mvns	r3, r3
100020d2:	4252      	negs	r2, r2
100020d4:	d300      	bcc.n	100020d8 <l9_1>
100020d6:	3301      	adds	r3, #1

100020d8 <l9_1>:
100020d8:	0d6d      	lsrs	r5, r5, #21
100020da:	d003      	beq.n	100020e4 <l9_2>
100020dc:	1c6e      	adds	r6, r5, #1
100020de:	0af6      	lsrs	r6, r6, #11
100020e0:	d007      	beq.n	100020f2 <l9_3>
100020e2:	1bed      	subs	r5, r5, r7

100020e4 <l9_2>:
100020e4:	2200      	movs	r2, #0
100020e6:	007f      	lsls	r7, r7, #1
100020e8:	1c7b      	adds	r3, r7, #1
100020ea:	079b      	lsls	r3, r3, #30
100020ec:	129b      	asrs	r3, r3, #10
100020ee:	3d80      	subs	r5, #128	@ 0x80
100020f0:	032d      	lsls	r5, r5, #12

100020f2 <l9_3>:
100020f2:	1b2f      	subs	r7, r5, r4
100020f4:	1b66      	subs	r6, r4, r5
100020f6:	d458      	bmi.n	100021aa <da_ygtx>
100020f8:	46a4      	mov	ip, r4
100020fa:	2e20      	cmp	r6, #32
100020fc:	da46      	bge.n	1000218c <da_xrgty>
100020fe:	3720      	adds	r7, #32
10002100:	0014      	movs	r4, r2
10002102:	40bc      	lsls	r4, r7

10002104 <da_xgty0>:
10002104:	001d      	movs	r5, r3
10002106:	40bd      	lsls	r5, r7
10002108:	40f2      	lsrs	r2, r6
1000210a:	4133      	asrs	r3, r6
1000210c:	432a      	orrs	r2, r5

1000210e <da_add>:
1000210e:	1880      	adds	r0, r0, r2
10002110:	4159      	adcs	r1, r3

10002112 <da_pack>:
10002112:	0fcb      	lsrs	r3, r1, #31
10002114:	d005      	beq.n	10002122 <da_pack+0x10>
10002116:	43c9      	mvns	r1, r1
10002118:	43c0      	mvns	r0, r0
1000211a:	2200      	movs	r2, #0
1000211c:	4264      	negs	r4, r4
1000211e:	4150      	adcs	r0, r2
10002120:	4151      	adcs	r1, r2
10002122:	4662      	mov	r2, ip
10002124:	0d4d      	lsrs	r5, r1, #21
10002126:	d128      	bne.n	1000217a <da_0>
10002128:	0d0d      	lsrs	r5, r1, #20
1000212a:	d107      	bne.n	1000213c <da_1>
1000212c:	2800      	cmp	r0, #0
1000212e:	d01f      	beq.n	10002170 <da_5>

10002130 <da_2>:
10002130:	1924      	adds	r4, r4, r4
10002132:	4140      	adcs	r0, r0
10002134:	4149      	adcs	r1, r1
10002136:	3a01      	subs	r2, #1
10002138:	0d0d      	lsrs	r5, r1, #20
1000213a:	d0f9      	beq.n	10002130 <da_2>

1000213c <da_1>:
1000213c:	0064      	lsls	r4, r4, #1
1000213e:	d306      	bcc.n	1000214e <da_3>

10002140 <da_4>:
10002140:	3001      	adds	r0, #1
10002142:	d300      	bcc.n	10002146 <da_4+0x6>
10002144:	3101      	adds	r1, #1
10002146:	2c00      	cmp	r4, #0
10002148:	d101      	bne.n	1000214e <da_3>
1000214a:	0840      	lsrs	r0, r0, #1
1000214c:	0040      	lsls	r0, r0, #1

1000214e <da_3>:
1000214e:	3a01      	subs	r2, #1
10002150:	d40b      	bmi.n	1000216a <da_6>
10002152:	1c94      	adds	r4, r2, #2
10002154:	0ae4      	lsrs	r4, r4, #11
10002156:	d104      	bne.n	10002162 <da_7>
10002158:	0512      	lsls	r2, r2, #20
1000215a:	4411      	add	r1, r2
1000215c:	07db      	lsls	r3, r3, #31
1000215e:	4419      	add	r1, r3
10002160:	bdf0      	pop	{r4, r5, r6, r7, pc}

10002162 <da_7>:
10002162:	07d9      	lsls	r1, r3, #31
10002164:	4b20      	ldr	r3, [pc, #128]	@ (100021e8 <da_xmgty+0x4>)
10002166:	4319      	orrs	r1, r3
10002168:	e000      	b.n	1000216c <da_6+0x2>

1000216a <da_6>:
1000216a:	07d9      	lsls	r1, r3, #31
1000216c:	2000      	movs	r0, #0
1000216e:	bdf0      	pop	{r4, r5, r6, r7, pc}

10002170 <da_5>:
10002170:	2900      	cmp	r1, #0
10002172:	d1dd      	bne.n	10002130 <da_2>
10002174:	2c00      	cmp	r4, #0
10002176:	d1db      	bne.n	10002130 <da_2>
10002178:	bdf0      	pop	{r4, r5, r6, r7, pc}

1000217a <da_0>:
1000217a:	3201      	adds	r2, #1
1000217c:	07c6      	lsls	r6, r0, #31
1000217e:	0840      	lsrs	r0, r0, #1
10002180:	07cd      	lsls	r5, r1, #31
10002182:	4328      	orrs	r0, r5
10002184:	0849      	lsrs	r1, r1, #1
10002186:	2e00      	cmp	r6, #0
10002188:	d0e1      	beq.n	1000214e <da_3>
1000218a:	e7d9      	b.n	10002140 <da_4>

1000218c <da_xrgty>:
1000218c:	2e3c      	cmp	r6, #60	@ 0x3c
1000218e:	da29      	bge.n	100021e4 <da_xmgty>
10002190:	3e20      	subs	r6, #32
10002192:	3740      	adds	r7, #64	@ 0x40
10002194:	0014      	movs	r4, r2
10002196:	40bc      	lsls	r4, r7
10002198:	d000      	beq.n	1000219c <da_xrgty+0x10>
1000219a:	2401      	movs	r4, #1
1000219c:	40f2      	lsrs	r2, r6
1000219e:	4314      	orrs	r4, r2
100021a0:	001a      	movs	r2, r3
100021a2:	40bb      	lsls	r3, r7
100021a4:	431c      	orrs	r4, r3
100021a6:	17d3      	asrs	r3, r2, #31
100021a8:	e7ac      	b.n	10002104 <da_xgty0>

100021aa <da_ygtx>:
100021aa:	46ac      	mov	ip, r5
100021ac:	2f20      	cmp	r7, #32
100021ae:	da08      	bge.n	100021c2 <da_yrgtx>
100021b0:	3620      	adds	r6, #32
100021b2:	0004      	movs	r4, r0
100021b4:	40b4      	lsls	r4, r6

100021b6 <da_ygtx0>:
100021b6:	000d      	movs	r5, r1
100021b8:	40b5      	lsls	r5, r6
100021ba:	40f8      	lsrs	r0, r7
100021bc:	4139      	asrs	r1, r7
100021be:	4328      	orrs	r0, r5
100021c0:	e7a5      	b.n	1000210e <da_add>

100021c2 <da_yrgtx>:
100021c2:	2f3c      	cmp	r7, #60	@ 0x3c
100021c4:	da0c      	bge.n	100021e0 <da_ymgtx>
100021c6:	3f20      	subs	r7, #32
100021c8:	3640      	adds	r6, #64	@ 0x40
100021ca:	0004      	movs	r4, r0
100021cc:	40b4      	lsls	r4, r6
100021ce:	d000      	beq.n	100021d2 <da_yrgtx+0x10>
100021d0:	2401      	movs	r4, #1
100021d2:	40f8      	lsrs	r0, r7
100021d4:	4304      	orrs	r4, r0
100021d6:	0008      	movs	r0, r1
100021d8:	40b1      	lsls	r1, r6
100021da:	430c      	orrs	r4, r1
100021dc:	17c1      	asrs	r1, r0, #31
100021de:	e7ea      	b.n	100021b6 <da_ygtx0>

100021e0 <da_ymgtx>:
100021e0:	0010      	movs	r0, r2
100021e2:	0019      	movs	r1, r3

100021e4 <da_xmgty>:
100021e4:	2400      	movs	r4, #0
100021e6:	e794      	b.n	10002112 <da_pack>
100021e8:	7ff00000 	.word	0x7ff00000

100021ec <dmul_shim>:
100021ec:	b5f0      	push	{r4, r5, r6, r7, lr}
100021ee:	0d0c      	lsrs	r4, r1, #20
100021f0:	1e66      	subs	r6, r4, #1
100021f2:	0536      	lsls	r6, r6, #20
100021f4:	1b89      	subs	r1, r1, r6
100021f6:	0ae6      	lsrs	r6, r4, #11
100021f8:	0564      	lsls	r4, r4, #21
100021fa:	0d64      	lsrs	r4, r4, #21
100021fc:	d002      	beq.n	10002204 <l12_1>
100021fe:	1c65      	adds	r5, r4, #1
10002200:	0aed      	lsrs	r5, r5, #11
10002202:	d004      	beq.n	1000220e <l12_2>

10002204 <l12_1>:
10002204:	2000      	movs	r0, #0
10002206:	2101      	movs	r1, #1
10002208:	0509      	lsls	r1, r1, #20
1000220a:	3c80      	subs	r4, #128	@ 0x80
1000220c:	0324      	lsls	r4, r4, #12

1000220e <l12_2>:
1000220e:	46a4      	mov	ip, r4
10002210:	0d1c      	lsrs	r4, r3, #20
10002212:	1e67      	subs	r7, r4, #1
10002214:	053f      	lsls	r7, r7, #20
10002216:	1bdb      	subs	r3, r3, r7
10002218:	0ae7      	lsrs	r7, r4, #11
1000221a:	0564      	lsls	r4, r4, #21
1000221c:	0d64      	lsrs	r4, r4, #21
1000221e:	d002      	beq.n	10002226 <l13_1>
10002220:	1c65      	adds	r5, r4, #1
10002222:	0aed      	lsrs	r5, r5, #11
10002224:	d004      	beq.n	10002230 <l13_2>

10002226 <l13_1>:
10002226:	2200      	movs	r2, #0
10002228:	2301      	movs	r3, #1
1000222a:	051b      	lsls	r3, r3, #20
1000222c:	3c80      	subs	r4, #128	@ 0x80
1000222e:	0324      	lsls	r4, r4, #12

10002230 <l13_2>:
10002230:	4077      	eors	r7, r6
10002232:	4464      	add	r4, ip
10002234:	b497      	push	{r0, r1, r2, r4, r7}
10002236:	b284      	uxth	r4, r0
10002238:	b296      	uxth	r6, r2
1000223a:	4374      	muls	r4, r6
1000223c:	0c07      	lsrs	r7, r0, #16
1000223e:	437e      	muls	r6, r7
10002240:	0c15      	lsrs	r5, r2, #16
10002242:	436f      	muls	r7, r5
10002244:	b280      	uxth	r0, r0
10002246:	4368      	muls	r0, r5
10002248:	1836      	adds	r6, r6, r0
1000224a:	d302      	bcc.n	10002252 <l14_1>
1000224c:	2001      	movs	r0, #1
1000224e:	0400      	lsls	r0, r0, #16
10002250:	183f      	adds	r7, r7, r0

10002252 <l14_1>:
10002252:	0430      	lsls	r0, r6, #16
10002254:	0c35      	lsrs	r5, r6, #16
10002256:	1900      	adds	r0, r0, r4
10002258:	417d      	adcs	r5, r7
1000225a:	4684      	mov	ip, r0
1000225c:	b288      	uxth	r0, r1
1000225e:	b29a      	uxth	r2, r3
10002260:	4350      	muls	r0, r2
10002262:	0c0c      	lsrs	r4, r1, #16
10002264:	4362      	muls	r2, r4
10002266:	0c1f      	lsrs	r7, r3, #16
10002268:	437c      	muls	r4, r7
1000226a:	b28e      	uxth	r6, r1
1000226c:	437e      	muls	r6, r7
1000226e:	1992      	adds	r2, r2, r6
10002270:	d302      	bcc.n	10002278 <l15_1>
10002272:	2601      	movs	r6, #1
10002274:	0436      	lsls	r6, r6, #16
10002276:	19a4      	adds	r4, r4, r6

10002278 <l15_1>:
10002278:	0416      	lsls	r6, r2, #16
1000227a:	0c17      	lsrs	r7, r2, #16
1000227c:	1836      	adds	r6, r6, r0
1000227e:	4167      	adcs	r7, r4
10002280:	bc01      	pop	{r0}
10002282:	b281      	uxth	r1, r0
10002284:	b29a      	uxth	r2, r3
10002286:	4351      	muls	r1, r2
10002288:	0c04      	lsrs	r4, r0, #16
1000228a:	4362      	muls	r2, r4
1000228c:	0c1b      	lsrs	r3, r3, #16
1000228e:	435c      	muls	r4, r3
10002290:	b280      	uxth	r0, r0
10002292:	4358      	muls	r0, r3
10002294:	1812      	adds	r2, r2, r0
10002296:	d302      	bcc.n	1000229e <l16_1>
10002298:	2001      	movs	r0, #1
1000229a:	0400      	lsls	r0, r0, #16
1000229c:	1824      	adds	r4, r4, r0

1000229e <l16_1>:
1000229e:	0410      	lsls	r0, r2, #16
100022a0:	0c13      	lsrs	r3, r2, #16
100022a2:	1840      	adds	r0, r0, r1
100022a4:	4163      	adcs	r3, r4
100022a6:	182d      	adds	r5, r5, r0
100022a8:	415e      	adcs	r6, r3
100022aa:	2000      	movs	r0, #0
100022ac:	4147      	adcs	r7, r0
100022ae:	bc06      	pop	{r1, r2}
100022b0:	b288      	uxth	r0, r1
100022b2:	b293      	uxth	r3, r2
100022b4:	4358      	muls	r0, r3
100022b6:	0c0c      	lsrs	r4, r1, #16
100022b8:	4363      	muls	r3, r4
100022ba:	0c12      	lsrs	r2, r2, #16
100022bc:	4354      	muls	r4, r2
100022be:	b289      	uxth	r1, r1
100022c0:	4351      	muls	r1, r2
100022c2:	185b      	adds	r3, r3, r1
100022c4:	d302      	bcc.n	100022cc <l17_1>
100022c6:	2101      	movs	r1, #1
100022c8:	0409      	lsls	r1, r1, #16
100022ca:	1864      	adds	r4, r4, r1

100022cc <l17_1>:
100022cc:	0419      	lsls	r1, r3, #16
100022ce:	0c1a      	lsrs	r2, r3, #16
100022d0:	1809      	adds	r1, r1, r0
100022d2:	4162      	adcs	r2, r4
100022d4:	186d      	adds	r5, r5, r1
100022d6:	4156      	adcs	r6, r2
100022d8:	2000      	movs	r0, #0
100022da:	4147      	adcs	r7, r0
100022dc:	bc18      	pop	{r3, r4}
100022de:	02f9      	lsls	r1, r7, #11
100022e0:	0d72      	lsrs	r2, r6, #21
100022e2:	4311      	orrs	r1, r2
100022e4:	02f0      	lsls	r0, r6, #11
100022e6:	0d6a      	lsrs	r2, r5, #21
100022e8:	4310      	orrs	r0, r2
100022ea:	02ed      	lsls	r5, r5, #11
100022ec:	0d0a      	lsrs	r2, r1, #20
100022ee:	d103      	bne.n	100022f8 <l17_1+0x2c>
100022f0:	196d      	adds	r5, r5, r5
100022f2:	4140      	adcs	r0, r0
100022f4:	4149      	adcs	r1, r1
100022f6:	3b01      	subs	r3, #1
100022f8:	4e12      	ldr	r6, [pc, #72]	@ (10002344 <dm_1+0xa>)
100022fa:	1b9b      	subs	r3, r3, r6
100022fc:	0076      	lsls	r6, r6, #1
100022fe:	42b3      	cmp	r3, r6
10002300:	d20e      	bcs.n	10002320 <dm_0>
10002302:	006d      	lsls	r5, r5, #1
10002304:	d307      	bcc.n	10002316 <l17_1+0x4a>
10002306:	3001      	adds	r0, #1
10002308:	2600      	movs	r6, #0
1000230a:	4171      	adcs	r1, r6
1000230c:	4666      	mov	r6, ip
1000230e:	4335      	orrs	r5, r6
10002310:	d101      	bne.n	10002316 <l17_1+0x4a>
10002312:	0840      	lsrs	r0, r0, #1
10002314:	0040      	lsls	r0, r0, #1
10002316:	051b      	lsls	r3, r3, #20
10002318:	18c9      	adds	r1, r1, r3

1000231a <dm_2>:
1000231a:	07e4      	lsls	r4, r4, #31
1000231c:	4421      	add	r1, r4
1000231e:	bdf0      	pop	{r4, r5, r6, r7, pc}

10002320 <dm_0>:
10002320:	da0b      	bge.n	1000233a <dm_1>
10002322:	3301      	adds	r3, #1
10002324:	d106      	bne.n	10002334 <dm_0+0x14>
10002326:	3001      	adds	r0, #1
10002328:	d104      	bne.n	10002334 <dm_0+0x14>
1000232a:	3101      	adds	r1, #1
1000232c:	0d4f      	lsrs	r7, r1, #21
1000232e:	d001      	beq.n	10002334 <dm_0+0x14>
10002330:	0849      	lsrs	r1, r1, #1
10002332:	e7f2      	b.n	1000231a <dm_2>
10002334:	07e1      	lsls	r1, r4, #31
10002336:	2000      	movs	r0, #0
10002338:	bdf0      	pop	{r4, r5, r6, r7, pc}

1000233a <dm_1>:
1000233a:	3601      	adds	r6, #1
1000233c:	0531      	lsls	r1, r6, #20
1000233e:	2000      	movs	r0, #0
10002340:	e7eb      	b.n	1000231a <dm_2>
10002342:	0000      	.short	0x0000
10002344:	000003ff 	.word	0x000003ff

10002348 <ddiv_shim>:
10002348:	b5f0      	push	{r4, r5, r6, r7, lr}

1000234a <ddiv0>:
1000234a:	0d1c      	lsrs	r4, r3, #20
1000234c:	1e67      	subs	r7, r4, #1
1000234e:	053f      	lsls	r7, r7, #20
10002350:	1bdb      	subs	r3, r3, r7
10002352:	0ae7      	lsrs	r7, r4, #11
10002354:	0564      	lsls	r4, r4, #21
10002356:	0d64      	lsrs	r4, r4, #21
10002358:	d002      	beq.n	10002360 <l20_1>
1000235a:	1c66      	adds	r6, r4, #1
1000235c:	0af6      	lsrs	r6, r6, #11
1000235e:	d004      	beq.n	1000236a <l20_2>

10002360 <l20_1>:
10002360:	2200      	movs	r2, #0
10002362:	2301      	movs	r3, #1
10002364:	051b      	lsls	r3, r3, #20
10002366:	3c80      	subs	r4, #128	@ 0x80
10002368:	0324      	lsls	r4, r4, #12

1000236a <l20_2>:
1000236a:	25d0      	movs	r5, #208	@ 0xd0
1000236c:	062d      	lsls	r5, r5, #24
1000236e:	2600      	movs	r6, #0
10002370:	43f6      	mvns	r6, r6
10002372:	662e      	str	r6, [r5, #96]	@ 0x60
10002374:	091e      	lsrs	r6, r3, #4
10002376:	666e      	str	r6, [r5, #100]	@ 0x64
10002378:	0fce      	lsrs	r6, r1, #31
1000237a:	19f6      	adds	r6, r6, r7
1000237c:	46b4      	mov	ip, r6
1000237e:	0049      	lsls	r1, r1, #1
10002380:	0d4f      	lsrs	r7, r1, #21
10002382:	d002      	beq.n	1000238a <l20_2+0x20>
10002384:	1c7e      	adds	r6, r7, #1
10002386:	0af6      	lsrs	r6, r6, #11
10002388:	d003      	beq.n	10002392 <l20_2+0x28>
1000238a:	2000      	movs	r0, #0
1000238c:	2100      	movs	r1, #0
1000238e:	3f40      	subs	r7, #64	@ 0x40
10002390:	033f      	lsls	r7, r7, #12
10002392:	1b3e      	subs	r6, r7, r4
10002394:	00b6      	lsls	r6, r6, #2
10002396:	44b4      	add	ip, r6
10002398:	3f01      	subs	r7, #1
1000239a:	057f      	lsls	r7, r7, #21
1000239c:	1bc9      	subs	r1, r1, r7
1000239e:	0849      	lsrs	r1, r1, #1
100023a0:	6f2e      	ldr	r6, [r5, #112]	@ 0x70
100023a2:	3601      	adds	r6, #1
100023a4:	0876      	lsrs	r6, r6, #1
100023a6:	029c      	lsls	r4, r3, #10
100023a8:	0d95      	lsrs	r5, r2, #22
100023aa:	4325      	orrs	r5, r4
100023ac:	4375      	muls	r5, r6
100023ae:	13ed      	asrs	r5, r5, #15
100023b0:	4375      	muls	r5, r6
100023b2:	13ad      	asrs	r5, r5, #14
100023b4:	3501      	adds	r5, #1
100023b6:	106d      	asrs	r5, r5, #1
100023b8:	03f6      	lsls	r6, r6, #15
100023ba:	1b76      	subs	r6, r6, r5
100023bc:	b40c      	push	{r2, r3}
100023be:	02cc      	lsls	r4, r1, #11
100023c0:	0d45      	lsrs	r5, r0, #21
100023c2:	432c      	orrs	r4, r5
100023c4:	b2a2      	uxth	r2, r4
100023c6:	b2b3      	uxth	r3, r6
100023c8:	435a      	muls	r2, r3
100023ca:	0c27      	lsrs	r7, r4, #16
100023cc:	437b      	muls	r3, r7
100023ce:	0c35      	lsrs	r5, r6, #16
100023d0:	436f      	muls	r7, r5
100023d2:	b2a4      	uxth	r4, r4
100023d4:	436c      	muls	r4, r5
100023d6:	191b      	adds	r3, r3, r4
100023d8:	d302      	bcc.n	100023e0 <l21_1>
100023da:	2401      	movs	r4, #1
100023dc:	0424      	lsls	r4, r4, #16
100023de:	193f      	adds	r7, r7, r4

100023e0 <l21_1>:
100023e0:	041c      	lsls	r4, r3, #16
100023e2:	0c1d      	lsrs	r5, r3, #16
100023e4:	18a4      	adds	r4, r4, r2
100023e6:	417d      	adcs	r5, r7
100023e8:	1924      	adds	r4, r4, r4
100023ea:	416d      	adcs	r5, r5
100023ec:	9a00      	ldr	r2, [sp, #0]
100023ee:	b291      	uxth	r1, r2
100023f0:	b2ac      	uxth	r4, r5
100023f2:	4361      	muls	r1, r4
100023f4:	0c17      	lsrs	r7, r2, #16
100023f6:	437c      	muls	r4, r7
100023f8:	0c2b      	lsrs	r3, r5, #16
100023fa:	435f      	muls	r7, r3
100023fc:	b292      	uxth	r2, r2
100023fe:	435a      	muls	r2, r3
10002400:	18a4      	adds	r4, r4, r2
10002402:	d302      	bcc.n	1000240a <l22_1>
10002404:	2201      	movs	r2, #1
10002406:	0412      	lsls	r2, r2, #16
10002408:	18bf      	adds	r7, r7, r2

1000240a <l22_1>:
1000240a:	0422      	lsls	r2, r4, #16
1000240c:	0c23      	lsrs	r3, r4, #16
1000240e:	1852      	adds	r2, r2, r1
10002410:	417b      	adcs	r3, r7
10002412:	9c01      	ldr	r4, [sp, #4]
10002414:	436c      	muls	r4, r5
10002416:	191b      	adds	r3, r3, r4
10002418:	0e52      	lsrs	r2, r2, #25
1000241a:	01d9      	lsls	r1, r3, #7
1000241c:	430a      	orrs	r2, r1
1000241e:	0144      	lsls	r4, r0, #5
10002420:	1aa0      	subs	r0, r4, r2
10002422:	b281      	uxth	r1, r0
10002424:	b2b2      	uxth	r2, r6
10002426:	4351      	muls	r1, r2
10002428:	1403      	asrs	r3, r0, #16
1000242a:	435a      	muls	r2, r3
1000242c:	0c36      	lsrs	r6, r6, #16
1000242e:	4373      	muls	r3, r6
10002430:	b287      	uxth	r7, r0
10002432:	4377      	muls	r7, r6
10002434:	17d6      	asrs	r6, r2, #31
10002436:	19d2      	adds	r2, r2, r7
10002438:	2700      	movs	r7, #0
1000243a:	417e      	adcs	r6, r7
1000243c:	0436      	lsls	r6, r6, #16
1000243e:	199b      	adds	r3, r3, r6
10002440:	0417      	lsls	r7, r2, #16
10002442:	0c16      	lsrs	r6, r2, #16
10002444:	187f      	adds	r7, r7, r1
10002446:	415e      	adcs	r6, r3
10002448:	1673      	asrs	r3, r6, #25
1000244a:	18ed      	adds	r5, r5, r3
1000244c:	01f3      	lsls	r3, r6, #7
1000244e:	2600      	movs	r6, #0
10002450:	3380      	adds	r3, #128	@ 0x80
10002452:	4175      	adcs	r5, r6
10002454:	0fa9      	lsrs	r1, r5, #30
10002456:	d106      	bne.n	10002466 <dd_0>
10002458:	0064      	lsls	r4, r4, #1
1000245a:	0a69      	lsrs	r1, r5, #9
1000245c:	05e8      	lsls	r0, r5, #23
1000245e:	0a5b      	lsrs	r3, r3, #9
10002460:	4318      	orrs	r0, r3
10002462:	d209      	bcs.n	10002478 <dd_1>
10002464:	e02f      	b.n	100024c6 <dd_2>

10002466 <dd_0>:
10002466:	2204      	movs	r2, #4
10002468:	4494      	add	ip, r2
1000246a:	3380      	adds	r3, #128	@ 0x80
1000246c:	4175      	adcs	r5, r6
1000246e:	0aa9      	lsrs	r1, r5, #10
10002470:	05a8      	lsls	r0, r5, #22
10002472:	0a9b      	lsrs	r3, r3, #10
10002474:	4318      	orrs	r0, r3
10002476:	d326      	bcc.n	100024c6 <dd_2>

10002478 <dd_1>:
10002478:	4140      	adcs	r0, r0
1000247a:	4149      	adcs	r1, r1
1000247c:	0424      	lsls	r4, r4, #16
1000247e:	9a00      	ldr	r2, [sp, #0]
10002480:	9b01      	ldr	r3, [sp, #4]
10002482:	000d      	movs	r5, r1
10002484:	4355      	muls	r5, r2
10002486:	1b64      	subs	r4, r4, r5
10002488:	4343      	muls	r3, r0
1000248a:	1ae4      	subs	r4, r4, r3
1000248c:	b295      	uxth	r5, r2
1000248e:	b286      	uxth	r6, r0
10002490:	4375      	muls	r5, r6
10002492:	0c17      	lsrs	r7, r2, #16
10002494:	437e      	muls	r6, r7
10002496:	0c03      	lsrs	r3, r0, #16
10002498:	435f      	muls	r7, r3
1000249a:	b292      	uxth	r2, r2
1000249c:	435a      	muls	r2, r3
1000249e:	18b6      	adds	r6, r6, r2
100024a0:	d302      	bcc.n	100024a8 <l24_1>
100024a2:	2201      	movs	r2, #1
100024a4:	0412      	lsls	r2, r2, #16
100024a6:	18bf      	adds	r7, r7, r2

100024a8 <l24_1>:
100024a8:	0432      	lsls	r2, r6, #16
100024aa:	0c33      	lsrs	r3, r6, #16
100024ac:	1952      	adds	r2, r2, r5
100024ae:	417b      	adcs	r3, r7
100024b0:	4252      	negs	r2, r2
100024b2:	419c      	sbcs	r4, r3
100024b4:	2c00      	cmp	r4, #0
100024b6:	d402      	bmi.n	100024be <l24_1+0x16>
100024b8:	2200      	movs	r2, #0
100024ba:	3001      	adds	r0, #1
100024bc:	4151      	adcs	r1, r2
100024be:	0840      	lsrs	r0, r0, #1
100024c0:	07ca      	lsls	r2, r1, #31
100024c2:	4310      	orrs	r0, r2
100024c4:	0849      	lsrs	r1, r1, #1

100024c6 <dd_2>:
100024c6:	b002      	add	sp, #8
100024c8:	4662      	mov	r2, ip
100024ca:	07d7      	lsls	r7, r2, #31
100024cc:	1092      	asrs	r2, r2, #2
100024ce:	4b08      	ldr	r3, [pc, #32]	@ (100024f0 <dd_4+0x6>)
100024d0:	18d2      	adds	r2, r2, r3
100024d2:	4b08      	ldr	r3, [pc, #32]	@ (100024f4 <dd_4+0xa>)
100024d4:	429a      	cmp	r2, r3
100024d6:	d203      	bcs.n	100024e0 <dd_3>
100024d8:	0512      	lsls	r2, r2, #20
100024da:	1889      	adds	r1, r1, r2

100024dc <dd_5>:
100024dc:	19c9      	adds	r1, r1, r7
100024de:	bdf0      	pop	{r4, r5, r6, r7, pc}

100024e0 <dd_3>:
100024e0:	2000      	movs	r0, #0
100024e2:	2a00      	cmp	r2, #0
100024e4:	dc01      	bgt.n	100024ea <dd_4>
100024e6:	0039      	movs	r1, r7
100024e8:	bdf0      	pop	{r4, r5, r6, r7, pc}

100024ea <dd_4>:
100024ea:	3301      	adds	r3, #1
100024ec:	0519      	lsls	r1, r3, #20
100024ee:	e7f5      	b.n	100024dc <dd_5>
100024f0:	000003fd 	.word	0x000003fd
100024f4:	000007fe 	.word	0x000007fe

100024f8 <double2uint_shim>:
100024f8:	2200      	movs	r2, #0

100024fa <double2ufix_shim>:
100024fa:	b500      	push	{lr}
100024fc:	3220      	adds	r2, #32
100024fe:	f000 f804 	bl	1000250a <double2ufix64_shim>
10002502:	0008      	movs	r0, r1
10002504:	bd00      	pop	{pc}
	...

10002508 <double2uint64_shim>:
10002508:	2200      	movs	r2, #0

1000250a <double2ufix64_shim>:
1000250a:	150b      	asrs	r3, r1, #20
1000250c:	d40a      	bmi.n	10002524 <ret_dzero>

1000250e <d2fix>:
1000250e:	b510      	push	{r4, lr}
10002510:	4694      	mov	ip, r2
10002512:	f000 f831 	bl	10002578 <dunpacks>
10002516:	1414      	asrs	r4, r2, #16
10002518:	3401      	adds	r4, #1
1000251a:	da00      	bge.n	1000251e <d2fix+0x10>
1000251c:	2100      	movs	r1, #0
1000251e:	17cb      	asrs	r3, r1, #31
10002520:	4c14      	ldr	r4, [pc, #80]	@ (10002574 <d2fix_a+0x4a>)
10002522:	4720      	bx	r4

10002524 <ret_dzero>:
10002524:	2000      	movs	r0, #0
10002526:	2100      	movs	r1, #0
10002528:	4770      	bx	lr

1000252a <d2fix_a>:
1000252a:	4462      	add	r2, ip
1000252c:	3a34      	subs	r2, #52	@ 0x34
1000252e:	d40c      	bmi.n	1000254a <d2fix_a+0x20>
10002530:	2a0c      	cmp	r2, #12
10002532:	da07      	bge.n	10002544 <d2fix_a+0x1a>
10002534:	0004      	movs	r4, r0
10002536:	4091      	lsls	r1, r2
10002538:	4090      	lsls	r0, r2
1000253a:	4252      	negs	r2, r2
1000253c:	3220      	adds	r2, #32
1000253e:	40d4      	lsrs	r4, r2
10002540:	4321      	orrs	r1, r4
10002542:	bd10      	pop	{r4, pc}
10002544:	43d8      	mvns	r0, r3
10002546:	43d9      	mvns	r1, r3
10002548:	bd10      	pop	{r4, pc}
1000254a:	3220      	adds	r2, #32
1000254c:	d407      	bmi.n	1000255e <d2fix_a+0x34>
1000254e:	460c      	mov	r4, r1
10002550:	4094      	lsls	r4, r2
10002552:	4252      	negs	r2, r2
10002554:	3220      	adds	r2, #32
10002556:	4111      	asrs	r1, r2
10002558:	40d0      	lsrs	r0, r2
1000255a:	4320      	orrs	r0, r4
1000255c:	bd10      	pop	{r4, pc}
1000255e:	0008      	movs	r0, r1
10002560:	17c9      	asrs	r1, r1, #31
10002562:	3220      	adds	r2, #32
10002564:	d403      	bmi.n	1000256e <d2fix_a+0x44>
10002566:	4252      	negs	r2, r2
10002568:	3220      	adds	r2, #32
1000256a:	4110      	asrs	r0, r2
1000256c:	bd10      	pop	{r4, pc}
1000256e:	0018      	movs	r0, r3
10002570:	0019      	movs	r1, r3
10002572:	bd10      	pop	{r4, pc}
10002574:	1000252b 	.word	0x1000252b

10002578 <dunpacks>:
10002578:	0d0a      	lsrs	r2, r1, #20
1000257a:	0fcc      	lsrs	r4, r1, #31
1000257c:	1e53      	subs	r3, r2, #1
1000257e:	051b      	lsls	r3, r3, #20
10002580:	1ac9      	subs	r1, r1, r3
10002582:	0552      	lsls	r2, r2, #21
10002584:	d303      	bcc.n	1000258e <l60_1>
10002586:	43c9      	mvns	r1, r1
10002588:	4240      	negs	r0, r0
1000258a:	d300      	bcc.n	1000258e <l60_1>
1000258c:	3101      	adds	r1, #1

1000258e <l60_1>:
1000258e:	0d52      	lsrs	r2, r2, #21
10002590:	d003      	beq.n	1000259a <l60_2>
10002592:	1c53      	adds	r3, r2, #1
10002594:	0adb      	lsrs	r3, r3, #11
10002596:	d007      	beq.n	100025a8 <l60_3>
10002598:	1b12      	subs	r2, r2, r4

1000259a <l60_2>:
1000259a:	2000      	movs	r0, #0
1000259c:	0064      	lsls	r4, r4, #1
1000259e:	1c61      	adds	r1, r4, #1
100025a0:	0789      	lsls	r1, r1, #30
100025a2:	1289      	asrs	r1, r1, #10
100025a4:	3a80      	subs	r2, #128	@ 0x80
100025a6:	0312      	lsls	r2, r2, #12

100025a8 <l60_3>:
100025a8:	4b01      	ldr	r3, [pc, #4]	@ (100025b0 <l60_3+0x8>)
100025aa:	1ad2      	subs	r2, r2, r3
100025ac:	4770      	bx	lr
100025ae:	0000      	.short	0x0000
100025b0:	000003ff 	.word	0x000003ff

100025b4 <__wrap___aeabi_lmul>:
100025b4:	4351      	muls	r1, r2
100025b6:	4343      	muls	r3, r0
100025b8:	18c9      	adds	r1, r1, r3
100025ba:	468c      	mov	ip, r1
100025bc:	0c11      	lsrs	r1, r2, #16
100025be:	b283      	uxth	r3, r0
100025c0:	434b      	muls	r3, r1
100025c2:	b410      	push	{r4}
100025c4:	0c04      	lsrs	r4, r0, #16
100025c6:	4361      	muls	r1, r4
100025c8:	b292      	uxth	r2, r2
100025ca:	b280      	uxth	r0, r0
100025cc:	4350      	muls	r0, r2
100025ce:	4362      	muls	r2, r4
100025d0:	041c      	lsls	r4, r3, #16
100025d2:	0c1b      	lsrs	r3, r3, #16
100025d4:	1900      	adds	r0, r0, r4
100025d6:	bc10      	pop	{r4}
100025d8:	4159      	adcs	r1, r3
100025da:	0413      	lsls	r3, r2, #16
100025dc:	0c12      	lsrs	r2, r2, #16
100025de:	18c0      	adds	r0, r0, r3
100025e0:	4151      	adcs	r1, r2
100025e2:	4461      	add	r1, ip
100025e4:	4770      	bx	lr
	...

100025e8 <__aeabi_float_init>:
100025e8:	2313      	movs	r3, #19
100025ea:	b510      	push	{r4, lr}
100025ec:	781c      	ldrb	r4, [r3, #0]
100025ee:	4813      	ldr	r0, [pc, #76]	@ (1000263c <__aeabi_float_init+0x54>)
100025f0:	f7ff f816 	bl	10001620 <rom_data_lookup>
100025f4:	2c01      	cmp	r4, #1
100025f6:	d00b      	beq.n	10002610 <__aeabi_float_init+0x28>
100025f8:	dd04      	ble.n	10002604 <__aeabi_float_init+0x1c>
100025fa:	0001      	movs	r1, r0
100025fc:	2280      	movs	r2, #128	@ 0x80
100025fe:	4810      	ldr	r0, [pc, #64]	@ (10002640 <__aeabi_float_init+0x58>)
10002600:	f000 f84a 	bl	10002698 <__wrap___aeabi_memcpy>
10002604:	480f      	ldr	r0, [pc, #60]	@ (10002644 <__aeabi_float_init+0x5c>)
10002606:	f7ff f803 	bl	10001610 <rom_func_lookup>
1000260a:	4b0f      	ldr	r3, [pc, #60]	@ (10002648 <__aeabi_float_init+0x60>)
1000260c:	6018      	str	r0, [r3, #0]
1000260e:	bd10      	pop	{r4, pc}
10002610:	4c0b      	ldr	r4, [pc, #44]	@ (10002640 <__aeabi_float_init+0x58>)
10002612:	0001      	movs	r1, r0
10002614:	2254      	movs	r2, #84	@ 0x54
10002616:	0020      	movs	r0, r4
10002618:	f000 f83e 	bl	10002698 <__wrap___aeabi_memcpy>
1000261c:	4b0b      	ldr	r3, [pc, #44]	@ (1000264c <__aeabi_float_init+0x64>)
1000261e:	6563      	str	r3, [r4, #84]	@ 0x54
10002620:	65a3      	str	r3, [r4, #88]	@ 0x58
10002622:	65e3      	str	r3, [r4, #92]	@ 0x5c
10002624:	6623      	str	r3, [r4, #96]	@ 0x60
10002626:	6663      	str	r3, [r4, #100]	@ 0x64
10002628:	66a3      	str	r3, [r4, #104]	@ 0x68
1000262a:	66e3      	str	r3, [r4, #108]	@ 0x6c
1000262c:	6723      	str	r3, [r4, #112]	@ 0x70
1000262e:	6763      	str	r3, [r4, #116]	@ 0x74
10002630:	67a3      	str	r3, [r4, #120]	@ 0x78
10002632:	67e3      	str	r3, [r4, #124]	@ 0x7c
10002634:	6223      	str	r3, [r4, #32]
10002636:	61e3      	str	r3, [r4, #28]
10002638:	e7e4      	b.n	10002604 <__aeabi_float_init+0x1c>
1000263a:	46c0      	nop			@ (mov r8, r8)
1000263c:	00004653 	.word	0x00004653
10002640:	200013b8 	.word	0x200013b8
10002644:	0000334c 	.word	0x0000334c
10002648:	20001f38 	.word	0x20001f38
1000264c:	10002651 	.word	0x10002651

10002650 <float_table_shim_on_use_helper>:
10002650:	b507      	push	{r0, r1, r2, lr}
10002652:	4660      	mov	r0, ip
10002654:	8801      	ldrh	r1, [r0, #0]
10002656:	0a0a      	lsrs	r2, r1, #8
10002658:	3002      	adds	r0, #2
1000265a:	2adf      	cmp	r2, #223	@ 0xdf
1000265c:	d1fa      	bne.n	10002654 <float_table_shim_on_use_helper+0x4>
1000265e:	b2c9      	uxtb	r1, r1
10002660:	0882      	lsrs	r2, r0, #2
10002662:	d304      	bcc.n	1000266e <float_table_shim_on_use_helper+0x1e>
10002664:	8802      	ldrh	r2, [r0, #0]
10002666:	8840      	ldrh	r0, [r0, #2]
10002668:	0400      	lsls	r0, r0, #16
1000266a:	4310      	orrs	r0, r2
1000266c:	e000      	b.n	10002670 <float_table_shim_on_use_helper+0x20>
1000266e:	6800      	ldr	r0, [r0, #0]
10002670:	4a01      	ldr	r2, [pc, #4]	@ (10002678 <float_table_shim_on_use_helper+0x28>)
10002672:	5050      	str	r0, [r2, r1]
10002674:	9003      	str	r0, [sp, #12]
10002676:	bd07      	pop	{r0, r1, r2, pc}
10002678:	200013b8 	.word	0x200013b8

1000267c <__aeabi_mem_init>:
1000267c:	4801      	ldr	r0, [pc, #4]	@ (10002684 <__aeabi_mem_init+0x8>)
1000267e:	2104      	movs	r1, #4
10002680:	4b01      	ldr	r3, [pc, #4]	@ (10002688 <__aeabi_mem_init+0xc>)
10002682:	4718      	bx	r3
10002684:	20001010 	.word	0x20001010
10002688:	10001631 	.word	0x10001631

1000268c <__wrap_memset>:
1000268c:	4b01      	ldr	r3, [pc, #4]	@ (10002694 <__wrap_memset+0x8>)
1000268e:	681b      	ldr	r3, [r3, #0]
10002690:	4718      	bx	r3
10002692:	0000      	.short	0x0000
10002694:	20001010 	.word	0x20001010

10002698 <__wrap___aeabi_memcpy>:
10002698:	4b01      	ldr	r3, [pc, #4]	@ (100026a0 <__wrap___aeabi_memcpy+0x8>)
1000269a:	685b      	ldr	r3, [r3, #4]
1000269c:	4718      	bx	r3
1000269e:	0000      	.short	0x0000
100026a0:	20001010 	.word	0x20001010

100026a4 <_out_null>:
100026a4:	4770      	bx	lr
100026a6:	46c0      	nop			@ (mov r8, r8)

100026a8 <_out_rev>:
100026a8:	b5f8      	push	{r3, r4, r5, r6, r7, lr}
100026aa:	46de      	mov	lr, fp
100026ac:	4657      	mov	r7, sl
100026ae:	464e      	mov	r6, r9
100026b0:	4645      	mov	r5, r8
100026b2:	b5e0      	push	{r5, r6, r7, lr}
100026b4:	4699      	mov	r9, r3
100026b6:	9b0d      	ldr	r3, [sp, #52]	@ 0x34
100026b8:	0007      	movs	r7, r0
100026ba:	4688      	mov	r8, r1
100026bc:	4693      	mov	fp, r2
100026be:	079b      	lsls	r3, r3, #30
100026c0:	d028      	beq.n	10002714 <_out_rev+0x6c>
100026c2:	9b0b      	ldr	r3, [sp, #44]	@ 0x2c
100026c4:	2b00      	cmp	r3, #0
100026c6:	d03c      	beq.n	10002742 <_out_rev+0x9a>
100026c8:	0016      	movs	r6, r2
100026ca:	9c0b      	ldr	r4, [sp, #44]	@ 0x2c
100026cc:	9d0a      	ldr	r5, [sp, #40]	@ 0x28
100026ce:	1936      	adds	r6, r6, r4
100026d0:	1b32      	subs	r2, r6, r4
100026d2:	3c01      	subs	r4, #1
100026d4:	464b      	mov	r3, r9
100026d6:	4641      	mov	r1, r8
100026d8:	5d28      	ldrb	r0, [r5, r4]
100026da:	47b8      	blx	r7
100026dc:	2c00      	cmp	r4, #0
100026de:	d1f7      	bne.n	100026d0 <_out_rev+0x28>
100026e0:	0035      	movs	r5, r6
100026e2:	9b0d      	ldr	r3, [sp, #52]	@ 0x34
100026e4:	079b      	lsls	r3, r3, #30
100026e6:	d50e      	bpl.n	10002706 <_out_rev+0x5e>
100026e8:	465b      	mov	r3, fp
100026ea:	1aec      	subs	r4, r5, r3
100026ec:	9b0c      	ldr	r3, [sp, #48]	@ 0x30
100026ee:	42a3      	cmp	r3, r4
100026f0:	d909      	bls.n	10002706 <_out_rev+0x5e>
100026f2:	001e      	movs	r6, r3
100026f4:	002a      	movs	r2, r5
100026f6:	464b      	mov	r3, r9
100026f8:	4641      	mov	r1, r8
100026fa:	2020      	movs	r0, #32
100026fc:	3401      	adds	r4, #1
100026fe:	47b8      	blx	r7
10002700:	3501      	adds	r5, #1
10002702:	42b4      	cmp	r4, r6
10002704:	d3f6      	bcc.n	100026f4 <_out_rev+0x4c>
10002706:	0028      	movs	r0, r5
10002708:	bcf0      	pop	{r4, r5, r6, r7}
1000270a:	46bb      	mov	fp, r7
1000270c:	46b2      	mov	sl, r6
1000270e:	46a9      	mov	r9, r5
10002710:	46a0      	mov	r8, r4
10002712:	bdf8      	pop	{r3, r4, r5, r6, r7, pc}
10002714:	9b0b      	ldr	r3, [sp, #44]	@ 0x2c
10002716:	9a0c      	ldr	r2, [sp, #48]	@ 0x30
10002718:	4293      	cmp	r3, r2
1000271a:	d214      	bcs.n	10002746 <_out_rev+0x9e>
1000271c:	0013      	movs	r3, r2
1000271e:	465d      	mov	r5, fp
10002720:	000c      	movs	r4, r1
10002722:	9a0b      	ldr	r2, [sp, #44]	@ 0x2c
10002724:	1a9e      	subs	r6, r3, r2
10002726:	1976      	adds	r6, r6, r5
10002728:	002a      	movs	r2, r5
1000272a:	464b      	mov	r3, r9
1000272c:	3501      	adds	r5, #1
1000272e:	0021      	movs	r1, r4
10002730:	2020      	movs	r0, #32
10002732:	47b8      	blx	r7
10002734:	42b5      	cmp	r5, r6
10002736:	d1f7      	bne.n	10002728 <_out_rev+0x80>
10002738:	9b0b      	ldr	r3, [sp, #44]	@ 0x2c
1000273a:	46a0      	mov	r8, r4
1000273c:	2b00      	cmp	r3, #0
1000273e:	d1c4      	bne.n	100026ca <_out_rev+0x22>
10002740:	e7e1      	b.n	10002706 <_out_rev+0x5e>
10002742:	0015      	movs	r5, r2
10002744:	e7cd      	b.n	100026e2 <_out_rev+0x3a>
10002746:	465e      	mov	r6, fp
10002748:	2b00      	cmp	r3, #0
1000274a:	d1be      	bne.n	100026ca <_out_rev+0x22>
1000274c:	465d      	mov	r5, fp
1000274e:	e7da      	b.n	10002706 <_out_rev+0x5e>

10002750 <_ntoa_format>:
10002750:	b5f0      	push	{r4, r5, r6, r7, lr}
10002752:	464f      	mov	r7, r9
10002754:	46d6      	mov	lr, sl
10002756:	4646      	mov	r6, r8
10002758:	b5c0      	push	{r6, r7, lr}
1000275a:	b084      	sub	sp, #16
1000275c:	469c      	mov	ip, r3
1000275e:	ab0e      	add	r3, sp, #56	@ 0x38
10002760:	781f      	ldrb	r7, [r3, #0]
10002762:	9b12      	ldr	r3, [sp, #72]	@ 0x48
10002764:	4691      	mov	r9, r2
10002766:	46ba      	mov	sl, r7
10002768:	9c0d      	ldr	r4, [sp, #52]	@ 0x34
1000276a:	9e10      	ldr	r6, [sp, #64]	@ 0x40
1000276c:	9d11      	ldr	r5, [sp, #68]	@ 0x44
1000276e:	079b      	lsls	r3, r3, #30
10002770:	d44c      	bmi.n	1000280c <_ntoa_format+0xbc>
10002772:	2d00      	cmp	r5, #0
10002774:	d141      	bne.n	100027fa <_ntoa_format+0xaa>
10002776:	42b4      	cmp	r4, r6
10002778:	d248      	bcs.n	1000280c <_ntoa_format+0xbc>
1000277a:	2301      	movs	r3, #1
1000277c:	9f12      	ldr	r7, [sp, #72]	@ 0x48
1000277e:	401f      	ands	r7, r3
10002780:	46b8      	mov	r8, r7
10002782:	9b0c      	ldr	r3, [sp, #48]	@ 0x30
10002784:	1e5f      	subs	r7, r3, #1
10002786:	2330      	movs	r3, #48	@ 0x30
10002788:	e003      	b.n	10002792 <_ntoa_format+0x42>
1000278a:	3401      	adds	r4, #1
1000278c:	553b      	strb	r3, [r7, r4]
1000278e:	42a6      	cmp	r6, r4
10002790:	d901      	bls.n	10002796 <_ntoa_format+0x46>
10002792:	2c20      	cmp	r4, #32
10002794:	d1f9      	bne.n	1000278a <_ntoa_format+0x3a>
10002796:	4643      	mov	r3, r8
10002798:	2b00      	cmp	r3, #0
1000279a:	d100      	bne.n	1000279e <_ntoa_format+0x4e>
1000279c:	e087      	b.n	100028ae <_ntoa_format+0x15e>
1000279e:	9b0c      	ldr	r3, [sp, #48]	@ 0x30
100027a0:	1e5f      	subs	r7, r3, #1
100027a2:	2330      	movs	r3, #48	@ 0x30
100027a4:	42a5      	cmp	r5, r4
100027a6:	d804      	bhi.n	100027b2 <_ntoa_format+0x62>
100027a8:	e030      	b.n	1000280c <_ntoa_format+0xbc>
100027aa:	3401      	adds	r4, #1
100027ac:	553b      	strb	r3, [r7, r4]
100027ae:	42ac      	cmp	r4, r5
100027b0:	d02c      	beq.n	1000280c <_ntoa_format+0xbc>
100027b2:	2c20      	cmp	r4, #32
100027b4:	d1f9      	bne.n	100027aa <_ntoa_format+0x5a>
100027b6:	9b12      	ldr	r3, [sp, #72]	@ 0x48
100027b8:	06db      	lsls	r3, r3, #27
100027ba:	d50d      	bpl.n	100027d8 <_ntoa_format+0x88>
100027bc:	9b12      	ldr	r3, [sp, #72]	@ 0x48
100027be:	055b      	lsls	r3, r3, #21
100027c0:	d457      	bmi.n	10002872 <_ntoa_format+0x122>
100027c2:	42a6      	cmp	r6, r4
100027c4:	d067      	beq.n	10002896 <_ntoa_format+0x146>
100027c6:	42a5      	cmp	r5, r4
100027c8:	d065      	beq.n	10002896 <_ntoa_format+0x146>
100027ca:	9b0f      	ldr	r3, [sp, #60]	@ 0x3c
100027cc:	2b10      	cmp	r3, #16
100027ce:	d053      	beq.n	10002878 <_ntoa_format+0x128>
100027d0:	2b02      	cmp	r3, #2
100027d2:	d05b      	beq.n	1000288c <_ntoa_format+0x13c>
100027d4:	2c20      	cmp	r4, #32
100027d6:	d136      	bne.n	10002846 <_ntoa_format+0xf6>
100027d8:	2320      	movs	r3, #32
100027da:	9c12      	ldr	r4, [sp, #72]	@ 0x48
100027dc:	9301      	str	r3, [sp, #4]
100027de:	9b0c      	ldr	r3, [sp, #48]	@ 0x30
100027e0:	464a      	mov	r2, r9
100027e2:	9300      	str	r3, [sp, #0]
100027e4:	9403      	str	r4, [sp, #12]
100027e6:	4663      	mov	r3, ip
100027e8:	9502      	str	r5, [sp, #8]
100027ea:	f7ff ff5d 	bl	100026a8 <_out_rev>
100027ee:	b004      	add	sp, #16
100027f0:	bce0      	pop	{r5, r6, r7}
100027f2:	46ba      	mov	sl, r7
100027f4:	46b1      	mov	r9, r6
100027f6:	46a8      	mov	r8, r5
100027f8:	bdf0      	pop	{r4, r5, r6, r7, pc}
100027fa:	2301      	movs	r3, #1
100027fc:	9a12      	ldr	r2, [sp, #72]	@ 0x48
100027fe:	4013      	ands	r3, r2
10002800:	4698      	mov	r8, r3
10002802:	2301      	movs	r3, #1
10002804:	4213      	tst	r3, r2
10002806:	d12d      	bne.n	10002864 <_ntoa_format+0x114>
10002808:	42b4      	cmp	r4, r6
1000280a:	d3ba      	bcc.n	10002782 <_ntoa_format+0x32>
1000280c:	9b12      	ldr	r3, [sp, #72]	@ 0x48
1000280e:	06db      	lsls	r3, r3, #27
10002810:	d51e      	bpl.n	10002850 <_ntoa_format+0x100>
10002812:	9b12      	ldr	r3, [sp, #72]	@ 0x48
10002814:	055b      	lsls	r3, r3, #21
10002816:	d4d8      	bmi.n	100027ca <_ntoa_format+0x7a>
10002818:	2c00      	cmp	r4, #0
1000281a:	d1d2      	bne.n	100027c2 <_ntoa_format+0x72>
1000281c:	9b0f      	ldr	r3, [sp, #60]	@ 0x3c
1000281e:	2b10      	cmp	r3, #16
10002820:	d060      	beq.n	100028e4 <_ntoa_format+0x194>
10002822:	9b0f      	ldr	r3, [sp, #60]	@ 0x3c
10002824:	2b02      	cmp	r3, #2
10002826:	d071      	beq.n	1000290c <_ntoa_format+0x1bc>
10002828:	2330      	movs	r3, #48	@ 0x30
1000282a:	2401      	movs	r4, #1
1000282c:	9a0c      	ldr	r2, [sp, #48]	@ 0x30
1000282e:	7013      	strb	r3, [r2, #0]
10002830:	4653      	mov	r3, sl
10002832:	2b00      	cmp	r3, #0
10002834:	d111      	bne.n	1000285a <_ntoa_format+0x10a>
10002836:	9b12      	ldr	r3, [sp, #72]	@ 0x48
10002838:	075b      	lsls	r3, r3, #29
1000283a:	d540      	bpl.n	100028be <_ntoa_format+0x16e>
1000283c:	262b      	movs	r6, #43	@ 0x2b
1000283e:	9a0c      	ldr	r2, [sp, #48]	@ 0x30
10002840:	1c63      	adds	r3, r4, #1
10002842:	5516      	strb	r6, [r2, r4]
10002844:	e7c9      	b.n	100027da <_ntoa_format+0x8a>
10002846:	0023      	movs	r3, r4
10002848:	3401      	adds	r4, #1
1000284a:	2630      	movs	r6, #48	@ 0x30
1000284c:	9a0c      	ldr	r2, [sp, #48]	@ 0x30
1000284e:	54d6      	strb	r6, [r2, r3]
10002850:	2c20      	cmp	r4, #32
10002852:	d0c1      	beq.n	100027d8 <_ntoa_format+0x88>
10002854:	4653      	mov	r3, sl
10002856:	2b00      	cmp	r3, #0
10002858:	d0ed      	beq.n	10002836 <_ntoa_format+0xe6>
1000285a:	262d      	movs	r6, #45	@ 0x2d
1000285c:	9a0c      	ldr	r2, [sp, #48]	@ 0x30
1000285e:	1c63      	adds	r3, r4, #1
10002860:	5516      	strb	r6, [r2, r4]
10002862:	e7ba      	b.n	100027da <_ntoa_format+0x8a>
10002864:	2f00      	cmp	r7, #0
10002866:	d034      	beq.n	100028d2 <_ntoa_format+0x182>
10002868:	3d01      	subs	r5, #1
1000286a:	42b4      	cmp	r4, r6
1000286c:	d200      	bcs.n	10002870 <_ntoa_format+0x120>
1000286e:	e788      	b.n	10002782 <_ntoa_format+0x32>
10002870:	e795      	b.n	1000279e <_ntoa_format+0x4e>
10002872:	9b0f      	ldr	r3, [sp, #60]	@ 0x3c
10002874:	2b10      	cmp	r3, #16
10002876:	d1af      	bne.n	100027d8 <_ntoa_format+0x88>
10002878:	9b12      	ldr	r3, [sp, #72]	@ 0x48
1000287a:	069b      	lsls	r3, r3, #26
1000287c:	d53c      	bpl.n	100028f8 <_ntoa_format+0x1a8>
1000287e:	2c20      	cmp	r4, #32
10002880:	d0aa      	beq.n	100027d8 <_ntoa_format+0x88>
10002882:	2358      	movs	r3, #88	@ 0x58
10002884:	9a0c      	ldr	r2, [sp, #48]	@ 0x30
10002886:	5513      	strb	r3, [r2, r4]
10002888:	3401      	adds	r4, #1
1000288a:	e7a3      	b.n	100027d4 <_ntoa_format+0x84>
1000288c:	2c20      	cmp	r4, #32
1000288e:	d0a3      	beq.n	100027d8 <_ntoa_format+0x88>
10002890:	0023      	movs	r3, r4
10002892:	3401      	adds	r4, #1
10002894:	e007      	b.n	100028a6 <_ntoa_format+0x156>
10002896:	1e63      	subs	r3, r4, #1
10002898:	2c01      	cmp	r4, #1
1000289a:	d0bf      	beq.n	1000281c <_ntoa_format+0xcc>
1000289c:	9a0f      	ldr	r2, [sp, #60]	@ 0x3c
1000289e:	2a10      	cmp	r2, #16
100028a0:	d036      	beq.n	10002910 <_ntoa_format+0x1c0>
100028a2:	2a02      	cmp	r2, #2
100028a4:	d1d1      	bne.n	1000284a <_ntoa_format+0xfa>
100028a6:	2662      	movs	r6, #98	@ 0x62
100028a8:	9a0c      	ldr	r2, [sp, #48]	@ 0x30
100028aa:	54d6      	strb	r6, [r2, r3]
100028ac:	e792      	b.n	100027d4 <_ntoa_format+0x84>
100028ae:	9b12      	ldr	r3, [sp, #72]	@ 0x48
100028b0:	06db      	lsls	r3, r3, #27
100028b2:	d5cd      	bpl.n	10002850 <_ntoa_format+0x100>
100028b4:	9b12      	ldr	r3, [sp, #72]	@ 0x48
100028b6:	055b      	lsls	r3, r3, #21
100028b8:	d400      	bmi.n	100028bc <_ntoa_format+0x16c>
100028ba:	e782      	b.n	100027c2 <_ntoa_format+0x72>
100028bc:	e785      	b.n	100027ca <_ntoa_format+0x7a>
100028be:	9a12      	ldr	r2, [sp, #72]	@ 0x48
100028c0:	0023      	movs	r3, r4
100028c2:	0716      	lsls	r6, r2, #28
100028c4:	d400      	bmi.n	100028c8 <_ntoa_format+0x178>
100028c6:	e788      	b.n	100027da <_ntoa_format+0x8a>
100028c8:	2620      	movs	r6, #32
100028ca:	9a0c      	ldr	r2, [sp, #48]	@ 0x30
100028cc:	3301      	adds	r3, #1
100028ce:	5516      	strb	r6, [r2, r4]
100028d0:	e783      	b.n	100027da <_ntoa_format+0x8a>
100028d2:	230c      	movs	r3, #12
100028d4:	4013      	ands	r3, r2
100028d6:	1e5f      	subs	r7, r3, #1
100028d8:	41bb      	sbcs	r3, r7
100028da:	1aed      	subs	r5, r5, r3
100028dc:	42b4      	cmp	r4, r6
100028de:	d200      	bcs.n	100028e2 <_ntoa_format+0x192>
100028e0:	e74f      	b.n	10002782 <_ntoa_format+0x32>
100028e2:	e75c      	b.n	1000279e <_ntoa_format+0x4e>
100028e4:	9b12      	ldr	r3, [sp, #72]	@ 0x48
100028e6:	069b      	lsls	r3, r3, #26
100028e8:	d40e      	bmi.n	10002908 <_ntoa_format+0x1b8>
100028ea:	2378      	movs	r3, #120	@ 0x78
100028ec:	9a0c      	ldr	r2, [sp, #48]	@ 0x30
100028ee:	2402      	movs	r4, #2
100028f0:	7013      	strb	r3, [r2, #0]
100028f2:	2330      	movs	r3, #48	@ 0x30
100028f4:	7053      	strb	r3, [r2, #1]
100028f6:	e79b      	b.n	10002830 <_ntoa_format+0xe0>
100028f8:	2c20      	cmp	r4, #32
100028fa:	d100      	bne.n	100028fe <_ntoa_format+0x1ae>
100028fc:	e76c      	b.n	100027d8 <_ntoa_format+0x88>
100028fe:	2378      	movs	r3, #120	@ 0x78
10002900:	9a0c      	ldr	r2, [sp, #48]	@ 0x30
10002902:	5513      	strb	r3, [r2, r4]
10002904:	3401      	adds	r4, #1
10002906:	e765      	b.n	100027d4 <_ntoa_format+0x84>
10002908:	2358      	movs	r3, #88	@ 0x58
1000290a:	e7ef      	b.n	100028ec <_ntoa_format+0x19c>
1000290c:	3360      	adds	r3, #96	@ 0x60
1000290e:	e7ed      	b.n	100028ec <_ntoa_format+0x19c>
10002910:	9a0c      	ldr	r2, [sp, #48]	@ 0x30
10002912:	1ea6      	subs	r6, r4, #2
10002914:	18b6      	adds	r6, r6, r2
10002916:	9a12      	ldr	r2, [sp, #72]	@ 0x48
10002918:	0692      	lsls	r2, r2, #26
1000291a:	d502      	bpl.n	10002922 <_ntoa_format+0x1d2>
1000291c:	2258      	movs	r2, #88	@ 0x58
1000291e:	7032      	strb	r2, [r6, #0]
10002920:	e793      	b.n	1000284a <_ntoa_format+0xfa>
10002922:	2278      	movs	r2, #120	@ 0x78
10002924:	7032      	strb	r2, [r6, #0]
10002926:	e790      	b.n	1000284a <_ntoa_format+0xfa>

10002928 <_out_char>:
10002928:	b510      	push	{r4, lr}
1000292a:	2800      	cmp	r0, #0
1000292c:	d100      	bne.n	10002930 <_out_char+0x8>
1000292e:	bd10      	pop	{r4, pc}
10002930:	f001 fbac 	bl	1000408c <__wrap_putchar>
10002934:	e7fb      	b.n	1000292e <_out_char+0x6>
10002936:	46c0      	nop			@ (mov r8, r8)

10002938 <_out_fct>:
10002938:	b510      	push	{r4, lr}
1000293a:	2800      	cmp	r0, #0
1000293c:	d003      	beq.n	10002946 <_out_fct+0xe>
1000293e:	684a      	ldr	r2, [r1, #4]
10002940:	680b      	ldr	r3, [r1, #0]
10002942:	0011      	movs	r1, r2
10002944:	4798      	blx	r3
10002946:	bd10      	pop	{r4, pc}

10002948 <_ftoa>:
10002948:	b5f0      	push	{r4, r5, r6, r7, lr}
1000294a:	464e      	mov	r6, r9
1000294c:	46de      	mov	lr, fp
1000294e:	4657      	mov	r7, sl
10002950:	4645      	mov	r5, r8
10002952:	b5e0      	push	{r5, r6, r7, lr}
10002954:	b095      	sub	sp, #84	@ 0x54
10002956:	4683      	mov	fp, r0
10002958:	4689      	mov	r9, r1
1000295a:	4692      	mov	sl, r2
1000295c:	4698      	mov	r8, r3
1000295e:	9a1e      	ldr	r2, [sp, #120]	@ 0x78
10002960:	9b1f      	ldr	r3, [sp, #124]	@ 0x7c
10002962:	0010      	movs	r0, r2
10002964:	0019      	movs	r1, r3
10002966:	9e20      	ldr	r6, [sp, #128]	@ 0x80
10002968:	f7ff fac9 	bl	10001efe <__wrap___aeabi_dcmpun>
1000296c:	2800      	cmp	r0, #0
1000296e:	d000      	beq.n	10002972 <_ftoa+0x2a>
10002970:	e1d2      	b.n	10002d18 <_ftoa+0x3d0>
10002972:	981e      	ldr	r0, [sp, #120]	@ 0x78
10002974:	991f      	ldr	r1, [sp, #124]	@ 0x7c
10002976:	2201      	movs	r2, #1
10002978:	4bc4      	ldr	r3, [pc, #784]	@ (10002c8c <_ftoa+0x344>)
1000297a:	4252      	negs	r2, r2
1000297c:	f7ff faa4 	bl	10001ec8 <__wrap___aeabi_dcmplt>
10002980:	2800      	cmp	r0, #0
10002982:	d000      	beq.n	10002986 <_ftoa+0x3e>
10002984:	e101      	b.n	10002b8a <_ftoa+0x242>
10002986:	981e      	ldr	r0, [sp, #120]	@ 0x78
10002988:	991f      	ldr	r1, [sp, #124]	@ 0x7c
1000298a:	2201      	movs	r2, #1
1000298c:	4bc0      	ldr	r3, [pc, #768]	@ (10002c90 <_ftoa+0x348>)
1000298e:	4252      	negs	r2, r2
10002990:	f7ff fab0 	bl	10001ef4 <__wrap___aeabi_dcmpgt>
10002994:	2800      	cmp	r0, #0
10002996:	d000      	beq.n	1000299a <_ftoa+0x52>
10002998:	e0d6      	b.n	10002b48 <_ftoa+0x200>
1000299a:	981e      	ldr	r0, [sp, #120]	@ 0x78
1000299c:	991f      	ldr	r1, [sp, #124]	@ 0x7c
1000299e:	2200      	movs	r2, #0
100029a0:	4bbc      	ldr	r3, [pc, #752]	@ (10002c94 <_ftoa+0x34c>)
100029a2:	f7ff faa7 	bl	10001ef4 <__wrap___aeabi_dcmpgt>
100029a6:	2800      	cmp	r0, #0
100029a8:	d000      	beq.n	100029ac <_ftoa+0x64>
100029aa:	e0b5      	b.n	10002b18 <_ftoa+0x1d0>
100029ac:	981e      	ldr	r0, [sp, #120]	@ 0x78
100029ae:	991f      	ldr	r1, [sp, #124]	@ 0x7c
100029b0:	2200      	movs	r2, #0
100029b2:	4bb9      	ldr	r3, [pc, #740]	@ (10002c98 <_ftoa+0x350>)
100029b4:	f7ff fa88 	bl	10001ec8 <__wrap___aeabi_dcmplt>
100029b8:	2800      	cmp	r0, #0
100029ba:	d000      	beq.n	100029be <_ftoa+0x76>
100029bc:	e0ac      	b.n	10002b18 <_ftoa+0x1d0>
100029be:	981e      	ldr	r0, [sp, #120]	@ 0x78
100029c0:	991f      	ldr	r1, [sp, #124]	@ 0x7c
100029c2:	2200      	movs	r2, #0
100029c4:	2300      	movs	r3, #0
100029c6:	f7ff fa7f 	bl	10001ec8 <__wrap___aeabi_dcmplt>
100029ca:	2800      	cmp	r0, #0
100029cc:	d000      	beq.n	100029d0 <_ftoa+0x88>
100029ce:	e0d1      	b.n	10002b74 <_ftoa+0x22c>
100029d0:	2300      	movs	r3, #0
100029d2:	930b      	str	r3, [sp, #44]	@ 0x2c
100029d4:	9b22      	ldr	r3, [sp, #136]	@ 0x88
100029d6:	055b      	lsls	r3, r3, #21
100029d8:	d400      	bmi.n	100029dc <_ftoa+0x94>
100029da:	2606      	movs	r6, #6
100029dc:	2400      	movs	r4, #0
100029de:	2330      	movs	r3, #48	@ 0x30
100029e0:	e006      	b.n	100029f0 <_ftoa+0xa8>
100029e2:	aa06      	add	r2, sp, #24
100029e4:	3401      	adds	r4, #1
100029e6:	3217      	adds	r2, #23
100029e8:	5513      	strb	r3, [r2, r4]
100029ea:	3e01      	subs	r6, #1
100029ec:	2c20      	cmp	r4, #32
100029ee:	d001      	beq.n	100029f4 <_ftoa+0xac>
100029f0:	2e09      	cmp	r6, #9
100029f2:	d8f6      	bhi.n	100029e2 <_ftoa+0x9a>
100029f4:	981e      	ldr	r0, [sp, #120]	@ 0x78
100029f6:	991f      	ldr	r1, [sp, #124]	@ 0x7c
100029f8:	f7ff faaa 	bl	10001f50 <__wrap___aeabi_d2iz>
100029fc:	4ba7      	ldr	r3, [pc, #668]	@ (10002c9c <_ftoa+0x354>)
100029fe:	00f2      	lsls	r2, r6, #3
10002a00:	189b      	adds	r3, r3, r2
10002a02:	cb0c      	ldmia	r3, {r2, r3}
10002a04:	0005      	movs	r5, r0
10002a06:	9208      	str	r2, [sp, #32]
10002a08:	9309      	str	r3, [sp, #36]	@ 0x24
10002a0a:	f7ff fa89 	bl	10001f20 <__wrap___aeabi_i2d>
10002a0e:	0002      	movs	r2, r0
10002a10:	000b      	movs	r3, r1
10002a12:	981e      	ldr	r0, [sp, #120]	@ 0x78
10002a14:	991f      	ldr	r1, [sp, #124]	@ 0x7c
10002a16:	f7ff f9e4 	bl	10001de2 <__wrap___aeabi_dsub>
10002a1a:	9a08      	ldr	r2, [sp, #32]
10002a1c:	9b09      	ldr	r3, [sp, #36]	@ 0x24
10002a1e:	f7ff fa10 	bl	10001e42 <__wrap___aeabi_dmul>
10002a22:	9006      	str	r0, [sp, #24]
10002a24:	9107      	str	r1, [sp, #28]
10002a26:	f7ff fab7 	bl	10001f98 <__wrap___aeabi_d2uiz>
10002a2a:	0007      	movs	r7, r0
10002a2c:	f7ff fa74 	bl	10001f18 <__wrap___aeabi_ui2d>
10002a30:	0002      	movs	r2, r0
10002a32:	000b      	movs	r3, r1
10002a34:	9806      	ldr	r0, [sp, #24]
10002a36:	9907      	ldr	r1, [sp, #28]
10002a38:	f7ff f9d3 	bl	10001de2 <__wrap___aeabi_dsub>
10002a3c:	2200      	movs	r2, #0
10002a3e:	4b98      	ldr	r3, [pc, #608]	@ (10002ca0 <_ftoa+0x358>)
10002a40:	9006      	str	r0, [sp, #24]
10002a42:	9107      	str	r1, [sp, #28]
10002a44:	f7ff fa56 	bl	10001ef4 <__wrap___aeabi_dcmpgt>
10002a48:	2800      	cmp	r0, #0
10002a4a:	d100      	bne.n	10002a4e <_ftoa+0x106>
10002a4c:	e0e9      	b.n	10002c22 <_ftoa+0x2da>
10002a4e:	3701      	adds	r7, #1
10002a50:	0038      	movs	r0, r7
10002a52:	f7ff fa61 	bl	10001f18 <__wrap___aeabi_ui2d>
10002a56:	0002      	movs	r2, r0
10002a58:	000b      	movs	r3, r1
10002a5a:	9808      	ldr	r0, [sp, #32]
10002a5c:	9909      	ldr	r1, [sp, #36]	@ 0x24
10002a5e:	f7ff fa39 	bl	10001ed4 <__wrap___aeabi_dcmple>
10002a62:	2800      	cmp	r0, #0
10002a64:	d001      	beq.n	10002a6a <_ftoa+0x122>
10002a66:	2700      	movs	r7, #0
10002a68:	3501      	adds	r5, #1
10002a6a:	2e00      	cmp	r6, #0
10002a6c:	d100      	bne.n	10002a70 <_ftoa+0x128>
10002a6e:	e0b7      	b.n	10002be0 <_ftoa+0x298>
10002a70:	9506      	str	r5, [sp, #24]
10002a72:	e013      	b.n	10002a9c <_ftoa+0x154>
10002a74:	2317      	movs	r3, #23
10002a76:	aa06      	add	r2, sp, #24
10002a78:	189b      	adds	r3, r3, r2
10002a7a:	210a      	movs	r1, #10
10002a7c:	0038      	movs	r0, r7
10002a7e:	3401      	adds	r4, #1
10002a80:	191d      	adds	r5, r3, r4
10002a82:	f7fe ff73 	bl	1000196c <__wrap___aeabi_uidiv>
10002a86:	3130      	adds	r1, #48	@ 0x30
10002a88:	7029      	strb	r1, [r5, #0]
10002a8a:	0038      	movs	r0, r7
10002a8c:	210a      	movs	r1, #10
10002a8e:	3e01      	subs	r6, #1
10002a90:	f7fe ff6c 	bl	1000196c <__wrap___aeabi_uidiv>
10002a94:	2f09      	cmp	r7, #9
10002a96:	d800      	bhi.n	10002a9a <_ftoa+0x152>
10002a98:	e0e1      	b.n	10002c5e <_ftoa+0x316>
10002a9a:	0007      	movs	r7, r0
10002a9c:	2c20      	cmp	r4, #32
10002a9e:	d1e9      	bne.n	10002a74 <_ftoa+0x12c>
10002aa0:	9d06      	ldr	r5, [sp, #24]
10002aa2:	2420      	movs	r4, #32
10002aa4:	ab0c      	add	r3, sp, #48	@ 0x30
10002aa6:	9306      	str	r3, [sp, #24]
10002aa8:	2717      	movs	r7, #23
10002aaa:	ab06      	add	r3, sp, #24
10002aac:	18ff      	adds	r7, r7, r3
10002aae:	e00d      	b.n	10002acc <_ftoa+0x184>
10002ab0:	0028      	movs	r0, r5
10002ab2:	210a      	movs	r1, #10
10002ab4:	f7fe ff32 	bl	1000191c <__wrap___aeabi_idiv>
10002ab8:	3401      	adds	r4, #1
10002aba:	3130      	adds	r1, #48	@ 0x30
10002abc:	0028      	movs	r0, r5
10002abe:	5539      	strb	r1, [r7, r4]
10002ac0:	210a      	movs	r1, #10
10002ac2:	f7fe ff2b 	bl	1000191c <__wrap___aeabi_idiv>
10002ac6:	1e05      	subs	r5, r0, #0
10002ac8:	d100      	bne.n	10002acc <_ftoa+0x184>
10002aca:	e0b7      	b.n	10002c3c <_ftoa+0x2f4>
10002acc:	2c20      	cmp	r4, #32
10002ace:	d1ef      	bne.n	10002ab0 <_ftoa+0x168>
10002ad0:	2303      	movs	r3, #3
10002ad2:	9a22      	ldr	r2, [sp, #136]	@ 0x88
10002ad4:	4013      	ands	r3, r2
10002ad6:	2b01      	cmp	r3, #1
10002ad8:	d117      	bne.n	10002b0a <_ftoa+0x1c2>
10002ada:	9b21      	ldr	r3, [sp, #132]	@ 0x84
10002adc:	2b00      	cmp	r3, #0
10002ade:	d014      	beq.n	10002b0a <_ftoa+0x1c2>
10002ae0:	9b0b      	ldr	r3, [sp, #44]	@ 0x2c
10002ae2:	2b00      	cmp	r3, #0
10002ae4:	d100      	bne.n	10002ae8 <_ftoa+0x1a0>
10002ae6:	e0e3      	b.n	10002cb0 <_ftoa+0x368>
10002ae8:	9b21      	ldr	r3, [sp, #132]	@ 0x84
10002aea:	3b01      	subs	r3, #1
10002aec:	9321      	str	r3, [sp, #132]	@ 0x84
10002aee:	2b20      	cmp	r3, #32
10002af0:	d90b      	bls.n	10002b0a <_ftoa+0x1c2>
10002af2:	2330      	movs	r3, #48	@ 0x30
10002af4:	9a21      	ldr	r2, [sp, #132]	@ 0x84
10002af6:	e006      	b.n	10002b06 <_ftoa+0x1be>
10002af8:	a906      	add	r1, sp, #24
10002afa:	3401      	adds	r4, #1
10002afc:	3117      	adds	r1, #23
10002afe:	550b      	strb	r3, [r1, r4]
10002b00:	4294      	cmp	r4, r2
10002b02:	d300      	bcc.n	10002b06 <_ftoa+0x1be>
10002b04:	e0a0      	b.n	10002c48 <_ftoa+0x300>
10002b06:	2c20      	cmp	r4, #32
10002b08:	d1f6      	bne.n	10002af8 <_ftoa+0x1b0>
10002b0a:	9b22      	ldr	r3, [sp, #136]	@ 0x88
10002b0c:	9401      	str	r4, [sp, #4]
10002b0e:	9303      	str	r3, [sp, #12]
10002b10:	9b21      	ldr	r3, [sp, #132]	@ 0x84
10002b12:	9302      	str	r3, [sp, #8]
10002b14:	9b06      	ldr	r3, [sp, #24]
10002b16:	e021      	b.n	10002b5c <_ftoa+0x214>
10002b18:	9b22      	ldr	r3, [sp, #136]	@ 0x88
10002b1a:	4652      	mov	r2, sl
10002b1c:	9304      	str	r3, [sp, #16]
10002b1e:	9b21      	ldr	r3, [sp, #132]	@ 0x84
10002b20:	4649      	mov	r1, r9
10002b22:	9303      	str	r3, [sp, #12]
10002b24:	4658      	mov	r0, fp
10002b26:	9b1e      	ldr	r3, [sp, #120]	@ 0x78
10002b28:	9c1f      	ldr	r4, [sp, #124]	@ 0x7c
10002b2a:	9602      	str	r6, [sp, #8]
10002b2c:	9300      	str	r3, [sp, #0]
10002b2e:	9401      	str	r4, [sp, #4]
10002b30:	4643      	mov	r3, r8
10002b32:	f000 f943 	bl	10002dbc <_etoa>
10002b36:	0004      	movs	r4, r0
10002b38:	0020      	movs	r0, r4
10002b3a:	b015      	add	sp, #84	@ 0x54
10002b3c:	bcf0      	pop	{r4, r5, r6, r7}
10002b3e:	46bb      	mov	fp, r7
10002b40:	46b2      	mov	sl, r6
10002b42:	46a9      	mov	r9, r5
10002b44:	46a0      	mov	r8, r4
10002b46:	bdf0      	pop	{r4, r5, r6, r7, pc}
10002b48:	9b22      	ldr	r3, [sp, #136]	@ 0x88
10002b4a:	075b      	lsls	r3, r3, #29
10002b4c:	d40f      	bmi.n	10002b6e <_ftoa+0x226>
10002b4e:	2203      	movs	r2, #3
10002b50:	4b54      	ldr	r3, [pc, #336]	@ (10002ca4 <_ftoa+0x35c>)
10002b52:	9922      	ldr	r1, [sp, #136]	@ 0x88
10002b54:	9201      	str	r2, [sp, #4]
10002b56:	9103      	str	r1, [sp, #12]
10002b58:	9921      	ldr	r1, [sp, #132]	@ 0x84
10002b5a:	9102      	str	r1, [sp, #8]
10002b5c:	9300      	str	r3, [sp, #0]
10002b5e:	4652      	mov	r2, sl
10002b60:	4643      	mov	r3, r8
10002b62:	4649      	mov	r1, r9
10002b64:	4658      	mov	r0, fp
10002b66:	f7ff fd9f 	bl	100026a8 <_out_rev>
10002b6a:	0004      	movs	r4, r0
10002b6c:	e7e4      	b.n	10002b38 <_ftoa+0x1f0>
10002b6e:	2204      	movs	r2, #4
10002b70:	4b4d      	ldr	r3, [pc, #308]	@ (10002ca8 <_ftoa+0x360>)
10002b72:	e7ee      	b.n	10002b52 <_ftoa+0x20a>
10002b74:	9a1e      	ldr	r2, [sp, #120]	@ 0x78
10002b76:	9b1f      	ldr	r3, [sp, #124]	@ 0x7c
10002b78:	2000      	movs	r0, #0
10002b7a:	2100      	movs	r1, #0
10002b7c:	f7ff f931 	bl	10001de2 <__wrap___aeabi_dsub>
10002b80:	2301      	movs	r3, #1
10002b82:	901e      	str	r0, [sp, #120]	@ 0x78
10002b84:	911f      	str	r1, [sp, #124]	@ 0x7c
10002b86:	930b      	str	r3, [sp, #44]	@ 0x2c
10002b88:	e724      	b.n	100029d4 <_ftoa+0x8c>
10002b8a:	2302      	movs	r3, #2
10002b8c:	9a22      	ldr	r2, [sp, #136]	@ 0x88
10002b8e:	4654      	mov	r4, sl
10002b90:	401a      	ands	r2, r3
10002b92:	9b22      	ldr	r3, [sp, #136]	@ 0x88
10002b94:	9206      	str	r2, [sp, #24]
10002b96:	079b      	lsls	r3, r3, #30
10002b98:	d100      	bne.n	10002b9c <_ftoa+0x254>
10002b9a:	e0ac      	b.n	10002cf6 <_ftoa+0x3ae>
10002b9c:	0026      	movs	r6, r4
10002b9e:	4d43      	ldr	r5, [pc, #268]	@ (10002cac <_ftoa+0x364>)
10002ba0:	9408      	str	r4, [sp, #32]
10002ba2:	1f2f      	subs	r7, r5, #4
10002ba4:	0032      	movs	r2, r6
10002ba6:	78e8      	ldrb	r0, [r5, #3]
10002ba8:	4643      	mov	r3, r8
10002baa:	4649      	mov	r1, r9
10002bac:	3d01      	subs	r5, #1
10002bae:	47d8      	blx	fp
10002bb0:	3601      	adds	r6, #1
10002bb2:	42bd      	cmp	r5, r7
10002bb4:	d1f6      	bne.n	10002ba4 <_ftoa+0x25c>
10002bb6:	9c08      	ldr	r4, [sp, #32]
10002bb8:	9b06      	ldr	r3, [sp, #24]
10002bba:	3404      	adds	r4, #4
10002bbc:	2b00      	cmp	r3, #0
10002bbe:	d0bb      	beq.n	10002b38 <_ftoa+0x1f0>
10002bc0:	4657      	mov	r7, sl
10002bc2:	9a21      	ldr	r2, [sp, #132]	@ 0x84
10002bc4:	1be3      	subs	r3, r4, r7
10002bc6:	429a      	cmp	r2, r3
10002bc8:	d9b6      	bls.n	10002b38 <_ftoa+0x1f0>
10002bca:	0015      	movs	r5, r2
10002bcc:	0022      	movs	r2, r4
10002bce:	4643      	mov	r3, r8
10002bd0:	4649      	mov	r1, r9
10002bd2:	2020      	movs	r0, #32
10002bd4:	3401      	adds	r4, #1
10002bd6:	47d8      	blx	fp
10002bd8:	1be3      	subs	r3, r4, r7
10002bda:	42ab      	cmp	r3, r5
10002bdc:	d3f6      	bcc.n	10002bcc <_ftoa+0x284>
10002bde:	e7ab      	b.n	10002b38 <_ftoa+0x1f0>
10002be0:	0028      	movs	r0, r5
10002be2:	f7ff f99d 	bl	10001f20 <__wrap___aeabi_i2d>
10002be6:	0002      	movs	r2, r0
10002be8:	000b      	movs	r3, r1
10002bea:	981e      	ldr	r0, [sp, #120]	@ 0x78
10002bec:	991f      	ldr	r1, [sp, #124]	@ 0x7c
10002bee:	f7ff f8f8 	bl	10001de2 <__wrap___aeabi_dsub>
10002bf2:	4b2b      	ldr	r3, [pc, #172]	@ (10002ca0 <_ftoa+0x358>)
10002bf4:	2200      	movs	r2, #0
10002bf6:	0006      	movs	r6, r0
10002bf8:	000f      	movs	r7, r1
10002bfa:	f7ff f965 	bl	10001ec8 <__wrap___aeabi_dcmplt>
10002bfe:	ab0c      	add	r3, sp, #48	@ 0x30
10002c00:	9306      	str	r3, [sp, #24]
10002c02:	2800      	cmp	r0, #0
10002c04:	d000      	beq.n	10002c08 <_ftoa+0x2c0>
10002c06:	e74f      	b.n	10002aa8 <_ftoa+0x160>
10002c08:	2200      	movs	r2, #0
10002c0a:	0030      	movs	r0, r6
10002c0c:	0039      	movs	r1, r7
10002c0e:	4b24      	ldr	r3, [pc, #144]	@ (10002ca0 <_ftoa+0x358>)
10002c10:	f7ff f970 	bl	10001ef4 <__wrap___aeabi_dcmpgt>
10002c14:	2800      	cmp	r0, #0
10002c16:	d000      	beq.n	10002c1a <_ftoa+0x2d2>
10002c18:	e746      	b.n	10002aa8 <_ftoa+0x160>
10002c1a:	2301      	movs	r3, #1
10002c1c:	3501      	adds	r5, #1
10002c1e:	439d      	bics	r5, r3
10002c20:	e742      	b.n	10002aa8 <_ftoa+0x160>
10002c22:	2200      	movs	r2, #0
10002c24:	9806      	ldr	r0, [sp, #24]
10002c26:	9907      	ldr	r1, [sp, #28]
10002c28:	4b1d      	ldr	r3, [pc, #116]	@ (10002ca0 <_ftoa+0x358>)
10002c2a:	f7ff f94d 	bl	10001ec8 <__wrap___aeabi_dcmplt>
10002c2e:	2800      	cmp	r0, #0
10002c30:	d000      	beq.n	10002c34 <_ftoa+0x2ec>
10002c32:	e71a      	b.n	10002a6a <_ftoa+0x122>
10002c34:	2f00      	cmp	r7, #0
10002c36:	d159      	bne.n	10002cec <_ftoa+0x3a4>
10002c38:	3701      	adds	r7, #1
10002c3a:	e716      	b.n	10002a6a <_ftoa+0x122>
10002c3c:	2303      	movs	r3, #3
10002c3e:	9a22      	ldr	r2, [sp, #136]	@ 0x88
10002c40:	4013      	ands	r3, r2
10002c42:	2b01      	cmp	r3, #1
10002c44:	d100      	bne.n	10002c48 <_ftoa+0x300>
10002c46:	e0a6      	b.n	10002d96 <_ftoa+0x44e>
10002c48:	2c20      	cmp	r4, #32
10002c4a:	d100      	bne.n	10002c4e <_ftoa+0x306>
10002c4c:	e75d      	b.n	10002b0a <_ftoa+0x1c2>
10002c4e:	9b0b      	ldr	r3, [sp, #44]	@ 0x2c
10002c50:	2b00      	cmp	r3, #0
10002c52:	d03a      	beq.n	10002cca <_ftoa+0x382>
10002c54:	232d      	movs	r3, #45	@ 0x2d
10002c56:	9a06      	ldr	r2, [sp, #24]
10002c58:	5513      	strb	r3, [r2, r4]
10002c5a:	3401      	adds	r4, #1
10002c5c:	e755      	b.n	10002b0a <_ftoa+0x1c2>
10002c5e:	9d06      	ldr	r5, [sp, #24]
10002c60:	2c20      	cmp	r4, #32
10002c62:	d100      	bne.n	10002c66 <_ftoa+0x31e>
10002c64:	e71d      	b.n	10002aa2 <_ftoa+0x15a>
10002c66:	2330      	movs	r3, #48	@ 0x30
10002c68:	1936      	adds	r6, r6, r4
10002c6a:	e006      	b.n	10002c7a <_ftoa+0x332>
10002c6c:	aa06      	add	r2, sp, #24
10002c6e:	3401      	adds	r4, #1
10002c70:	3217      	adds	r2, #23
10002c72:	5513      	strb	r3, [r2, r4]
10002c74:	2c20      	cmp	r4, #32
10002c76:	d100      	bne.n	10002c7a <_ftoa+0x332>
10002c78:	e713      	b.n	10002aa2 <_ftoa+0x15a>
10002c7a:	42a6      	cmp	r6, r4
10002c7c:	d1f6      	bne.n	10002c6c <_ftoa+0x324>
10002c7e:	232e      	movs	r3, #46	@ 0x2e
10002c80:	aa0c      	add	r2, sp, #48	@ 0x30
10002c82:	3401      	adds	r4, #1
10002c84:	9206      	str	r2, [sp, #24]
10002c86:	5593      	strb	r3, [r2, r6]
10002c88:	e70e      	b.n	10002aa8 <_ftoa+0x160>
10002c8a:	46c0      	nop			@ (mov r8, r8)
10002c8c:	ffefffff 	.word	0xffefffff
10002c90:	7fefffff 	.word	0x7fefffff
10002c94:	41cdcd65 	.word	0x41cdcd65
10002c98:	c1cdcd65 	.word	0xc1cdcd65
10002c9c:	100075b8 	.word	0x100075b8
10002ca0:	3fe00000 	.word	0x3fe00000
10002ca4:	10007094 	.word	0x10007094
10002ca8:	1000708c 	.word	0x1000708c
10002cac:	1000709c 	.word	0x1000709c
10002cb0:	230c      	movs	r3, #12
10002cb2:	9a22      	ldr	r2, [sp, #136]	@ 0x88
10002cb4:	4213      	tst	r3, r2
10002cb6:	d057      	beq.n	10002d68 <_ftoa+0x420>
10002cb8:	9b21      	ldr	r3, [sp, #132]	@ 0x84
10002cba:	3b01      	subs	r3, #1
10002cbc:	9321      	str	r3, [sp, #132]	@ 0x84
10002cbe:	42a3      	cmp	r3, r4
10002cc0:	d900      	bls.n	10002cc4 <_ftoa+0x37c>
10002cc2:	e716      	b.n	10002af2 <_ftoa+0x1aa>
10002cc4:	2c20      	cmp	r4, #32
10002cc6:	d100      	bne.n	10002cca <_ftoa+0x382>
10002cc8:	e71f      	b.n	10002b0a <_ftoa+0x1c2>
10002cca:	9b22      	ldr	r3, [sp, #136]	@ 0x88
10002ccc:	075b      	lsls	r3, r3, #29
10002cce:	d504      	bpl.n	10002cda <_ftoa+0x392>
10002cd0:	232b      	movs	r3, #43	@ 0x2b
10002cd2:	9a06      	ldr	r2, [sp, #24]
10002cd4:	5513      	strb	r3, [r2, r4]
10002cd6:	3401      	adds	r4, #1
10002cd8:	e717      	b.n	10002b0a <_ftoa+0x1c2>
10002cda:	9b22      	ldr	r3, [sp, #136]	@ 0x88
10002cdc:	071b      	lsls	r3, r3, #28
10002cde:	d400      	bmi.n	10002ce2 <_ftoa+0x39a>
10002ce0:	e713      	b.n	10002b0a <_ftoa+0x1c2>
10002ce2:	2320      	movs	r3, #32
10002ce4:	9a06      	ldr	r2, [sp, #24]
10002ce6:	5513      	strb	r3, [r2, r4]
10002ce8:	3401      	adds	r4, #1
10002cea:	e70e      	b.n	10002b0a <_ftoa+0x1c2>
10002cec:	07fb      	lsls	r3, r7, #31
10002cee:	d400      	bmi.n	10002cf2 <_ftoa+0x3aa>
10002cf0:	e6bb      	b.n	10002a6a <_ftoa+0x122>
10002cf2:	3701      	adds	r7, #1
10002cf4:	e6b9      	b.n	10002a6a <_ftoa+0x122>
10002cf6:	9b21      	ldr	r3, [sp, #132]	@ 0x84
10002cf8:	2b04      	cmp	r3, #4
10002cfa:	d800      	bhi.n	10002cfe <_ftoa+0x3b6>
10002cfc:	e74e      	b.n	10002b9c <_ftoa+0x254>
10002cfe:	4655      	mov	r5, sl
10002d00:	464f      	mov	r7, r9
10002d02:	3c04      	subs	r4, #4
10002d04:	18e4      	adds	r4, r4, r3
10002d06:	002a      	movs	r2, r5
10002d08:	4643      	mov	r3, r8
10002d0a:	3501      	adds	r5, #1
10002d0c:	0039      	movs	r1, r7
10002d0e:	2020      	movs	r0, #32
10002d10:	47d8      	blx	fp
10002d12:	42ac      	cmp	r4, r5
10002d14:	d1f7      	bne.n	10002d06 <_ftoa+0x3be>
10002d16:	e741      	b.n	10002b9c <_ftoa+0x254>
10002d18:	2702      	movs	r7, #2
10002d1a:	9b22      	ldr	r3, [sp, #136]	@ 0x88
10002d1c:	4655      	mov	r5, sl
10002d1e:	401f      	ands	r7, r3
10002d20:	079b      	lsls	r3, r3, #30
10002d22:	d026      	beq.n	10002d72 <_ftoa+0x42a>
10002d24:	9706      	str	r7, [sp, #24]
10002d26:	465f      	mov	r7, fp
10002d28:	4e23      	ldr	r6, [pc, #140]	@ (10002db8 <_ftoa+0x470>)
10002d2a:	1cec      	adds	r4, r5, #3
10002d2c:	002a      	movs	r2, r5
10002d2e:	78b0      	ldrb	r0, [r6, #2]
10002d30:	4643      	mov	r3, r8
10002d32:	4649      	mov	r1, r9
10002d34:	3501      	adds	r5, #1
10002d36:	47b8      	blx	r7
10002d38:	3e01      	subs	r6, #1
10002d3a:	42ac      	cmp	r4, r5
10002d3c:	d1f6      	bne.n	10002d2c <_ftoa+0x3e4>
10002d3e:	9f06      	ldr	r7, [sp, #24]
10002d40:	2f00      	cmp	r7, #0
10002d42:	d100      	bne.n	10002d46 <_ftoa+0x3fe>
10002d44:	e6f8      	b.n	10002b38 <_ftoa+0x1f0>
10002d46:	4657      	mov	r7, sl
10002d48:	9a21      	ldr	r2, [sp, #132]	@ 0x84
10002d4a:	1be3      	subs	r3, r4, r7
10002d4c:	429a      	cmp	r2, r3
10002d4e:	d800      	bhi.n	10002d52 <_ftoa+0x40a>
10002d50:	e6f2      	b.n	10002b38 <_ftoa+0x1f0>
10002d52:	0015      	movs	r5, r2
10002d54:	0022      	movs	r2, r4
10002d56:	4643      	mov	r3, r8
10002d58:	4649      	mov	r1, r9
10002d5a:	2020      	movs	r0, #32
10002d5c:	3401      	adds	r4, #1
10002d5e:	47d8      	blx	fp
10002d60:	1be3      	subs	r3, r4, r7
10002d62:	42ab      	cmp	r3, r5
10002d64:	d3f6      	bcc.n	10002d54 <_ftoa+0x40c>
10002d66:	e6e7      	b.n	10002b38 <_ftoa+0x1f0>
10002d68:	9b21      	ldr	r3, [sp, #132]	@ 0x84
10002d6a:	42a3      	cmp	r3, r4
10002d6c:	d900      	bls.n	10002d70 <_ftoa+0x428>
10002d6e:	e6c0      	b.n	10002af2 <_ftoa+0x1aa>
10002d70:	e6cb      	b.n	10002b0a <_ftoa+0x1c2>
10002d72:	9b21      	ldr	r3, [sp, #132]	@ 0x84
10002d74:	2b03      	cmp	r3, #3
10002d76:	d9d5      	bls.n	10002d24 <_ftoa+0x3dc>
10002d78:	9706      	str	r7, [sp, #24]
10002d7a:	4654      	mov	r4, sl
10002d7c:	464f      	mov	r7, r9
10002d7e:	3d03      	subs	r5, #3
10002d80:	18ed      	adds	r5, r5, r3
10002d82:	0022      	movs	r2, r4
10002d84:	4643      	mov	r3, r8
10002d86:	3401      	adds	r4, #1
10002d88:	0039      	movs	r1, r7
10002d8a:	2020      	movs	r0, #32
10002d8c:	47d8      	blx	fp
10002d8e:	42a5      	cmp	r5, r4
10002d90:	d1f7      	bne.n	10002d82 <_ftoa+0x43a>
10002d92:	9f06      	ldr	r7, [sp, #24]
10002d94:	e7c6      	b.n	10002d24 <_ftoa+0x3dc>
10002d96:	9b21      	ldr	r3, [sp, #132]	@ 0x84
10002d98:	2b00      	cmp	r3, #0
10002d9a:	d100      	bne.n	10002d9e <_ftoa+0x456>
10002d9c:	e754      	b.n	10002c48 <_ftoa+0x300>
10002d9e:	9b0b      	ldr	r3, [sp, #44]	@ 0x2c
10002da0:	2b00      	cmp	r3, #0
10002da2:	d085      	beq.n	10002cb0 <_ftoa+0x368>
10002da4:	9b21      	ldr	r3, [sp, #132]	@ 0x84
10002da6:	3b01      	subs	r3, #1
10002da8:	9321      	str	r3, [sp, #132]	@ 0x84
10002daa:	429c      	cmp	r4, r3
10002dac:	d200      	bcs.n	10002db0 <_ftoa+0x468>
10002dae:	e6a0      	b.n	10002af2 <_ftoa+0x1aa>
10002db0:	2c20      	cmp	r4, #32
10002db2:	d000      	beq.n	10002db6 <_ftoa+0x46e>
10002db4:	e74e      	b.n	10002c54 <_ftoa+0x30c>
10002db6:	e6a8      	b.n	10002b0a <_ftoa+0x1c2>
10002db8:	10007098 	.word	0x10007098

10002dbc <_etoa>:
10002dbc:	b5f0      	push	{r4, r5, r6, r7, lr}
10002dbe:	4645      	mov	r5, r8
10002dc0:	46de      	mov	lr, fp
10002dc2:	4657      	mov	r7, sl
10002dc4:	464e      	mov	r6, r9
10002dc6:	b5e0      	push	{r5, r6, r7, lr}
10002dc8:	b09b      	sub	sp, #108	@ 0x6c
10002dca:	9c24      	ldr	r4, [sp, #144]	@ 0x90
10002dcc:	9d25      	ldr	r5, [sp, #148]	@ 0x94
10002dce:	4682      	mov	sl, r0
10002dd0:	4688      	mov	r8, r1
10002dd2:	4693      	mov	fp, r2
10002dd4:	4699      	mov	r9, r3
10002dd6:	0022      	movs	r2, r4
10002dd8:	002b      	movs	r3, r5
10002dda:	0020      	movs	r0, r4
10002ddc:	0029      	movs	r1, r5
10002dde:	f7ff f88e 	bl	10001efe <__wrap___aeabi_dcmpun>
10002de2:	2800      	cmp	r0, #0
10002de4:	d000      	beq.n	10002de8 <_etoa+0x2c>
10002de6:	e0c1      	b.n	10002f6c <_etoa+0x1b0>
10002de8:	2201      	movs	r2, #1
10002dea:	0020      	movs	r0, r4
10002dec:	0029      	movs	r1, r5
10002dee:	4b7c      	ldr	r3, [pc, #496]	@ (10002fe0 <_etoa+0x224>)
10002df0:	4252      	negs	r2, r2
10002df2:	f7ff f87f 	bl	10001ef4 <__wrap___aeabi_dcmpgt>
10002df6:	2800      	cmp	r0, #0
10002df8:	d000      	beq.n	10002dfc <_etoa+0x40>
10002dfa:	e0b7      	b.n	10002f6c <_etoa+0x1b0>
10002dfc:	2201      	movs	r2, #1
10002dfe:	0020      	movs	r0, r4
10002e00:	0029      	movs	r1, r5
10002e02:	4b78      	ldr	r3, [pc, #480]	@ (10002fe4 <_etoa+0x228>)
10002e04:	4252      	negs	r2, r2
10002e06:	f7ff f85f 	bl	10001ec8 <__wrap___aeabi_dcmplt>
10002e0a:	2800      	cmp	r0, #0
10002e0c:	d000      	beq.n	10002e10 <_etoa+0x54>
10002e0e:	e0ad      	b.n	10002f6c <_etoa+0x1b0>
10002e10:	2200      	movs	r2, #0
10002e12:	2300      	movs	r3, #0
10002e14:	0020      	movs	r0, r4
10002e16:	0029      	movs	r1, r5
10002e18:	f7ff f856 	bl	10001ec8 <__wrap___aeabi_dcmplt>
10002e1c:	2800      	cmp	r0, #0
10002e1e:	d000      	beq.n	10002e22 <_etoa+0x66>
10002e20:	e1bb      	b.n	1000319a <_etoa+0x3de>
10002e22:	9408      	str	r4, [sp, #32]
10002e24:	9509      	str	r5, [sp, #36]	@ 0x24
10002e26:	9808      	ldr	r0, [sp, #32]
10002e28:	9909      	ldr	r1, [sp, #36]	@ 0x24
10002e2a:	2380      	movs	r3, #128	@ 0x80
10002e2c:	9a28      	ldr	r2, [sp, #160]	@ 0xa0
10002e2e:	00db      	lsls	r3, r3, #3
10002e30:	401a      	ands	r2, r3
10002e32:	920f      	str	r2, [sp, #60]	@ 0x3c
10002e34:	2280      	movs	r2, #128	@ 0x80
10002e36:	9e28      	ldr	r6, [sp, #160]	@ 0xa0
10002e38:	0112      	lsls	r2, r2, #4
10002e3a:	4016      	ands	r6, r2
10002e3c:	0032      	movs	r2, r6
10002e3e:	960e      	str	r6, [sp, #56]	@ 0x38
10002e40:	9e28      	ldr	r6, [sp, #160]	@ 0xa0
10002e42:	000f      	movs	r7, r1
10002e44:	900a      	str	r0, [sp, #40]	@ 0x28
10002e46:	421e      	tst	r6, r3
10002e48:	d000      	beq.n	10002e4c <_etoa+0x90>
10002e4a:	e0a4      	b.n	10002f96 <_etoa+0x1da>
10002e4c:	000b      	movs	r3, r1
10002e4e:	4303      	orrs	r3, r0
10002e50:	d000      	beq.n	10002e54 <_etoa+0x98>
10002e52:	e0cb      	b.n	10002fec <_etoa+0x230>
10002e54:	2a00      	cmp	r2, #0
10002e56:	d000      	beq.n	10002e5a <_etoa+0x9e>
10002e58:	e212      	b.n	10003280 <_etoa+0x4c4>
10002e5a:	0032      	movs	r2, r6
10002e5c:	3306      	adds	r3, #6
10002e5e:	9326      	str	r3, [sp, #152]	@ 0x98
10002e60:	2302      	movs	r3, #2
10002e62:	4013      	ands	r3, r2
10002e64:	930c      	str	r3, [sp, #48]	@ 0x30
10002e66:	2302      	movs	r3, #2
10002e68:	4213      	tst	r3, r2
10002e6a:	d000      	beq.n	10002e6e <_etoa+0xb2>
10002e6c:	e20a      	b.n	10003284 <_etoa+0x4c8>
10002e6e:	9b27      	ldr	r3, [sp, #156]	@ 0x9c
10002e70:	2b04      	cmp	r3, #4
10002e72:	d200      	bcs.n	10002e76 <_etoa+0xba>
10002e74:	e215      	b.n	100032a2 <_etoa+0x4e6>
10002e76:	2700      	movs	r7, #0
10002e78:	2604      	movs	r6, #4
10002e7a:	3b04      	subs	r3, #4
10002e7c:	930e      	str	r3, [sp, #56]	@ 0x38
10002e7e:	2200      	movs	r2, #0
10002e80:	2300      	movs	r3, #0
10002e82:	0020      	movs	r0, r4
10002e84:	0029      	movs	r1, r5
10002e86:	f7ff f81f 	bl	10001ec8 <__wrap___aeabi_dcmplt>
10002e8a:	2800      	cmp	r0, #0
10002e8c:	d000      	beq.n	10002e90 <_etoa+0xd4>
10002e8e:	e1c8      	b.n	10003222 <_etoa+0x466>
10002e90:	4b55      	ldr	r3, [pc, #340]	@ (10002fe8 <_etoa+0x22c>)
10002e92:	9a28      	ldr	r2, [sp, #160]	@ 0xa0
10002e94:	4013      	ands	r3, r2
10002e96:	9304      	str	r3, [sp, #16]
10002e98:	9b0e      	ldr	r3, [sp, #56]	@ 0x38
10002e9a:	9303      	str	r3, [sp, #12]
10002e9c:	9b26      	ldr	r3, [sp, #152]	@ 0x98
10002e9e:	9302      	str	r3, [sp, #8]
10002ea0:	9b08      	ldr	r3, [sp, #32]
10002ea2:	9c09      	ldr	r4, [sp, #36]	@ 0x24
10002ea4:	9300      	str	r3, [sp, #0]
10002ea6:	9401      	str	r4, [sp, #4]
10002ea8:	4641      	mov	r1, r8
10002eaa:	464b      	mov	r3, r9
10002eac:	465a      	mov	r2, fp
10002eae:	4650      	mov	r0, sl
10002eb0:	f7ff fd4a 	bl	10002948 <_ftoa>
10002eb4:	0002      	movs	r2, r0
10002eb6:	2020      	movs	r0, #32
10002eb8:	9b28      	ldr	r3, [sp, #160]	@ 0xa0
10002eba:	2500      	movs	r5, #0
10002ebc:	4003      	ands	r3, r0
10002ebe:	4259      	negs	r1, r3
10002ec0:	414b      	adcs	r3, r1
10002ec2:	425b      	negs	r3, r3
10002ec4:	4018      	ands	r0, r3
10002ec6:	1c53      	adds	r3, r2, #1
10002ec8:	9308      	str	r3, [sp, #32]
10002eca:	4641      	mov	r1, r8
10002ecc:	464b      	mov	r3, r9
10002ece:	3045      	adds	r0, #69	@ 0x45
10002ed0:	47d0      	blx	sl
10002ed2:	17fb      	asrs	r3, r7, #31
10002ed4:	18fc      	adds	r4, r7, r3
10002ed6:	405c      	eors	r4, r3
10002ed8:	0ffb      	lsrs	r3, r7, #31
10002eda:	271f      	movs	r7, #31
10002edc:	930a      	str	r3, [sp, #40]	@ 0x28
10002ede:	1e73      	subs	r3, r6, #1
10002ee0:	930e      	str	r3, [sp, #56]	@ 0x38
10002ee2:	ab0a      	add	r3, sp, #40	@ 0x28
10002ee4:	18ff      	adds	r7, r7, r3
10002ee6:	e006      	b.n	10002ef6 <_etoa+0x13a>
10002ee8:	0020      	movs	r0, r4
10002eea:	210a      	movs	r1, #10
10002eec:	f7fe fd3e 	bl	1000196c <__wrap___aeabi_uidiv>
10002ef0:	0004      	movs	r4, r0
10002ef2:	2d20      	cmp	r5, #32
10002ef4:	d008      	beq.n	10002f08 <_etoa+0x14c>
10002ef6:	210a      	movs	r1, #10
10002ef8:	0020      	movs	r0, r4
10002efa:	f7fe fd37 	bl	1000196c <__wrap___aeabi_uidiv>
10002efe:	3501      	adds	r5, #1
10002f00:	3130      	adds	r1, #48	@ 0x30
10002f02:	5579      	strb	r1, [r7, r5]
10002f04:	2c09      	cmp	r4, #9
10002f06:	d8ef      	bhi.n	10002ee8 <_etoa+0x12c>
10002f08:	2305      	movs	r3, #5
10002f0a:	9306      	str	r3, [sp, #24]
10002f0c:	9b0e      	ldr	r3, [sp, #56]	@ 0x38
10002f0e:	4656      	mov	r6, sl
10002f10:	9305      	str	r3, [sp, #20]
10002f12:	2300      	movs	r3, #0
10002f14:	9304      	str	r3, [sp, #16]
10002f16:	330a      	adds	r3, #10
10002f18:	9303      	str	r3, [sp, #12]
10002f1a:	9b0a      	ldr	r3, [sp, #40]	@ 0x28
10002f1c:	4641      	mov	r1, r8
10002f1e:	9302      	str	r3, [sp, #8]
10002f20:	ab12      	add	r3, sp, #72	@ 0x48
10002f22:	9300      	str	r3, [sp, #0]
10002f24:	0030      	movs	r0, r6
10002f26:	464b      	mov	r3, r9
10002f28:	9a08      	ldr	r2, [sp, #32]
10002f2a:	9501      	str	r5, [sp, #4]
10002f2c:	f7ff fc10 	bl	10002750 <_ntoa_format>
10002f30:	9b0c      	ldr	r3, [sp, #48]	@ 0x30
10002f32:	2b00      	cmp	r3, #0
10002f34:	d028      	beq.n	10002f88 <_etoa+0x1cc>
10002f36:	465f      	mov	r7, fp
10002f38:	9b27      	ldr	r3, [sp, #156]	@ 0x9c
10002f3a:	1bc4      	subs	r4, r0, r7
10002f3c:	42a3      	cmp	r3, r4
10002f3e:	d923      	bls.n	10002f88 <_etoa+0x1cc>
10002f40:	4682      	mov	sl, r0
10002f42:	001d      	movs	r5, r3
10002f44:	193a      	adds	r2, r7, r4
10002f46:	464b      	mov	r3, r9
10002f48:	4641      	mov	r1, r8
10002f4a:	2020      	movs	r0, #32
10002f4c:	3401      	adds	r4, #1
10002f4e:	47b0      	blx	r6
10002f50:	42a5      	cmp	r5, r4
10002f52:	d8f7      	bhi.n	10002f44 <_etoa+0x188>
10002f54:	4650      	mov	r0, sl
10002f56:	4659      	mov	r1, fp
10002f58:	9c27      	ldr	r4, [sp, #156]	@ 0x9c
10002f5a:	1a42      	subs	r2, r0, r1
10002f5c:	3201      	adds	r2, #1
10002f5e:	2300      	movs	r3, #0
10002f60:	4294      	cmp	r4, r2
10002f62:	d300      	bcc.n	10002f66 <_etoa+0x1aa>
10002f64:	e195      	b.n	10003292 <_etoa+0x4d6>
10002f66:	3001      	adds	r0, #1
10002f68:	1818      	adds	r0, r3, r0
10002f6a:	e00d      	b.n	10002f88 <_etoa+0x1cc>
10002f6c:	9b28      	ldr	r3, [sp, #160]	@ 0xa0
10002f6e:	9400      	str	r4, [sp, #0]
10002f70:	9501      	str	r5, [sp, #4]
10002f72:	9304      	str	r3, [sp, #16]
10002f74:	9b27      	ldr	r3, [sp, #156]	@ 0x9c
10002f76:	9303      	str	r3, [sp, #12]
10002f78:	9b26      	ldr	r3, [sp, #152]	@ 0x98
10002f7a:	9302      	str	r3, [sp, #8]
10002f7c:	464b      	mov	r3, r9
10002f7e:	465a      	mov	r2, fp
10002f80:	4641      	mov	r1, r8
10002f82:	4650      	mov	r0, sl
10002f84:	f7ff fce0 	bl	10002948 <_ftoa>
10002f88:	b01b      	add	sp, #108	@ 0x6c
10002f8a:	bcf0      	pop	{r4, r5, r6, r7}
10002f8c:	46bb      	mov	fp, r7
10002f8e:	46b2      	mov	sl, r6
10002f90:	46a9      	mov	r9, r5
10002f92:	46a0      	mov	r8, r4
10002f94:	bdf0      	pop	{r4, r5, r6, r7, pc}
10002f96:	4301      	orrs	r1, r0
10002f98:	d12a      	bne.n	10002ff0 <_etoa+0x234>
10002f9a:	9b0e      	ldr	r3, [sp, #56]	@ 0x38
10002f9c:	0032      	movs	r2, r6
10002f9e:	2b00      	cmp	r3, #0
10002fa0:	d100      	bne.n	10002fa4 <_etoa+0x1e8>
10002fa2:	e75d      	b.n	10002e60 <_etoa+0xa4>
10002fa4:	2700      	movs	r7, #0
10002fa6:	9b26      	ldr	r3, [sp, #152]	@ 0x98
10002fa8:	2600      	movs	r6, #0
10002faa:	42bb      	cmp	r3, r7
10002fac:	dd00      	ble.n	10002fb0 <_etoa+0x1f4>
10002fae:	e182      	b.n	100032b6 <_etoa+0x4fa>
10002fb0:	2200      	movs	r2, #0
10002fb2:	2300      	movs	r3, #0
10002fb4:	0020      	movs	r0, r4
10002fb6:	0029      	movs	r1, r5
10002fb8:	f7fe ff86 	bl	10001ec8 <__wrap___aeabi_dcmplt>
10002fbc:	2800      	cmp	r0, #0
10002fbe:	d000      	beq.n	10002fc2 <_etoa+0x206>
10002fc0:	e14b      	b.n	1000325a <_etoa+0x49e>
10002fc2:	9b28      	ldr	r3, [sp, #160]	@ 0xa0
10002fc4:	4a08      	ldr	r2, [pc, #32]	@ (10002fe8 <_etoa+0x22c>)
10002fc6:	9602      	str	r6, [sp, #8]
10002fc8:	401a      	ands	r2, r3
10002fca:	2380      	movs	r3, #128	@ 0x80
10002fcc:	00db      	lsls	r3, r3, #3
10002fce:	4313      	orrs	r3, r2
10002fd0:	9304      	str	r3, [sp, #16]
10002fd2:	9b27      	ldr	r3, [sp, #156]	@ 0x9c
10002fd4:	9303      	str	r3, [sp, #12]
10002fd6:	9b08      	ldr	r3, [sp, #32]
10002fd8:	9c09      	ldr	r4, [sp, #36]	@ 0x24
10002fda:	9300      	str	r3, [sp, #0]
10002fdc:	9401      	str	r4, [sp, #4]
10002fde:	e7cd      	b.n	10002f7c <_etoa+0x1c0>
10002fe0:	7fefffff 	.word	0x7fefffff
10002fe4:	ffefffff 	.word	0xffefffff
10002fe8:	fffff7ff 	.word	0xfffff7ff
10002fec:	2306      	movs	r3, #6
10002fee:	9326      	str	r3, [sp, #152]	@ 0x98
10002ff0:	4bb2      	ldr	r3, [pc, #712]	@ (100032bc <_etoa+0x500>)
10002ff2:	0078      	lsls	r0, r7, #1
10002ff4:	0d40      	lsrs	r0, r0, #21
10002ff6:	18c0      	adds	r0, r0, r3
10002ff8:	f7fe ff92 	bl	10001f20 <__wrap___aeabi_i2d>
10002ffc:	4ab0      	ldr	r2, [pc, #704]	@ (100032c0 <_etoa+0x504>)
10002ffe:	4bb1      	ldr	r3, [pc, #708]	@ (100032c4 <_etoa+0x508>)
10003000:	f7fe ff1f 	bl	10001e42 <__wrap___aeabi_dmul>
10003004:	4ab0      	ldr	r2, [pc, #704]	@ (100032c8 <_etoa+0x50c>)
10003006:	4bb1      	ldr	r3, [pc, #708]	@ (100032cc <_etoa+0x510>)
10003008:	f7fe fef4 	bl	10001df4 <__wrap___aeabi_dadd>
1000300c:	033f      	lsls	r7, r7, #12
1000300e:	4bb0      	ldr	r3, [pc, #704]	@ (100032d0 <_etoa+0x514>)
10003010:	0b3f      	lsrs	r7, r7, #12
10003012:	433b      	orrs	r3, r7
10003014:	900c      	str	r0, [sp, #48]	@ 0x30
10003016:	910d      	str	r1, [sp, #52]	@ 0x34
10003018:	2200      	movs	r2, #0
1000301a:	980a      	ldr	r0, [sp, #40]	@ 0x28
1000301c:	0019      	movs	r1, r3
1000301e:	4bad      	ldr	r3, [pc, #692]	@ (100032d4 <_etoa+0x518>)
10003020:	f7fe fedf 	bl	10001de2 <__wrap___aeabi_dsub>
10003024:	4aac      	ldr	r2, [pc, #688]	@ (100032d8 <_etoa+0x51c>)
10003026:	4bad      	ldr	r3, [pc, #692]	@ (100032dc <_etoa+0x520>)
10003028:	f7fe ff0b 	bl	10001e42 <__wrap___aeabi_dmul>
1000302c:	0002      	movs	r2, r0
1000302e:	000b      	movs	r3, r1
10003030:	980c      	ldr	r0, [sp, #48]	@ 0x30
10003032:	990d      	ldr	r1, [sp, #52]	@ 0x34
10003034:	f7fe fede 	bl	10001df4 <__wrap___aeabi_dadd>
10003038:	f7fe ff8a 	bl	10001f50 <__wrap___aeabi_d2iz>
1000303c:	0007      	movs	r7, r0
1000303e:	f7fe ff6f 	bl	10001f20 <__wrap___aeabi_i2d>
10003042:	4aa7      	ldr	r2, [pc, #668]	@ (100032e0 <_etoa+0x524>)
10003044:	4ba7      	ldr	r3, [pc, #668]	@ (100032e4 <_etoa+0x528>)
10003046:	900a      	str	r0, [sp, #40]	@ 0x28
10003048:	910b      	str	r1, [sp, #44]	@ 0x2c
1000304a:	f7fe fefa 	bl	10001e42 <__wrap___aeabi_dmul>
1000304e:	2200      	movs	r2, #0
10003050:	4ba5      	ldr	r3, [pc, #660]	@ (100032e8 <_etoa+0x52c>)
10003052:	f7fe fecf 	bl	10001df4 <__wrap___aeabi_dadd>
10003056:	f7fe ff7b 	bl	10001f50 <__wrap___aeabi_d2iz>
1000305a:	4aa4      	ldr	r2, [pc, #656]	@ (100032ec <_etoa+0x530>)
1000305c:	0006      	movs	r6, r0
1000305e:	980a      	ldr	r0, [sp, #40]	@ 0x28
10003060:	990b      	ldr	r1, [sp, #44]	@ 0x2c
10003062:	4ba3      	ldr	r3, [pc, #652]	@ (100032f0 <_etoa+0x534>)
10003064:	f7fe feed 	bl	10001e42 <__wrap___aeabi_dmul>
10003068:	900a      	str	r0, [sp, #40]	@ 0x28
1000306a:	910b      	str	r1, [sp, #44]	@ 0x2c
1000306c:	0030      	movs	r0, r6
1000306e:	f7fe ff57 	bl	10001f20 <__wrap___aeabi_i2d>
10003072:	4aa0      	ldr	r2, [pc, #640]	@ (100032f4 <_etoa+0x538>)
10003074:	4ba0      	ldr	r3, [pc, #640]	@ (100032f8 <_etoa+0x53c>)
10003076:	f7fe fee4 	bl	10001e42 <__wrap___aeabi_dmul>
1000307a:	0002      	movs	r2, r0
1000307c:	000b      	movs	r3, r1
1000307e:	980a      	ldr	r0, [sp, #40]	@ 0x28
10003080:	990b      	ldr	r1, [sp, #44]	@ 0x2c
10003082:	f7fe feae 	bl	10001de2 <__wrap___aeabi_dsub>
10003086:	0002      	movs	r2, r0
10003088:	000b      	movs	r3, r1
1000308a:	900a      	str	r0, [sp, #40]	@ 0x28
1000308c:	910b      	str	r1, [sp, #44]	@ 0x2c
1000308e:	f7fe fed8 	bl	10001e42 <__wrap___aeabi_dmul>
10003092:	900c      	str	r0, [sp, #48]	@ 0x30
10003094:	910d      	str	r1, [sp, #52]	@ 0x34
10003096:	980a      	ldr	r0, [sp, #40]	@ 0x28
10003098:	990b      	ldr	r1, [sp, #44]	@ 0x2c
1000309a:	0002      	movs	r2, r0
1000309c:	000b      	movs	r3, r1
1000309e:	f7fe fea9 	bl	10001df4 <__wrap___aeabi_dadd>
100030a2:	2200      	movs	r2, #0
100030a4:	9010      	str	r0, [sp, #64]	@ 0x40
100030a6:	9111      	str	r1, [sp, #68]	@ 0x44
100030a8:	980c      	ldr	r0, [sp, #48]	@ 0x30
100030aa:	990d      	ldr	r1, [sp, #52]	@ 0x34
100030ac:	4b93      	ldr	r3, [pc, #588]	@ (100032fc <_etoa+0x540>)
100030ae:	f7fe feaa 	bl	10001e06 <__wrap___aeabi_ddiv>
100030b2:	2200      	movs	r2, #0
100030b4:	4b92      	ldr	r3, [pc, #584]	@ (10003300 <_etoa+0x544>)
100030b6:	f7fe fe9d 	bl	10001df4 <__wrap___aeabi_dadd>
100030ba:	0002      	movs	r2, r0
100030bc:	000b      	movs	r3, r1
100030be:	980c      	ldr	r0, [sp, #48]	@ 0x30
100030c0:	990d      	ldr	r1, [sp, #52]	@ 0x34
100030c2:	f7fe fea0 	bl	10001e06 <__wrap___aeabi_ddiv>
100030c6:	2200      	movs	r2, #0
100030c8:	4b8e      	ldr	r3, [pc, #568]	@ (10003304 <_etoa+0x548>)
100030ca:	f7fe fe93 	bl	10001df4 <__wrap___aeabi_dadd>
100030ce:	0002      	movs	r2, r0
100030d0:	000b      	movs	r3, r1
100030d2:	980c      	ldr	r0, [sp, #48]	@ 0x30
100030d4:	990d      	ldr	r1, [sp, #52]	@ 0x34
100030d6:	f7fe fe96 	bl	10001e06 <__wrap___aeabi_ddiv>
100030da:	9a0a      	ldr	r2, [sp, #40]	@ 0x28
100030dc:	9b0b      	ldr	r3, [sp, #44]	@ 0x2c
100030de:	900c      	str	r0, [sp, #48]	@ 0x30
100030e0:	910d      	str	r1, [sp, #52]	@ 0x34
100030e2:	2180      	movs	r1, #128	@ 0x80
100030e4:	2000      	movs	r0, #0
100030e6:	05c9      	lsls	r1, r1, #23
100030e8:	f7fe fe7b 	bl	10001de2 <__wrap___aeabi_dsub>
100030ec:	0002      	movs	r2, r0
100030ee:	000b      	movs	r3, r1
100030f0:	980c      	ldr	r0, [sp, #48]	@ 0x30
100030f2:	990d      	ldr	r1, [sp, #52]	@ 0x34
100030f4:	f7fe fe7e 	bl	10001df4 <__wrap___aeabi_dadd>
100030f8:	0002      	movs	r2, r0
100030fa:	000b      	movs	r3, r1
100030fc:	9810      	ldr	r0, [sp, #64]	@ 0x40
100030fe:	9911      	ldr	r1, [sp, #68]	@ 0x44
10003100:	f7fe fe81 	bl	10001e06 <__wrap___aeabi_ddiv>
10003104:	2200      	movs	r2, #0
10003106:	4b72      	ldr	r3, [pc, #456]	@ (100032d0 <_etoa+0x514>)
10003108:	f7fe fe74 	bl	10001df4 <__wrap___aeabi_dadd>
1000310c:	4b7e      	ldr	r3, [pc, #504]	@ (10003308 <_etoa+0x54c>)
1000310e:	2200      	movs	r2, #0
10003110:	18f6      	adds	r6, r6, r3
10003112:	0533      	lsls	r3, r6, #20
10003114:	f7fe fe95 	bl	10001e42 <__wrap___aeabi_dmul>
10003118:	0002      	movs	r2, r0
1000311a:	000b      	movs	r3, r1
1000311c:	900a      	str	r0, [sp, #40]	@ 0x28
1000311e:	910b      	str	r1, [sp, #44]	@ 0x2c
10003120:	9808      	ldr	r0, [sp, #32]
10003122:	9909      	ldr	r1, [sp, #36]	@ 0x24
10003124:	f7fe fed0 	bl	10001ec8 <__wrap___aeabi_dcmplt>
10003128:	2800      	cmp	r0, #0
1000312a:	d008      	beq.n	1000313e <_etoa+0x382>
1000312c:	980a      	ldr	r0, [sp, #40]	@ 0x28
1000312e:	990b      	ldr	r1, [sp, #44]	@ 0x2c
10003130:	2200      	movs	r2, #0
10003132:	4b73      	ldr	r3, [pc, #460]	@ (10003300 <_etoa+0x544>)
10003134:	f7fe fe67 	bl	10001e06 <__wrap___aeabi_ddiv>
10003138:	900a      	str	r0, [sp, #40]	@ 0x28
1000313a:	910b      	str	r1, [sp, #44]	@ 0x2c
1000313c:	3f01      	subs	r7, #1
1000313e:	990a      	ldr	r1, [sp, #40]	@ 0x28
10003140:	9a0b      	ldr	r2, [sp, #44]	@ 0x2c
10003142:	000b      	movs	r3, r1
10003144:	0011      	movs	r1, r2
10003146:	003a      	movs	r2, r7
10003148:	3263      	adds	r2, #99	@ 0x63
1000314a:	2ac6      	cmp	r2, #198	@ 0xc6
1000314c:	d812      	bhi.n	10003174 <_etoa+0x3b8>
1000314e:	2202      	movs	r2, #2
10003150:	9828      	ldr	r0, [sp, #160]	@ 0xa0
10003152:	2604      	movs	r6, #4
10003154:	4010      	ands	r0, r2
10003156:	9a0e      	ldr	r2, [sp, #56]	@ 0x38
10003158:	900c      	str	r0, [sp, #48]	@ 0x30
1000315a:	2a00      	cmp	r2, #0
1000315c:	d126      	bne.n	100031ac <_etoa+0x3f0>
1000315e:	9b27      	ldr	r3, [sp, #156]	@ 0x9c
10003160:	2b04      	cmp	r3, #4
10003162:	d905      	bls.n	10003170 <_etoa+0x3b4>
10003164:	2800      	cmp	r0, #0
10003166:	d000      	beq.n	1000316a <_etoa+0x3ae>
10003168:	e0a1      	b.n	100032ae <_etoa+0x4f2>
1000316a:	9b27      	ldr	r3, [sp, #156]	@ 0x9c
1000316c:	3b04      	subs	r3, #4
1000316e:	930e      	str	r3, [sp, #56]	@ 0x38
10003170:	2604      	movs	r6, #4
10003172:	e042      	b.n	100031fa <_etoa+0x43e>
10003174:	2202      	movs	r2, #2
10003176:	9828      	ldr	r0, [sp, #160]	@ 0xa0
10003178:	4010      	ands	r0, r2
1000317a:	9a0e      	ldr	r2, [sp, #56]	@ 0x38
1000317c:	900c      	str	r0, [sp, #48]	@ 0x30
1000317e:	2a00      	cmp	r2, #0
10003180:	d113      	bne.n	100031aa <_etoa+0x3ee>
10003182:	9b27      	ldr	r3, [sp, #156]	@ 0x9c
10003184:	2b05      	cmp	r3, #5
10003186:	d800      	bhi.n	1000318a <_etoa+0x3ce>
10003188:	e089      	b.n	1000329e <_etoa+0x4e2>
1000318a:	2800      	cmp	r0, #0
1000318c:	d000      	beq.n	10003190 <_etoa+0x3d4>
1000318e:	e084      	b.n	1000329a <_etoa+0x4de>
10003190:	9b27      	ldr	r3, [sp, #156]	@ 0x9c
10003192:	2605      	movs	r6, #5
10003194:	3b05      	subs	r3, #5
10003196:	930e      	str	r3, [sp, #56]	@ 0x38
10003198:	e032      	b.n	10003200 <_etoa+0x444>
1000319a:	2380      	movs	r3, #128	@ 0x80
1000319c:	061b      	lsls	r3, r3, #24
1000319e:	469c      	mov	ip, r3
100031a0:	44ac      	add	ip, r5
100031a2:	4663      	mov	r3, ip
100031a4:	9408      	str	r4, [sp, #32]
100031a6:	9309      	str	r3, [sp, #36]	@ 0x24
100031a8:	e63d      	b.n	10002e26 <_etoa+0x6a>
100031aa:	2605      	movs	r6, #5
100031ac:	430b      	orrs	r3, r1
100031ae:	d100      	bne.n	100031b2 <_etoa+0x3f6>
100031b0:	e6f9      	b.n	10002fa6 <_etoa+0x1ea>
100031b2:	9808      	ldr	r0, [sp, #32]
100031b4:	9909      	ldr	r1, [sp, #36]	@ 0x24
100031b6:	4a55      	ldr	r2, [pc, #340]	@ (1000330c <_etoa+0x550>)
100031b8:	4b55      	ldr	r3, [pc, #340]	@ (10003310 <_etoa+0x554>)
100031ba:	f7fe fe93 	bl	10001ee4 <__wrap___aeabi_dcmpge>
100031be:	2800      	cmp	r0, #0
100031c0:	d008      	beq.n	100031d4 <_etoa+0x418>
100031c2:	9808      	ldr	r0, [sp, #32]
100031c4:	9909      	ldr	r1, [sp, #36]	@ 0x24
100031c6:	2200      	movs	r2, #0
100031c8:	4b52      	ldr	r3, [pc, #328]	@ (10003314 <_etoa+0x558>)
100031ca:	f7fe fe7d 	bl	10001ec8 <__wrap___aeabi_dcmplt>
100031ce:	2800      	cmp	r0, #0
100031d0:	d000      	beq.n	100031d4 <_etoa+0x418>
100031d2:	e6e8      	b.n	10002fa6 <_etoa+0x1ea>
100031d4:	9b26      	ldr	r3, [sp, #152]	@ 0x98
100031d6:	2b00      	cmp	r3, #0
100031d8:	d034      	beq.n	10003244 <_etoa+0x488>
100031da:	9b0f      	ldr	r3, [sp, #60]	@ 0x3c
100031dc:	2b00      	cmp	r3, #0
100031de:	d031      	beq.n	10003244 <_etoa+0x488>
100031e0:	9b26      	ldr	r3, [sp, #152]	@ 0x98
100031e2:	3b01      	subs	r3, #1
100031e4:	9326      	str	r3, [sp, #152]	@ 0x98
100031e6:	9b27      	ldr	r3, [sp, #156]	@ 0x9c
100031e8:	42b3      	cmp	r3, r6
100031ea:	d904      	bls.n	100031f6 <_etoa+0x43a>
100031ec:	9b0c      	ldr	r3, [sp, #48]	@ 0x30
100031ee:	2b00      	cmp	r3, #0
100031f0:	d059      	beq.n	100032a6 <_etoa+0x4ea>
100031f2:	2302      	movs	r3, #2
100031f4:	930c      	str	r3, [sp, #48]	@ 0x30
100031f6:	2300      	movs	r3, #0
100031f8:	930e      	str	r3, [sp, #56]	@ 0x38
100031fa:	2f00      	cmp	r7, #0
100031fc:	d100      	bne.n	10003200 <_etoa+0x444>
100031fe:	e63e      	b.n	10002e7e <_etoa+0xc2>
10003200:	9a0a      	ldr	r2, [sp, #40]	@ 0x28
10003202:	9b0b      	ldr	r3, [sp, #44]	@ 0x2c
10003204:	9808      	ldr	r0, [sp, #32]
10003206:	9909      	ldr	r1, [sp, #36]	@ 0x24
10003208:	f7fe fdfd 	bl	10001e06 <__wrap___aeabi_ddiv>
1000320c:	2200      	movs	r2, #0
1000320e:	9008      	str	r0, [sp, #32]
10003210:	9109      	str	r1, [sp, #36]	@ 0x24
10003212:	2300      	movs	r3, #0
10003214:	0020      	movs	r0, r4
10003216:	0029      	movs	r1, r5
10003218:	f7fe fe56 	bl	10001ec8 <__wrap___aeabi_dcmplt>
1000321c:	2800      	cmp	r0, #0
1000321e:	d100      	bne.n	10003222 <_etoa+0x466>
10003220:	e636      	b.n	10002e90 <_etoa+0xd4>
10003222:	9c08      	ldr	r4, [sp, #32]
10003224:	9d09      	ldr	r5, [sp, #36]	@ 0x24
10003226:	9a28      	ldr	r2, [sp, #160]	@ 0xa0
10003228:	2080      	movs	r0, #128	@ 0x80
1000322a:	4b3b      	ldr	r3, [pc, #236]	@ (10003318 <_etoa+0x55c>)
1000322c:	0600      	lsls	r0, r0, #24
1000322e:	4013      	ands	r3, r2
10003230:	0022      	movs	r2, r4
10003232:	9304      	str	r3, [sp, #16]
10003234:	9b0e      	ldr	r3, [sp, #56]	@ 0x38
10003236:	9303      	str	r3, [sp, #12]
10003238:	9b26      	ldr	r3, [sp, #152]	@ 0x98
1000323a:	9302      	str	r3, [sp, #8]
1000323c:	182b      	adds	r3, r5, r0
1000323e:	9200      	str	r2, [sp, #0]
10003240:	9301      	str	r3, [sp, #4]
10003242:	e631      	b.n	10002ea8 <_etoa+0xec>
10003244:	9b27      	ldr	r3, [sp, #156]	@ 0x9c
10003246:	42b3      	cmp	r3, r6
10003248:	d9d5      	bls.n	100031f6 <_etoa+0x43a>
1000324a:	9b0c      	ldr	r3, [sp, #48]	@ 0x30
1000324c:	2b00      	cmp	r3, #0
1000324e:	d02a      	beq.n	100032a6 <_etoa+0x4ea>
10003250:	2300      	movs	r3, #0
10003252:	930e      	str	r3, [sp, #56]	@ 0x38
10003254:	3302      	adds	r3, #2
10003256:	930c      	str	r3, [sp, #48]	@ 0x30
10003258:	e7cf      	b.n	100031fa <_etoa+0x43e>
1000325a:	9b28      	ldr	r3, [sp, #160]	@ 0xa0
1000325c:	4a2e      	ldr	r2, [pc, #184]	@ (10003318 <_etoa+0x55c>)
1000325e:	2080      	movs	r0, #128	@ 0x80
10003260:	9c08      	ldr	r4, [sp, #32]
10003262:	9d09      	ldr	r5, [sp, #36]	@ 0x24
10003264:	401a      	ands	r2, r3
10003266:	2380      	movs	r3, #128	@ 0x80
10003268:	00db      	lsls	r3, r3, #3
1000326a:	4313      	orrs	r3, r2
1000326c:	0022      	movs	r2, r4
1000326e:	9304      	str	r3, [sp, #16]
10003270:	9b27      	ldr	r3, [sp, #156]	@ 0x9c
10003272:	0600      	lsls	r0, r0, #24
10003274:	9303      	str	r3, [sp, #12]
10003276:	182b      	adds	r3, r5, r0
10003278:	9200      	str	r2, [sp, #0]
1000327a:	9301      	str	r3, [sp, #4]
1000327c:	9602      	str	r6, [sp, #8]
1000327e:	e67d      	b.n	10002f7c <_etoa+0x1c0>
10003280:	2605      	movs	r6, #5
10003282:	e695      	b.n	10002fb0 <_etoa+0x1f4>
10003284:	2300      	movs	r3, #0
10003286:	930e      	str	r3, [sp, #56]	@ 0x38
10003288:	3302      	adds	r3, #2
1000328a:	2700      	movs	r7, #0
1000328c:	2604      	movs	r6, #4
1000328e:	930c      	str	r3, [sp, #48]	@ 0x30
10003290:	e5f5      	b.n	10002e7e <_etoa+0xc2>
10003292:	1e4b      	subs	r3, r1, #1
10003294:	191b      	adds	r3, r3, r4
10003296:	1a1b      	subs	r3, r3, r0
10003298:	e665      	b.n	10002f66 <_etoa+0x1aa>
1000329a:	2302      	movs	r3, #2
1000329c:	930c      	str	r3, [sp, #48]	@ 0x30
1000329e:	2605      	movs	r6, #5
100032a0:	e7ae      	b.n	10003200 <_etoa+0x444>
100032a2:	2304      	movs	r3, #4
100032a4:	e5e7      	b.n	10002e76 <_etoa+0xba>
100032a6:	9b27      	ldr	r3, [sp, #156]	@ 0x9c
100032a8:	1b9b      	subs	r3, r3, r6
100032aa:	930e      	str	r3, [sp, #56]	@ 0x38
100032ac:	e7a5      	b.n	100031fa <_etoa+0x43e>
100032ae:	2302      	movs	r3, #2
100032b0:	2604      	movs	r6, #4
100032b2:	930c      	str	r3, [sp, #48]	@ 0x30
100032b4:	e7a1      	b.n	100031fa <_etoa+0x43e>
100032b6:	1bdb      	subs	r3, r3, r7
100032b8:	1e5e      	subs	r6, r3, #1
100032ba:	e679      	b.n	10002fb0 <_etoa+0x1f4>
100032bc:	fffffc01 	.word	0xfffffc01
100032c0:	509f79fb 	.word	0x509f79fb
100032c4:	3fd34413 	.word	0x3fd34413
100032c8:	8b60c8b3 	.word	0x8b60c8b3
100032cc:	3fc68a28 	.word	0x3fc68a28
100032d0:	3ff00000 	.word	0x3ff00000
100032d4:	3ff80000 	.word	0x3ff80000
100032d8:	636f4361 	.word	0x636f4361
100032dc:	3fd287a7 	.word	0x3fd287a7
100032e0:	0979a371 	.word	0x0979a371
100032e4:	400a934f 	.word	0x400a934f
100032e8:	3fe00000 	.word	0x3fe00000
100032ec:	bbb55516 	.word	0xbbb55516
100032f0:	40026bb1 	.word	0x40026bb1
100032f4:	fefa39ef 	.word	0xfefa39ef
100032f8:	3fe62e42 	.word	0x3fe62e42
100032fc:	402c0000 	.word	0x402c0000
10003300:	40240000 	.word	0x40240000
10003304:	40180000 	.word	0x40180000
10003308:	000003ff 	.word	0x000003ff
1000330c:	eb1c432d 	.word	0xeb1c432d
10003310:	3f1a36e2 	.word	0x3f1a36e2
10003314:	412e8480 	.word	0x412e8480
10003318:	fffff7ff 	.word	0xfffff7ff

1000331c <_vsnprintf>:
1000331c:	b5f0      	push	{r4, r5, r6, r7, lr}
1000331e:	4657      	mov	r7, sl
10003320:	46de      	mov	lr, fp
10003322:	464e      	mov	r6, r9
10003324:	4645      	mov	r5, r8
10003326:	b5e0      	push	{r5, r6, r7, lr}
10003328:	b0a3      	sub	sp, #140	@ 0x8c
1000332a:	001f      	movs	r7, r3
1000332c:	9b2c      	ldr	r3, [sp, #176]	@ 0xb0
1000332e:	4692      	mov	sl, r2
10003330:	930c      	str	r3, [sp, #48]	@ 0x30
10003332:	4ac9      	ldr	r2, [pc, #804]	@ (10003658 <_vsnprintf+0x33c>)
10003334:	4bc9      	ldr	r3, [pc, #804]	@ (1000365c <_vsnprintf+0x340>)
10003336:	468b      	mov	fp, r1
10003338:	900b      	str	r0, [sp, #44]	@ 0x2c
1000333a:	601a      	str	r2, [r3, #0]
1000333c:	2900      	cmp	r1, #0
1000333e:	d100      	bne.n	10003342 <_vsnprintf+0x26>
10003340:	e1bf      	b.n	100036c2 <_vsnprintf+0x3a6>
10003342:	2300      	movs	r3, #0
10003344:	7838      	ldrb	r0, [r7, #0]
10003346:	4699      	mov	r9, r3
10003348:	2800      	cmp	r0, #0
1000334a:	d100      	bne.n	1000334e <_vsnprintf+0x32>
1000334c:	e1c1      	b.n	100036d2 <_vsnprintf+0x3b6>
1000334e:	4bc4      	ldr	r3, [pc, #784]	@ (10003660 <_vsnprintf+0x344>)
10003350:	464c      	mov	r4, r9
10003352:	9309      	str	r3, [sp, #36]	@ 0x24
10003354:	4bc3      	ldr	r3, [pc, #780]	@ (10003664 <_vsnprintf+0x348>)
10003356:	930e      	str	r3, [sp, #56]	@ 0x38
10003358:	465b      	mov	r3, fp
1000335a:	930a      	str	r3, [sp, #40]	@ 0x28
1000335c:	e008      	b.n	10003370 <_vsnprintf+0x54>
1000335e:	0022      	movs	r2, r4
10003360:	4653      	mov	r3, sl
10003362:	990a      	ldr	r1, [sp, #40]	@ 0x28
10003364:	9d0b      	ldr	r5, [sp, #44]	@ 0x2c
10003366:	47a8      	blx	r5
10003368:	3401      	adds	r4, #1
1000336a:	7838      	ldrb	r0, [r7, #0]
1000336c:	2800      	cmp	r0, #0
1000336e:	d076      	beq.n	1000345e <_vsnprintf+0x142>
10003370:	3701      	adds	r7, #1
10003372:	2825      	cmp	r0, #37	@ 0x25
10003374:	d1f3      	bne.n	1000335e <_vsnprintf+0x42>
10003376:	2310      	movs	r3, #16
10003378:	469b      	mov	fp, r3
1000337a:	3b08      	subs	r3, #8
1000337c:	4699      	mov	r9, r3
1000337e:	3b04      	subs	r3, #4
10003380:	4698      	mov	r8, r3
10003382:	3b03      	subs	r3, #3
10003384:	2600      	movs	r6, #0
10003386:	2502      	movs	r5, #2
10003388:	469c      	mov	ip, r3
1000338a:	7838      	ldrb	r0, [r7, #0]
1000338c:	1c79      	adds	r1, r7, #1
1000338e:	0003      	movs	r3, r0
10003390:	3b20      	subs	r3, #32
10003392:	b2db      	uxtb	r3, r3
10003394:	2b10      	cmp	r3, #16
10003396:	d803      	bhi.n	100033a0 <_vsnprintf+0x84>
10003398:	9a09      	ldr	r2, [sp, #36]	@ 0x24
1000339a:	009b      	lsls	r3, r3, #2
1000339c:	58d3      	ldr	r3, [r2, r3]
1000339e:	469f      	mov	pc, r3
100033a0:	0003      	movs	r3, r0
100033a2:	3b30      	subs	r3, #48	@ 0x30
100033a4:	2b09      	cmp	r3, #9
100033a6:	d936      	bls.n	10003416 <_vsnprintf+0xfa>
100033a8:	2500      	movs	r5, #0
100033aa:	282a      	cmp	r0, #42	@ 0x2a
100033ac:	d100      	bne.n	100033b0 <_vsnprintf+0x94>
100033ae:	e0a7      	b.n	10003500 <_vsnprintf+0x1e4>
100033b0:	2300      	movs	r3, #0
100033b2:	930d      	str	r3, [sp, #52]	@ 0x34
100033b4:	282e      	cmp	r0, #46	@ 0x2e
100033b6:	d03f      	beq.n	10003438 <_vsnprintf+0x11c>
100033b8:	0003      	movs	r3, r0
100033ba:	3b68      	subs	r3, #104	@ 0x68
100033bc:	b2db      	uxtb	r3, r3
100033be:	2b12      	cmp	r3, #18
100033c0:	d81b      	bhi.n	100033fa <_vsnprintf+0xde>
100033c2:	9a0e      	ldr	r2, [sp, #56]	@ 0x38
100033c4:	009b      	lsls	r3, r3, #2
100033c6:	58d3      	ldr	r3, [r2, r3]
100033c8:	469f      	mov	pc, r3
100033ca:	4663      	mov	r3, ip
100033cc:	000f      	movs	r7, r1
100033ce:	431e      	orrs	r6, r3
100033d0:	e7db      	b.n	1000338a <_vsnprintf+0x6e>
100033d2:	000f      	movs	r7, r1
100033d4:	432e      	orrs	r6, r5
100033d6:	e7d8      	b.n	1000338a <_vsnprintf+0x6e>
100033d8:	4643      	mov	r3, r8
100033da:	000f      	movs	r7, r1
100033dc:	431e      	orrs	r6, r3
100033de:	e7d4      	b.n	1000338a <_vsnprintf+0x6e>
100033e0:	465b      	mov	r3, fp
100033e2:	000f      	movs	r7, r1
100033e4:	431e      	orrs	r6, r3
100033e6:	e7d0      	b.n	1000338a <_vsnprintf+0x6e>
100033e8:	464b      	mov	r3, r9
100033ea:	000f      	movs	r7, r1
100033ec:	431e      	orrs	r6, r3
100033ee:	e7cc      	b.n	1000338a <_vsnprintf+0x6e>
100033f0:	2380      	movs	r3, #128	@ 0x80
100033f2:	7878      	ldrb	r0, [r7, #1]
100033f4:	005b      	lsls	r3, r3, #1
100033f6:	431e      	orrs	r6, r3
100033f8:	3101      	adds	r1, #1
100033fa:	000f      	movs	r7, r1
100033fc:	2867      	cmp	r0, #103	@ 0x67
100033fe:	d845      	bhi.n	1000348c <_vsnprintf+0x170>
10003400:	2824      	cmp	r0, #36	@ 0x24
10003402:	d9ac      	bls.n	1000335e <_vsnprintf+0x42>
10003404:	0003      	movs	r3, r0
10003406:	3b25      	subs	r3, #37	@ 0x25
10003408:	b2db      	uxtb	r3, r3
1000340a:	2b42      	cmp	r3, #66	@ 0x42
1000340c:	d8a7      	bhi.n	1000335e <_vsnprintf+0x42>
1000340e:	4996      	ldr	r1, [pc, #600]	@ (10003668 <_vsnprintf+0x34c>)
10003410:	009b      	lsls	r3, r3, #2
10003412:	58cb      	ldr	r3, [r1, r3]
10003414:	469f      	mov	pc, r3
10003416:	2500      	movs	r5, #0
10003418:	00ab      	lsls	r3, r5, #2
1000341a:	195d      	adds	r5, r3, r5
1000341c:	006d      	lsls	r5, r5, #1
1000341e:	182d      	adds	r5, r5, r0
10003420:	7808      	ldrb	r0, [r1, #0]
10003422:	000f      	movs	r7, r1
10003424:	0003      	movs	r3, r0
10003426:	3b30      	subs	r3, #48	@ 0x30
10003428:	3d30      	subs	r5, #48	@ 0x30
1000342a:	3101      	adds	r1, #1
1000342c:	2b09      	cmp	r3, #9
1000342e:	d9f3      	bls.n	10003418 <_vsnprintf+0xfc>
10003430:	2300      	movs	r3, #0
10003432:	930d      	str	r3, [sp, #52]	@ 0x34
10003434:	282e      	cmp	r0, #46	@ 0x2e
10003436:	d1bf      	bne.n	100033b8 <_vsnprintf+0x9c>
10003438:	2230      	movs	r2, #48	@ 0x30
1000343a:	2080      	movs	r0, #128	@ 0x80
1000343c:	4252      	negs	r2, r2
1000343e:	4690      	mov	r8, r2
10003440:	00c0      	lsls	r0, r0, #3
10003442:	4306      	orrs	r6, r0
10003444:	7878      	ldrb	r0, [r7, #1]
10003446:	000b      	movs	r3, r1
10003448:	4480      	add	r8, r0
1000344a:	4642      	mov	r2, r8
1000344c:	2a09      	cmp	r2, #9
1000344e:	d800      	bhi.n	10003452 <_vsnprintf+0x136>
10003450:	e151      	b.n	100036f6 <_vsnprintf+0x3da>
10003452:	282a      	cmp	r0, #42	@ 0x2a
10003454:	d100      	bne.n	10003458 <_vsnprintf+0x13c>
10003456:	e15e      	b.n	10003716 <_vsnprintf+0x3fa>
10003458:	000f      	movs	r7, r1
1000345a:	3101      	adds	r1, #1
1000345c:	e7ac      	b.n	100033b8 <_vsnprintf+0x9c>
1000345e:	9b0a      	ldr	r3, [sp, #40]	@ 0x28
10003460:	46a1      	mov	r9, r4
10003462:	469b      	mov	fp, r3
10003464:	45ca      	cmp	sl, r9
10003466:	d803      	bhi.n	10003470 <_vsnprintf+0x154>
10003468:	2301      	movs	r3, #1
1000346a:	425b      	negs	r3, r3
1000346c:	4453      	add	r3, sl
1000346e:	4699      	mov	r9, r3
10003470:	4653      	mov	r3, sl
10003472:	464a      	mov	r2, r9
10003474:	4659      	mov	r1, fp
10003476:	2000      	movs	r0, #0
10003478:	9d0b      	ldr	r5, [sp, #44]	@ 0x2c
1000347a:	47a8      	blx	r5
1000347c:	0020      	movs	r0, r4
1000347e:	b023      	add	sp, #140	@ 0x8c
10003480:	bcf0      	pop	{r4, r5, r6, r7}
10003482:	46bb      	mov	fp, r7
10003484:	46b2      	mov	sl, r6
10003486:	46a9      	mov	r9, r5
10003488:	46a0      	mov	r8, r4
1000348a:	bdf0      	pop	{r4, r5, r6, r7, pc}
1000348c:	0003      	movs	r3, r0
1000348e:	3b69      	subs	r3, #105	@ 0x69
10003490:	b2db      	uxtb	r3, r3
10003492:	2b0f      	cmp	r3, #15
10003494:	d900      	bls.n	10003498 <_vsnprintf+0x17c>
10003496:	e762      	b.n	1000335e <_vsnprintf+0x42>
10003498:	2101      	movs	r1, #1
1000349a:	4099      	lsls	r1, r3
1000349c:	4688      	mov	r8, r1
1000349e:	4a73      	ldr	r2, [pc, #460]	@ (1000366c <_vsnprintf+0x350>)
100034a0:	4011      	ands	r1, r2
100034a2:	468b      	mov	fp, r1
100034a4:	0011      	movs	r1, r2
100034a6:	4642      	mov	r2, r8
100034a8:	420a      	tst	r2, r1
100034aa:	d000      	beq.n	100034ae <_vsnprintf+0x192>
100034ac:	e113      	b.n	100036d6 <_vsnprintf+0x3ba>
100034ae:	2b0a      	cmp	r3, #10
100034b0:	d02f      	beq.n	10003512 <_vsnprintf+0x1f6>
100034b2:	2b07      	cmp	r3, #7
100034b4:	d000      	beq.n	100034b8 <_vsnprintf+0x19c>
100034b6:	e752      	b.n	1000335e <_vsnprintf+0x42>
100034b8:	9d0c      	ldr	r5, [sp, #48]	@ 0x30
100034ba:	cd01      	ldmia	r5!, {r0}
100034bc:	2800      	cmp	r0, #0
100034be:	d100      	bne.n	100034c2 <_vsnprintf+0x1a6>
100034c0:	e134      	b.n	1000372c <_vsnprintf+0x410>
100034c2:	2321      	movs	r3, #33	@ 0x21
100034c4:	431e      	orrs	r6, r3
100034c6:	46b0      	mov	r8, r6
100034c8:	261f      	movs	r6, #31
100034ca:	9a0d      	ldr	r2, [sp, #52]	@ 0x34
100034cc:	ab12      	add	r3, sp, #72	@ 0x48
100034ce:	18f6      	adds	r6, r6, r3
100034d0:	46a1      	mov	r9, r4
100034d2:	4694      	mov	ip, r2
100034d4:	4659      	mov	r1, fp
100034d6:	0034      	movs	r4, r6
100034d8:	e002      	b.n	100034e0 <_vsnprintf+0x1c4>
100034da:	0900      	lsrs	r0, r0, #4
100034dc:	2920      	cmp	r1, #32
100034de:	d00a      	beq.n	100034f6 <_vsnprintf+0x1da>
100034e0:	260f      	movs	r6, #15
100034e2:	4006      	ands	r6, r0
100034e4:	0032      	movs	r2, r6
100034e6:	3237      	adds	r2, #55	@ 0x37
100034e8:	2e09      	cmp	r6, #9
100034ea:	d800      	bhi.n	100034ee <_vsnprintf+0x1d2>
100034ec:	3a07      	subs	r2, #7
100034ee:	3101      	adds	r1, #1
100034f0:	5462      	strb	r2, [r4, r1]
100034f2:	280f      	cmp	r0, #15
100034f4:	d8f1      	bhi.n	100034da <_vsnprintf+0x1be>
100034f6:	4663      	mov	r3, ip
100034f8:	464c      	mov	r4, r9
100034fa:	468b      	mov	fp, r1
100034fc:	930d      	str	r3, [sp, #52]	@ 0x34
100034fe:	e122      	b.n	10003746 <_vsnprintf+0x42a>
10003500:	9b0c      	ldr	r3, [sp, #48]	@ 0x30
10003502:	cb20      	ldmia	r3!, {r5}
10003504:	2d00      	cmp	r5, #0
10003506:	db52      	blt.n	100035ae <_vsnprintf+0x292>
10003508:	7878      	ldrb	r0, [r7, #1]
1000350a:	930c      	str	r3, [sp, #48]	@ 0x30
1000350c:	000f      	movs	r7, r1
1000350e:	3101      	adds	r1, #1
10003510:	e74e      	b.n	100033b0 <_vsnprintf+0x94>
10003512:	9b0c      	ldr	r3, [sp, #48]	@ 0x30
10003514:	990d      	ldr	r1, [sp, #52]	@ 0x34
10003516:	cb04      	ldmia	r3!, {r2}
10003518:	4690      	mov	r8, r2
1000351a:	469b      	mov	fp, r3
1000351c:	2900      	cmp	r1, #0
1000351e:	d100      	bne.n	10003522 <_vsnprintf+0x206>
10003520:	e128      	b.n	10003774 <_vsnprintf+0x458>
10003522:	4643      	mov	r3, r8
10003524:	7818      	ldrb	r0, [r3, #0]
10003526:	4441      	add	r1, r8
10003528:	2800      	cmp	r0, #0
1000352a:	d101      	bne.n	10003530 <_vsnprintf+0x214>
1000352c:	f000 fc29 	bl	10003d82 <_vsnprintf+0xa66>
10003530:	9a0d      	ldr	r2, [sp, #52]	@ 0x34
10003532:	4694      	mov	ip, r2
10003534:	000a      	movs	r2, r1
10003536:	e004      	b.n	10003542 <_vsnprintf+0x226>
10003538:	7859      	ldrb	r1, [r3, #1]
1000353a:	3301      	adds	r3, #1
1000353c:	2900      	cmp	r1, #0
1000353e:	d100      	bne.n	10003542 <_vsnprintf+0x226>
10003540:	e195      	b.n	1000386e <_vsnprintf+0x552>
10003542:	429a      	cmp	r2, r3
10003544:	d1f8      	bne.n	10003538 <_vsnprintf+0x21c>
10003546:	4663      	mov	r3, ip
10003548:	930d      	str	r3, [sp, #52]	@ 0x34
1000354a:	4643      	mov	r3, r8
1000354c:	1ad3      	subs	r3, r2, r3
1000354e:	930f      	str	r3, [sp, #60]	@ 0x3c
10003550:	0573      	lsls	r3, r6, #21
10003552:	d400      	bmi.n	10003556 <_vsnprintf+0x23a>
10003554:	e16c      	b.n	10003830 <_vsnprintf+0x514>
10003556:	9b0f      	ldr	r3, [sp, #60]	@ 0x3c
10003558:	9a0d      	ldr	r2, [sp, #52]	@ 0x34
1000355a:	4293      	cmp	r3, r2
1000355c:	d900      	bls.n	10003560 <_vsnprintf+0x244>
1000355e:	920f      	str	r2, [sp, #60]	@ 0x3c
10003560:	2302      	movs	r3, #2
10003562:	001a      	movs	r2, r3
10003564:	4032      	ands	r2, r6
10003566:	920c      	str	r2, [sp, #48]	@ 0x30
10003568:	4233      	tst	r3, r6
1000356a:	d100      	bne.n	1000356e <_vsnprintf+0x252>
1000356c:	e291      	b.n	10003a92 <_vsnprintf+0x776>
1000356e:	930c      	str	r3, [sp, #48]	@ 0x30
10003570:	9b0d      	ldr	r3, [sp, #52]	@ 0x34
10003572:	46b9      	mov	r9, r7
10003574:	191e      	adds	r6, r3, r4
10003576:	4643      	mov	r3, r8
10003578:	1b1b      	subs	r3, r3, r4
1000357a:	46a8      	mov	r8, r5
1000357c:	0022      	movs	r2, r4
1000357e:	001f      	movs	r7, r3
10003580:	9d0b      	ldr	r5, [sp, #44]	@ 0x2c
10003582:	e008      	b.n	10003596 <_vsnprintf+0x27a>
10003584:	1c54      	adds	r4, r2, #1
10003586:	4653      	mov	r3, sl
10003588:	990a      	ldr	r1, [sp, #40]	@ 0x28
1000358a:	47a8      	blx	r5
1000358c:	5d38      	ldrb	r0, [r7, r4]
1000358e:	2800      	cmp	r0, #0
10003590:	d100      	bne.n	10003594 <_vsnprintf+0x278>
10003592:	e163      	b.n	1000385c <_vsnprintf+0x540>
10003594:	0022      	movs	r2, r4
10003596:	4296      	cmp	r6, r2
10003598:	d1f4      	bne.n	10003584 <_vsnprintf+0x268>
1000359a:	4645      	mov	r5, r8
1000359c:	464f      	mov	r7, r9
1000359e:	0034      	movs	r4, r6
100035a0:	9b0c      	ldr	r3, [sp, #48]	@ 0x30
100035a2:	2b00      	cmp	r3, #0
100035a4:	d000      	beq.n	100035a8 <_vsnprintf+0x28c>
100035a6:	e197      	b.n	100038d8 <_vsnprintf+0x5bc>
100035a8:	465b      	mov	r3, fp
100035aa:	930c      	str	r3, [sp, #48]	@ 0x30
100035ac:	e6dd      	b.n	1000336a <_vsnprintf+0x4e>
100035ae:	2202      	movs	r2, #2
100035b0:	7878      	ldrb	r0, [r7, #1]
100035b2:	4316      	orrs	r6, r2
100035b4:	000f      	movs	r7, r1
100035b6:	426d      	negs	r5, r5
100035b8:	930c      	str	r3, [sp, #48]	@ 0x30
100035ba:	3101      	adds	r1, #1
100035bc:	e6f8      	b.n	100033b0 <_vsnprintf+0x94>
100035be:	7878      	ldrb	r0, [r7, #1]
100035c0:	286c      	cmp	r0, #108	@ 0x6c
100035c2:	d100      	bne.n	100035c6 <_vsnprintf+0x2aa>
100035c4:	e159      	b.n	1000387a <_vsnprintf+0x55e>
100035c6:	2380      	movs	r3, #128	@ 0x80
100035c8:	005b      	lsls	r3, r3, #1
100035ca:	431e      	orrs	r6, r3
100035cc:	3101      	adds	r1, #1
100035ce:	e714      	b.n	100033fa <_vsnprintf+0xde>
100035d0:	2380      	movs	r3, #128	@ 0x80
100035d2:	009b      	lsls	r3, r3, #2
100035d4:	7878      	ldrb	r0, [r7, #1]
100035d6:	431e      	orrs	r6, r3
100035d8:	3101      	adds	r1, #1
100035da:	e70e      	b.n	100033fa <_vsnprintf+0xde>
100035dc:	7878      	ldrb	r0, [r7, #1]
100035de:	2868      	cmp	r0, #104	@ 0x68
100035e0:	d100      	bne.n	100035e4 <_vsnprintf+0x2c8>
100035e2:	e150      	b.n	10003886 <_vsnprintf+0x56a>
100035e4:	2380      	movs	r3, #128	@ 0x80
100035e6:	3101      	adds	r1, #1
100035e8:	431e      	orrs	r6, r3
100035ea:	e706      	b.n	100033fa <_vsnprintf+0xde>
100035ec:	2867      	cmp	r0, #103	@ 0x67
100035ee:	d100      	bne.n	100035f2 <_vsnprintf+0x2d6>
100035f0:	e0c2      	b.n	10003778 <_vsnprintf+0x45c>
100035f2:	2847      	cmp	r0, #71	@ 0x47
100035f4:	d100      	bne.n	100035f8 <_vsnprintf+0x2dc>
100035f6:	e134      	b.n	10003862 <_vsnprintf+0x546>
100035f8:	2845      	cmp	r0, #69	@ 0x45
100035fa:	d100      	bne.n	100035fe <_vsnprintf+0x2e2>
100035fc:	e134      	b.n	10003868 <_vsnprintf+0x54c>
100035fe:	2107      	movs	r1, #7
10003600:	9b0c      	ldr	r3, [sp, #48]	@ 0x30
10003602:	9a0d      	ldr	r2, [sp, #52]	@ 0x34
10003604:	3307      	adds	r3, #7
10003606:	438b      	bics	r3, r1
10003608:	0019      	movs	r1, r3
1000360a:	9604      	str	r6, [sp, #16]
1000360c:	9503      	str	r5, [sp, #12]
1000360e:	9202      	str	r2, [sp, #8]
10003610:	c90c      	ldmia	r1!, {r2, r3}
10003612:	980b      	ldr	r0, [sp, #44]	@ 0x2c
10003614:	9200      	str	r2, [sp, #0]
10003616:	9301      	str	r3, [sp, #4]
10003618:	910c      	str	r1, [sp, #48]	@ 0x30
1000361a:	0022      	movs	r2, r4
1000361c:	4653      	mov	r3, sl
1000361e:	990a      	ldr	r1, [sp, #40]	@ 0x28
10003620:	f7ff fbcc 	bl	10002dbc <_etoa>
10003624:	0004      	movs	r4, r0
10003626:	e6a0      	b.n	1000336a <_vsnprintf+0x4e>
10003628:	2846      	cmp	r0, #70	@ 0x46
1000362a:	d100      	bne.n	1000362e <_vsnprintf+0x312>
1000362c:	e0a8      	b.n	10003780 <_vsnprintf+0x464>
1000362e:	2107      	movs	r1, #7
10003630:	9b0c      	ldr	r3, [sp, #48]	@ 0x30
10003632:	9a0d      	ldr	r2, [sp, #52]	@ 0x34
10003634:	3307      	adds	r3, #7
10003636:	438b      	bics	r3, r1
10003638:	0019      	movs	r1, r3
1000363a:	9604      	str	r6, [sp, #16]
1000363c:	9503      	str	r5, [sp, #12]
1000363e:	9202      	str	r2, [sp, #8]
10003640:	c90c      	ldmia	r1!, {r2, r3}
10003642:	980b      	ldr	r0, [sp, #44]	@ 0x2c
10003644:	9200      	str	r2, [sp, #0]
10003646:	9301      	str	r3, [sp, #4]
10003648:	910c      	str	r1, [sp, #48]	@ 0x30
1000364a:	0022      	movs	r2, r4
1000364c:	4653      	mov	r3, sl
1000364e:	990a      	ldr	r1, [sp, #40]	@ 0x28
10003650:	f7ff f97a 	bl	10002948 <_ftoa>
10003654:	0004      	movs	r4, r0
10003656:	e688      	b.n	1000336a <_vsnprintf+0x4e>
10003658:	1000331d 	.word	0x1000331d
1000365c:	20001ef4 	.word	0x20001ef4
10003660:	1000741c 	.word	0x1000741c
10003664:	10007460 	.word	0x10007460
10003668:	100074ac 	.word	0x100074ac
1000366c:	00009041 	.word	0x00009041
10003670:	0022      	movs	r2, r4
10003672:	4653      	mov	r3, sl
10003674:	2025      	movs	r0, #37	@ 0x25
10003676:	990a      	ldr	r1, [sp, #40]	@ 0x28
10003678:	9d0b      	ldr	r5, [sp, #44]	@ 0x2c
1000367a:	47a8      	blx	r5
1000367c:	3401      	adds	r4, #1
1000367e:	e674      	b.n	1000336a <_vsnprintf+0x4e>
10003680:	9b0c      	ldr	r3, [sp, #48]	@ 0x30
10003682:	3304      	adds	r3, #4
10003684:	469b      	mov	fp, r3
10003686:	1c63      	adds	r3, r4, #1
10003688:	4698      	mov	r8, r3
1000368a:	07b6      	lsls	r6, r6, #30
1000368c:	d400      	bmi.n	10003690 <_vsnprintf+0x374>
1000368e:	e0ff      	b.n	10003890 <_vsnprintf+0x574>
10003690:	9b0c      	ldr	r3, [sp, #48]	@ 0x30
10003692:	0022      	movs	r2, r4
10003694:	7818      	ldrb	r0, [r3, #0]
10003696:	990a      	ldr	r1, [sp, #40]	@ 0x28
10003698:	4653      	mov	r3, sl
1000369a:	9e0b      	ldr	r6, [sp, #44]	@ 0x2c
1000369c:	47b0      	blx	r6
1000369e:	1964      	adds	r4, r4, r5
100036a0:	2d01      	cmp	r5, #1
100036a2:	d800      	bhi.n	100036a6 <_vsnprintf+0x38a>
100036a4:	e249      	b.n	10003b3a <_vsnprintf+0x81e>
100036a6:	4645      	mov	r5, r8
100036a8:	9e0b      	ldr	r6, [sp, #44]	@ 0x2c
100036aa:	46b8      	mov	r8, r7
100036ac:	9f0a      	ldr	r7, [sp, #40]	@ 0x28
100036ae:	002a      	movs	r2, r5
100036b0:	4653      	mov	r3, sl
100036b2:	3501      	adds	r5, #1
100036b4:	0039      	movs	r1, r7
100036b6:	2020      	movs	r0, #32
100036b8:	47b0      	blx	r6
100036ba:	42a5      	cmp	r5, r4
100036bc:	d1f7      	bne.n	100036ae <_vsnprintf+0x392>
100036be:	4647      	mov	r7, r8
100036c0:	e772      	b.n	100035a8 <_vsnprintf+0x28c>
100036c2:	4bdb      	ldr	r3, [pc, #876]	@ (10003a30 <_vsnprintf+0x714>)
100036c4:	7838      	ldrb	r0, [r7, #0]
100036c6:	930b      	str	r3, [sp, #44]	@ 0x2c
100036c8:	2300      	movs	r3, #0
100036ca:	4699      	mov	r9, r3
100036cc:	2800      	cmp	r0, #0
100036ce:	d000      	beq.n	100036d2 <_vsnprintf+0x3b6>
100036d0:	e63d      	b.n	1000334e <_vsnprintf+0x32>
100036d2:	2400      	movs	r4, #0
100036d4:	e6c6      	b.n	10003464 <_vsnprintf+0x148>
100036d6:	286f      	cmp	r0, #111	@ 0x6f
100036d8:	d055      	beq.n	10003786 <_vsnprintf+0x46a>
100036da:	d800      	bhi.n	100036de <_vsnprintf+0x3c2>
100036dc:	e2bc      	b.n	10003c58 <_vsnprintf+0x93c>
100036de:	2310      	movs	r3, #16
100036e0:	2878      	cmp	r0, #120	@ 0x78
100036e2:	d100      	bne.n	100036e6 <_vsnprintf+0x3ca>
100036e4:	e09e      	b.n	10003824 <_vsnprintf+0x508>
100036e6:	439e      	bics	r6, r3
100036e8:	230a      	movs	r3, #10
100036ea:	469c      	mov	ip, r3
100036ec:	2300      	movs	r3, #0
100036ee:	930f      	str	r3, [sp, #60]	@ 0x3c
100036f0:	330a      	adds	r3, #10
100036f2:	469b      	mov	fp, r3
100036f4:	e04d      	b.n	10003792 <_vsnprintf+0x476>
100036f6:	2100      	movs	r1, #0
100036f8:	008a      	lsls	r2, r1, #2
100036fa:	1852      	adds	r2, r2, r1
100036fc:	0052      	lsls	r2, r2, #1
100036fe:	3301      	adds	r3, #1
10003700:	1811      	adds	r1, r2, r0
10003702:	7818      	ldrb	r0, [r3, #0]
10003704:	3930      	subs	r1, #48	@ 0x30
10003706:	0002      	movs	r2, r0
10003708:	3a30      	subs	r2, #48	@ 0x30
1000370a:	2a09      	cmp	r2, #9
1000370c:	d9f4      	bls.n	100036f8 <_vsnprintf+0x3dc>
1000370e:	910d      	str	r1, [sp, #52]	@ 0x34
10003710:	001f      	movs	r7, r3
10003712:	1c59      	adds	r1, r3, #1
10003714:	e650      	b.n	100033b8 <_vsnprintf+0x9c>
10003716:	9b0c      	ldr	r3, [sp, #48]	@ 0x30
10003718:	78b8      	ldrb	r0, [r7, #2]
1000371a:	cb04      	ldmia	r3!, {r2}
1000371c:	3702      	adds	r7, #2
1000371e:	43d1      	mvns	r1, r2
10003720:	17c9      	asrs	r1, r1, #31
10003722:	400a      	ands	r2, r1
10003724:	920d      	str	r2, [sp, #52]	@ 0x34
10003726:	930c      	str	r3, [sp, #48]	@ 0x30
10003728:	1c79      	adds	r1, r7, #1
1000372a:	e645      	b.n	100033b8 <_vsnprintf+0x9c>
1000372c:	2310      	movs	r3, #16
1000372e:	0030      	movs	r0, r6
10003730:	4398      	bics	r0, r3
10003732:	3311      	adds	r3, #17
10003734:	4318      	orrs	r0, r3
10003736:	2380      	movs	r3, #128	@ 0x80
10003738:	4680      	mov	r8, r0
1000373a:	0030      	movs	r0, r6
1000373c:	00db      	lsls	r3, r3, #3
1000373e:	4018      	ands	r0, r3
10003740:	421e      	tst	r6, r3
10003742:	d100      	bne.n	10003746 <_vsnprintf+0x42a>
10003744:	e6c0      	b.n	100034c8 <_vsnprintf+0x1ac>
10003746:	4643      	mov	r3, r8
10003748:	9306      	str	r3, [sp, #24]
1000374a:	2308      	movs	r3, #8
1000374c:	9305      	str	r3, [sp, #20]
1000374e:	9b0d      	ldr	r3, [sp, #52]	@ 0x34
10003750:	0022      	movs	r2, r4
10003752:	9304      	str	r3, [sp, #16]
10003754:	2310      	movs	r3, #16
10003756:	9303      	str	r3, [sp, #12]
10003758:	2300      	movs	r3, #0
1000375a:	9302      	str	r3, [sp, #8]
1000375c:	465b      	mov	r3, fp
1000375e:	9301      	str	r3, [sp, #4]
10003760:	ab1a      	add	r3, sp, #104	@ 0x68
10003762:	9300      	str	r3, [sp, #0]
10003764:	990a      	ldr	r1, [sp, #40]	@ 0x28
10003766:	4653      	mov	r3, sl
10003768:	980b      	ldr	r0, [sp, #44]	@ 0x2c
1000376a:	f7fe fff1 	bl	10002750 <_ntoa_format>
1000376e:	950c      	str	r5, [sp, #48]	@ 0x30
10003770:	0004      	movs	r4, r0
10003772:	e5fa      	b.n	1000336a <_vsnprintf+0x4e>
10003774:	3901      	subs	r1, #1
10003776:	e6d4      	b.n	10003522 <_vsnprintf+0x206>
10003778:	2380      	movs	r3, #128	@ 0x80
1000377a:	011b      	lsls	r3, r3, #4
1000377c:	431e      	orrs	r6, r3
1000377e:	e73e      	b.n	100035fe <_vsnprintf+0x2e2>
10003780:	2320      	movs	r3, #32
10003782:	431e      	orrs	r6, r3
10003784:	e753      	b.n	1000362e <_vsnprintf+0x312>
10003786:	2308      	movs	r3, #8
10003788:	469c      	mov	ip, r3
1000378a:	2300      	movs	r3, #0
1000378c:	930f      	str	r3, [sp, #60]	@ 0x3c
1000378e:	3308      	adds	r3, #8
10003790:	469b      	mov	fp, r3
10003792:	2380      	movs	r3, #128	@ 0x80
10003794:	0030      	movs	r0, r6
10003796:	00db      	lsls	r3, r3, #3
10003798:	4018      	ands	r0, r3
1000379a:	421e      	tst	r6, r3
1000379c:	d100      	bne.n	100037a0 <_vsnprintf+0x484>
1000379e:	e11a      	b.n	100039d6 <_vsnprintf+0x6ba>
100037a0:	230d      	movs	r3, #13
100037a2:	0031      	movs	r1, r6
100037a4:	4399      	bics	r1, r3
100037a6:	2380      	movs	r3, #128	@ 0x80
100037a8:	000a      	movs	r2, r1
100037aa:	009b      	lsls	r3, r3, #2
100037ac:	401a      	ands	r2, r3
100037ae:	4691      	mov	r9, r2
100037b0:	4219      	tst	r1, r3
100037b2:	d000      	beq.n	100037b6 <_vsnprintf+0x49a>
100037b4:	e1c3      	b.n	10003b3e <_vsnprintf+0x822>
100037b6:	2380      	movs	r3, #128	@ 0x80
100037b8:	000a      	movs	r2, r1
100037ba:	005b      	lsls	r3, r3, #1
100037bc:	401a      	ands	r2, r3
100037be:	4690      	mov	r8, r2
100037c0:	9a0c      	ldr	r2, [sp, #48]	@ 0x30
100037c2:	3204      	adds	r2, #4
100037c4:	920f      	str	r2, [sp, #60]	@ 0x3c
100037c6:	4219      	tst	r1, r3
100037c8:	d000      	beq.n	100037cc <_vsnprintf+0x4b0>
100037ca:	e28f      	b.n	10003cec <_vsnprintf+0x9d0>
100037cc:	064b      	lsls	r3, r1, #25
100037ce:	d500      	bpl.n	100037d2 <_vsnprintf+0x4b6>
100037d0:	e197      	b.n	10003b02 <_vsnprintf+0x7e6>
100037d2:	060b      	lsls	r3, r1, #24
100037d4:	d400      	bmi.n	100037d8 <_vsnprintf+0x4bc>
100037d6:	e2e5      	b.n	10003da4 <_vsnprintf+0xa88>
100037d8:	9b0c      	ldr	r3, [sp, #48]	@ 0x30
100037da:	881b      	ldrh	r3, [r3, #0]
100037dc:	4699      	mov	r9, r3
100037de:	464b      	mov	r3, r9
100037e0:	2b00      	cmp	r3, #0
100037e2:	d000      	beq.n	100037e6 <_vsnprintf+0x4ca>
100037e4:	e205      	b.n	10003bf2 <_vsnprintf+0x8d6>
100037e6:	3310      	adds	r3, #16
100037e8:	4399      	bics	r1, r3
100037ea:	2800      	cmp	r0, #0
100037ec:	d100      	bne.n	100037f0 <_vsnprintf+0x4d4>
100037ee:	e200      	b.n	10003bf2 <_vsnprintf+0x8d6>
100037f0:	2300      	movs	r3, #0
100037f2:	4698      	mov	r8, r3
100037f4:	9b0d      	ldr	r3, [sp, #52]	@ 0x34
100037f6:	9106      	str	r1, [sp, #24]
100037f8:	9304      	str	r3, [sp, #16]
100037fa:	465b      	mov	r3, fp
100037fc:	9303      	str	r3, [sp, #12]
100037fe:	2300      	movs	r3, #0
10003800:	9505      	str	r5, [sp, #20]
10003802:	9302      	str	r3, [sp, #8]
10003804:	4643      	mov	r3, r8
10003806:	e0d9      	b.n	100039bc <_vsnprintf+0x6a0>
10003808:	2858      	cmp	r0, #88	@ 0x58
1000380a:	d008      	beq.n	1000381e <_vsnprintf+0x502>
1000380c:	2862      	cmp	r0, #98	@ 0x62
1000380e:	d178      	bne.n	10003902 <_vsnprintf+0x5e6>
10003810:	2302      	movs	r3, #2
10003812:	469c      	mov	ip, r3
10003814:	2300      	movs	r3, #0
10003816:	930f      	str	r3, [sp, #60]	@ 0x3c
10003818:	3302      	adds	r3, #2
1000381a:	469b      	mov	fp, r3
1000381c:	e7b9      	b.n	10003792 <_vsnprintf+0x476>
1000381e:	2320      	movs	r3, #32
10003820:	431e      	orrs	r6, r3
10003822:	3b10      	subs	r3, #16
10003824:	469c      	mov	ip, r3
10003826:	2300      	movs	r3, #0
10003828:	930f      	str	r3, [sp, #60]	@ 0x3c
1000382a:	3310      	adds	r3, #16
1000382c:	469b      	mov	fp, r3
1000382e:	e7b0      	b.n	10003792 <_vsnprintf+0x476>
10003830:	2302      	movs	r3, #2
10003832:	001a      	movs	r2, r3
10003834:	4032      	ands	r2, r6
10003836:	920c      	str	r2, [sp, #48]	@ 0x30
10003838:	4233      	tst	r3, r6
1000383a:	d100      	bne.n	1000383e <_vsnprintf+0x522>
1000383c:	e205      	b.n	10003c4a <_vsnprintf+0x92e>
1000383e:	930c      	str	r3, [sp, #48]	@ 0x30
10003840:	4643      	mov	r3, r8
10003842:	46b9      	mov	r9, r7
10003844:	9e0b      	ldr	r6, [sp, #44]	@ 0x2c
10003846:	9f0a      	ldr	r7, [sp, #40]	@ 0x28
10003848:	46a8      	mov	r8, r5
1000384a:	1b1d      	subs	r5, r3, r4
1000384c:	0022      	movs	r2, r4
1000384e:	4653      	mov	r3, sl
10003850:	0039      	movs	r1, r7
10003852:	3401      	adds	r4, #1
10003854:	47b0      	blx	r6
10003856:	5d28      	ldrb	r0, [r5, r4]
10003858:	2800      	cmp	r0, #0
1000385a:	d1f7      	bne.n	1000384c <_vsnprintf+0x530>
1000385c:	4645      	mov	r5, r8
1000385e:	464f      	mov	r7, r9
10003860:	e69e      	b.n	100035a0 <_vsnprintf+0x284>
10003862:	2380      	movs	r3, #128	@ 0x80
10003864:	011b      	lsls	r3, r3, #4
10003866:	431e      	orrs	r6, r3
10003868:	2320      	movs	r3, #32
1000386a:	431e      	orrs	r6, r3
1000386c:	e6c7      	b.n	100035fe <_vsnprintf+0x2e2>
1000386e:	4662      	mov	r2, ip
10003870:	920d      	str	r2, [sp, #52]	@ 0x34
10003872:	4642      	mov	r2, r8
10003874:	1a9b      	subs	r3, r3, r2
10003876:	930f      	str	r3, [sp, #60]	@ 0x3c
10003878:	e66a      	b.n	10003550 <_vsnprintf+0x234>
1000387a:	23c0      	movs	r3, #192	@ 0xc0
1000387c:	009b      	lsls	r3, r3, #2
1000387e:	78b8      	ldrb	r0, [r7, #2]
10003880:	431e      	orrs	r6, r3
10003882:	1cf9      	adds	r1, r7, #3
10003884:	e5b9      	b.n	100033fa <_vsnprintf+0xde>
10003886:	23c0      	movs	r3, #192	@ 0xc0
10003888:	78b8      	ldrb	r0, [r7, #2]
1000388a:	431e      	orrs	r6, r3
1000388c:	1cf9      	adds	r1, r7, #3
1000388e:	e5b4      	b.n	100033fa <_vsnprintf+0xde>
10003890:	2d01      	cmp	r5, #1
10003892:	d800      	bhi.n	10003896 <_vsnprintf+0x57a>
10003894:	e14a      	b.n	10003b2c <_vsnprintf+0x810>
10003896:	1e63      	subs	r3, r4, #1
10003898:	4699      	mov	r9, r3
1000389a:	44a9      	add	r9, r5
1000389c:	464b      	mov	r3, r9
1000389e:	4652      	mov	r2, sl
100038a0:	0026      	movs	r6, r4
100038a2:	46a1      	mov	r9, r4
100038a4:	46ba      	mov	sl, r7
100038a6:	001c      	movs	r4, r3
100038a8:	0017      	movs	r7, r2
100038aa:	46a8      	mov	r8, r5
100038ac:	9d0b      	ldr	r5, [sp, #44]	@ 0x2c
100038ae:	0032      	movs	r2, r6
100038b0:	003b      	movs	r3, r7
100038b2:	3601      	adds	r6, #1
100038b4:	2020      	movs	r0, #32
100038b6:	990a      	ldr	r1, [sp, #40]	@ 0x28
100038b8:	47a8      	blx	r5
100038ba:	42a6      	cmp	r6, r4
100038bc:	d1f7      	bne.n	100038ae <_vsnprintf+0x592>
100038be:	003b      	movs	r3, r7
100038c0:	4657      	mov	r7, sl
100038c2:	469a      	mov	sl, r3
100038c4:	464c      	mov	r4, r9
100038c6:	9b0c      	ldr	r3, [sp, #48]	@ 0x30
100038c8:	0032      	movs	r2, r6
100038ca:	7818      	ldrb	r0, [r3, #0]
100038cc:	990a      	ldr	r1, [sp, #40]	@ 0x28
100038ce:	4653      	mov	r3, sl
100038d0:	9d0b      	ldr	r5, [sp, #44]	@ 0x2c
100038d2:	4444      	add	r4, r8
100038d4:	47a8      	blx	r5
100038d6:	e667      	b.n	100035a8 <_vsnprintf+0x28c>
100038d8:	46a0      	mov	r8, r4
100038da:	9b0f      	ldr	r3, [sp, #60]	@ 0x3c
100038dc:	429d      	cmp	r5, r3
100038de:	d800      	bhi.n	100038e2 <_vsnprintf+0x5c6>
100038e0:	e662      	b.n	100035a8 <_vsnprintf+0x28c>
100038e2:	192c      	adds	r4, r5, r4
100038e4:	9e0b      	ldr	r6, [sp, #44]	@ 0x2c
100038e6:	4645      	mov	r5, r8
100038e8:	46b8      	mov	r8, r7
100038ea:	9f0a      	ldr	r7, [sp, #40]	@ 0x28
100038ec:	1ae4      	subs	r4, r4, r3
100038ee:	002a      	movs	r2, r5
100038f0:	4653      	mov	r3, sl
100038f2:	3501      	adds	r5, #1
100038f4:	0039      	movs	r1, r7
100038f6:	2020      	movs	r0, #32
100038f8:	47b0      	blx	r6
100038fa:	42a5      	cmp	r5, r4
100038fc:	d1f7      	bne.n	100038ee <_vsnprintf+0x5d2>
100038fe:	4647      	mov	r7, r8
10003900:	e652      	b.n	100035a8 <_vsnprintf+0x28c>
10003902:	2380      	movs	r3, #128	@ 0x80
10003904:	0032      	movs	r2, r6
10003906:	00db      	lsls	r3, r3, #3
10003908:	401a      	ands	r2, r3
1000390a:	4690      	mov	r8, r2
1000390c:	421e      	tst	r6, r3
1000390e:	d100      	bne.n	10003912 <_vsnprintf+0x5f6>
10003910:	e0f3      	b.n	10003afa <_vsnprintf+0x7de>
10003912:	2111      	movs	r1, #17
10003914:	438e      	bics	r6, r1
10003916:	46b4      	mov	ip, r6
10003918:	4698      	mov	r8, r3
1000391a:	2380      	movs	r3, #128	@ 0x80
1000391c:	4662      	mov	r2, ip
1000391e:	009b      	lsls	r3, r3, #2
10003920:	401a      	ands	r2, r3
10003922:	4693      	mov	fp, r2
10003924:	4662      	mov	r2, ip
10003926:	421a      	tst	r2, r3
10003928:	d159      	bne.n	100039de <_vsnprintf+0x6c2>
1000392a:	2380      	movs	r3, #128	@ 0x80
1000392c:	005b      	lsls	r3, r3, #1
1000392e:	401a      	ands	r2, r3
10003930:	4691      	mov	r9, r2
10003932:	9a0c      	ldr	r2, [sp, #48]	@ 0x30
10003934:	3204      	adds	r2, #4
10003936:	920f      	str	r2, [sp, #60]	@ 0x3c
10003938:	4662      	mov	r2, ip
1000393a:	421a      	tst	r2, r3
1000393c:	d000      	beq.n	10003940 <_vsnprintf+0x624>
1000393e:	e1a0      	b.n	10003c82 <_vsnprintf+0x966>
10003940:	4663      	mov	r3, ip
10003942:	065b      	lsls	r3, r3, #25
10003944:	d500      	bpl.n	10003948 <_vsnprintf+0x62c>
10003946:	e0d4      	b.n	10003af2 <_vsnprintf+0x7d6>
10003948:	4663      	mov	r3, ip
1000394a:	061b      	lsls	r3, r3, #24
1000394c:	d400      	bmi.n	10003950 <_vsnprintf+0x634>
1000394e:	e212      	b.n	10003d76 <_vsnprintf+0xa5a>
10003950:	9b0c      	ldr	r3, [sp, #48]	@ 0x30
10003952:	2200      	movs	r2, #0
10003954:	5e9b      	ldrsh	r3, [r3, r2]
10003956:	17d8      	asrs	r0, r3, #31
10003958:	1819      	adds	r1, r3, r0
1000395a:	4041      	eors	r1, r0
1000395c:	b289      	uxth	r1, r1
1000395e:	0fda      	lsrs	r2, r3, #31
10003960:	920c      	str	r2, [sp, #48]	@ 0x30
10003962:	2b00      	cmp	r3, #0
10003964:	d100      	bne.n	10003968 <_vsnprintf+0x64c>
10003966:	e187      	b.n	10003c78 <_vsnprintf+0x95c>
10003968:	4688      	mov	r8, r1
1000396a:	261f      	movs	r6, #31
1000396c:	ab12      	add	r3, sp, #72	@ 0x48
1000396e:	46bb      	mov	fp, r7
10003970:	9514      	str	r5, [sp, #80]	@ 0x50
10003972:	18f7      	adds	r7, r6, r3
10003974:	4645      	mov	r5, r8
10003976:	464e      	mov	r6, r9
10003978:	46e0      	mov	r8, ip
1000397a:	46a1      	mov	r9, r4
1000397c:	e006      	b.n	1000398c <_vsnprintf+0x670>
1000397e:	0028      	movs	r0, r5
10003980:	210a      	movs	r1, #10
10003982:	f7fd fff3 	bl	1000196c <__wrap___aeabi_uidiv>
10003986:	0005      	movs	r5, r0
10003988:	2e20      	cmp	r6, #32
1000398a:	d008      	beq.n	1000399e <_vsnprintf+0x682>
1000398c:	210a      	movs	r1, #10
1000398e:	0028      	movs	r0, r5
10003990:	f7fd ffec 	bl	1000196c <__wrap___aeabi_uidiv>
10003994:	3601      	adds	r6, #1
10003996:	3130      	adds	r1, #48	@ 0x30
10003998:	55b9      	strb	r1, [r7, r6]
1000399a:	2d09      	cmp	r5, #9
1000399c:	d8ef      	bhi.n	1000397e <_vsnprintf+0x662>
1000399e:	464c      	mov	r4, r9
100039a0:	46c4      	mov	ip, r8
100039a2:	46b1      	mov	r9, r6
100039a4:	465f      	mov	r7, fp
100039a6:	9d14      	ldr	r5, [sp, #80]	@ 0x50
100039a8:	4663      	mov	r3, ip
100039aa:	9306      	str	r3, [sp, #24]
100039ac:	9b0d      	ldr	r3, [sp, #52]	@ 0x34
100039ae:	9505      	str	r5, [sp, #20]
100039b0:	9304      	str	r3, [sp, #16]
100039b2:	230a      	movs	r3, #10
100039b4:	9303      	str	r3, [sp, #12]
100039b6:	9b0c      	ldr	r3, [sp, #48]	@ 0x30
100039b8:	9302      	str	r3, [sp, #8]
100039ba:	464b      	mov	r3, r9
100039bc:	9301      	str	r3, [sp, #4]
100039be:	ab1a      	add	r3, sp, #104	@ 0x68
100039c0:	0022      	movs	r2, r4
100039c2:	9300      	str	r3, [sp, #0]
100039c4:	990a      	ldr	r1, [sp, #40]	@ 0x28
100039c6:	4653      	mov	r3, sl
100039c8:	980b      	ldr	r0, [sp, #44]	@ 0x2c
100039ca:	f7fe fec1 	bl	10002750 <_ntoa_format>
100039ce:	9b0f      	ldr	r3, [sp, #60]	@ 0x3c
100039d0:	0004      	movs	r4, r0
100039d2:	930c      	str	r3, [sp, #48]	@ 0x30
100039d4:	e4c9      	b.n	1000336a <_vsnprintf+0x4e>
100039d6:	230c      	movs	r3, #12
100039d8:	0031      	movs	r1, r6
100039da:	4399      	bics	r1, r3
100039dc:	e6e3      	b.n	100037a6 <_vsnprintf+0x48a>
100039de:	2208      	movs	r2, #8
100039e0:	2107      	movs	r1, #7
100039e2:	4691      	mov	r9, r2
100039e4:	9b0c      	ldr	r3, [sp, #48]	@ 0x30
100039e6:	3307      	adds	r3, #7
100039e8:	438b      	bics	r3, r1
100039ea:	4499      	add	r9, r3
100039ec:	464a      	mov	r2, r9
100039ee:	cb0a      	ldmia	r3, {r1, r3}
100039f0:	0008      	movs	r0, r1
100039f2:	920c      	str	r2, [sp, #48]	@ 0x30
100039f4:	0fda      	lsrs	r2, r3, #31
100039f6:	4693      	mov	fp, r2
100039f8:	4318      	orrs	r0, r3
100039fa:	d000      	beq.n	100039fe <_vsnprintf+0x6e2>
100039fc:	e085      	b.n	10003b0a <_vsnprintf+0x7ee>
100039fe:	2300      	movs	r3, #0
10003a00:	4699      	mov	r9, r3
10003a02:	4643      	mov	r3, r8
10003a04:	2b00      	cmp	r3, #0
10003a06:	d12f      	bne.n	10003a68 <_vsnprintf+0x74c>
10003a08:	2200      	movs	r2, #0
10003a0a:	2300      	movs	r3, #0
10003a0c:	9210      	str	r2, [sp, #64]	@ 0x40
10003a0e:	9311      	str	r3, [sp, #68]	@ 0x44
10003a10:	2300      	movs	r3, #0
10003a12:	261f      	movs	r6, #31
10003a14:	4699      	mov	r9, r3
10003a16:	ab12      	add	r3, sp, #72	@ 0x48
10003a18:	18f6      	adds	r6, r6, r3
10003a1a:	465b      	mov	r3, fp
10003a1c:	9514      	str	r5, [sp, #80]	@ 0x50
10003a1e:	46bb      	mov	fp, r7
10003a20:	46e0      	mov	r8, ip
10003a22:	0037      	movs	r7, r6
10003a24:	930f      	str	r3, [sp, #60]	@ 0x3c
10003a26:	464e      	mov	r6, r9
10003a28:	46a1      	mov	r9, r4
10003a2a:	9c10      	ldr	r4, [sp, #64]	@ 0x40
10003a2c:	9d11      	ldr	r5, [sp, #68]	@ 0x44
10003a2e:	e005      	b.n	10003a3c <_vsnprintf+0x720>
10003a30:	100026a5 	.word	0x100026a5
10003a34:	0004      	movs	r4, r0
10003a36:	000d      	movs	r5, r1
10003a38:	2e20      	cmp	r6, #32
10003a3a:	d00c      	beq.n	10003a56 <_vsnprintf+0x73a>
10003a3c:	220a      	movs	r2, #10
10003a3e:	2300      	movs	r3, #0
10003a40:	0020      	movs	r0, r4
10003a42:	0029      	movs	r1, r5
10003a44:	f7fd ffd0 	bl	100019e8 <__wrap___aeabi_uldivmod>
10003a48:	3601      	adds	r6, #1
10003a4a:	3230      	adds	r2, #48	@ 0x30
10003a4c:	55ba      	strb	r2, [r7, r6]
10003a4e:	2d00      	cmp	r5, #0
10003a50:	d1f0      	bne.n	10003a34 <_vsnprintf+0x718>
10003a52:	2c09      	cmp	r4, #9
10003a54:	d8ee      	bhi.n	10003a34 <_vsnprintf+0x718>
10003a56:	9b0f      	ldr	r3, [sp, #60]	@ 0x3c
10003a58:	9410      	str	r4, [sp, #64]	@ 0x40
10003a5a:	9511      	str	r5, [sp, #68]	@ 0x44
10003a5c:	465f      	mov	r7, fp
10003a5e:	464c      	mov	r4, r9
10003a60:	46c4      	mov	ip, r8
10003a62:	46b1      	mov	r9, r6
10003a64:	469b      	mov	fp, r3
10003a66:	9d14      	ldr	r5, [sp, #80]	@ 0x50
10003a68:	4663      	mov	r3, ip
10003a6a:	9306      	str	r3, [sp, #24]
10003a6c:	9b0d      	ldr	r3, [sp, #52]	@ 0x34
10003a6e:	9505      	str	r5, [sp, #20]
10003a70:	9304      	str	r3, [sp, #16]
10003a72:	230a      	movs	r3, #10
10003a74:	9303      	str	r3, [sp, #12]
10003a76:	465b      	mov	r3, fp
10003a78:	9302      	str	r3, [sp, #8]
10003a7a:	464b      	mov	r3, r9
10003a7c:	9301      	str	r3, [sp, #4]
10003a7e:	ab1a      	add	r3, sp, #104	@ 0x68
10003a80:	0022      	movs	r2, r4
10003a82:	9300      	str	r3, [sp, #0]
10003a84:	990a      	ldr	r1, [sp, #40]	@ 0x28
10003a86:	4653      	mov	r3, sl
10003a88:	980b      	ldr	r0, [sp, #44]	@ 0x2c
10003a8a:	f7fe fe61 	bl	10002750 <_ntoa_format>
10003a8e:	0004      	movs	r4, r0
10003a90:	e46b      	b.n	1000336a <_vsnprintf+0x4e>
10003a92:	9b0f      	ldr	r3, [sp, #60]	@ 0x3c
10003a94:	429d      	cmp	r5, r3
10003a96:	d800      	bhi.n	10003a9a <_vsnprintf+0x77e>
10003a98:	e196      	b.n	10003dc8 <_vsnprintf+0xaac>
10003a9a:	2380      	movs	r3, #128	@ 0x80
10003a9c:	00db      	lsls	r3, r3, #3
10003a9e:	930c      	str	r3, [sp, #48]	@ 0x30
10003aa0:	9b0f      	ldr	r3, [sp, #60]	@ 0x3c
10003aa2:	192e      	adds	r6, r5, r4
10003aa4:	1af6      	subs	r6, r6, r3
10003aa6:	4643      	mov	r3, r8
10003aa8:	930f      	str	r3, [sp, #60]	@ 0x3c
10003aaa:	9b0d      	ldr	r3, [sp, #52]	@ 0x34
10003aac:	46a8      	mov	r8, r5
10003aae:	4699      	mov	r9, r3
10003ab0:	4653      	mov	r3, sl
10003ab2:	46ba      	mov	sl, r7
10003ab4:	001f      	movs	r7, r3
10003ab6:	9d0b      	ldr	r5, [sp, #44]	@ 0x2c
10003ab8:	0022      	movs	r2, r4
10003aba:	003b      	movs	r3, r7
10003abc:	3401      	adds	r4, #1
10003abe:	2020      	movs	r0, #32
10003ac0:	990a      	ldr	r1, [sp, #40]	@ 0x28
10003ac2:	47a8      	blx	r5
10003ac4:	42b4      	cmp	r4, r6
10003ac6:	d1f7      	bne.n	10003ab8 <_vsnprintf+0x79c>
10003ac8:	9b0f      	ldr	r3, [sp, #60]	@ 0x3c
10003aca:	4645      	mov	r5, r8
10003acc:	4698      	mov	r8, r3
10003ace:	464b      	mov	r3, r9
10003ad0:	930d      	str	r3, [sp, #52]	@ 0x34
10003ad2:	003b      	movs	r3, r7
10003ad4:	4657      	mov	r7, sl
10003ad6:	469a      	mov	sl, r3
10003ad8:	4643      	mov	r3, r8
10003ada:	7818      	ldrb	r0, [r3, #0]
10003adc:	2800      	cmp	r0, #0
10003ade:	d100      	bne.n	10003ae2 <_vsnprintf+0x7c6>
10003ae0:	e562      	b.n	100035a8 <_vsnprintf+0x28c>
10003ae2:	1c6b      	adds	r3, r5, #1
10003ae4:	930f      	str	r3, [sp, #60]	@ 0x3c
10003ae6:	9b0c      	ldr	r3, [sp, #48]	@ 0x30
10003ae8:	2b00      	cmp	r3, #0
10003aea:	d100      	bne.n	10003aee <_vsnprintf+0x7d2>
10003aec:	e6a8      	b.n	10003840 <_vsnprintf+0x524>
10003aee:	2300      	movs	r3, #0
10003af0:	e53d      	b.n	1000356e <_vsnprintf+0x252>
10003af2:	9b0c      	ldr	r3, [sp, #48]	@ 0x30
10003af4:	781b      	ldrb	r3, [r3, #0]
10003af6:	0019      	movs	r1, r3
10003af8:	e731      	b.n	1000395e <_vsnprintf+0x642>
10003afa:	2310      	movs	r3, #16
10003afc:	439e      	bics	r6, r3
10003afe:	46b4      	mov	ip, r6
10003b00:	e70b      	b.n	1000391a <_vsnprintf+0x5fe>
10003b02:	9b0c      	ldr	r3, [sp, #48]	@ 0x30
10003b04:	781b      	ldrb	r3, [r3, #0]
10003b06:	4699      	mov	r9, r3
10003b08:	e669      	b.n	100037de <_vsnprintf+0x4c2>
10003b0a:	17da      	asrs	r2, r3, #31
10003b0c:	9212      	str	r2, [sp, #72]	@ 0x48
10003b0e:	9213      	str	r2, [sp, #76]	@ 0x4c
10003b10:	404a      	eors	r2, r1
10003b12:	9210      	str	r2, [sp, #64]	@ 0x40
10003b14:	9812      	ldr	r0, [sp, #72]	@ 0x48
10003b16:	9913      	ldr	r1, [sp, #76]	@ 0x4c
10003b18:	000a      	movs	r2, r1
10003b1a:	405a      	eors	r2, r3
10003b1c:	9211      	str	r2, [sp, #68]	@ 0x44
10003b1e:	9a10      	ldr	r2, [sp, #64]	@ 0x40
10003b20:	9b11      	ldr	r3, [sp, #68]	@ 0x44
10003b22:	1a12      	subs	r2, r2, r0
10003b24:	418b      	sbcs	r3, r1
10003b26:	9210      	str	r2, [sp, #64]	@ 0x40
10003b28:	9311      	str	r3, [sp, #68]	@ 0x44
10003b2a:	e771      	b.n	10003a10 <_vsnprintf+0x6f4>
10003b2c:	9b0c      	ldr	r3, [sp, #48]	@ 0x30
10003b2e:	0022      	movs	r2, r4
10003b30:	7818      	ldrb	r0, [r3, #0]
10003b32:	990a      	ldr	r1, [sp, #40]	@ 0x28
10003b34:	4653      	mov	r3, sl
10003b36:	9c0b      	ldr	r4, [sp, #44]	@ 0x2c
10003b38:	47a0      	blx	r4
10003b3a:	4644      	mov	r4, r8
10003b3c:	e534      	b.n	100035a8 <_vsnprintf+0x28c>
10003b3e:	2208      	movs	r2, #8
10003b40:	2607      	movs	r6, #7
10003b42:	4690      	mov	r8, r2
10003b44:	9b0c      	ldr	r3, [sp, #48]	@ 0x30
10003b46:	3307      	adds	r3, #7
10003b48:	43b3      	bics	r3, r6
10003b4a:	4498      	add	r8, r3
10003b4c:	4642      	mov	r2, r8
10003b4e:	920c      	str	r2, [sp, #48]	@ 0x30
10003b50:	681a      	ldr	r2, [r3, #0]
10003b52:	685b      	ldr	r3, [r3, #4]
10003b54:	9214      	str	r2, [sp, #80]	@ 0x50
10003b56:	9308      	str	r3, [sp, #32]
10003b58:	0013      	movs	r3, r2
10003b5a:	9a08      	ldr	r2, [sp, #32]
10003b5c:	4313      	orrs	r3, r2
10003b5e:	d105      	bne.n	10003b6c <_vsnprintf+0x850>
10003b60:	3310      	adds	r3, #16
10003b62:	4399      	bics	r1, r3
10003b64:	2300      	movs	r3, #0
10003b66:	4698      	mov	r8, r3
10003b68:	2800      	cmp	r0, #0
10003b6a:	d138      	bne.n	10003bde <_vsnprintf+0x8c2>
10003b6c:	2061      	movs	r0, #97	@ 0x61
10003b6e:	068b      	lsls	r3, r1, #26
10003b70:	d500      	bpl.n	10003b74 <_vsnprintf+0x858>
10003b72:	2041      	movs	r0, #65	@ 0x41
10003b74:	2300      	movs	r3, #0
10003b76:	261f      	movs	r6, #31
10003b78:	4698      	mov	r8, r3
10003b7a:	465a      	mov	r2, fp
10003b7c:	ab12      	add	r3, sp, #72	@ 0x48
10003b7e:	18f6      	adds	r6, r6, r3
10003b80:	0003      	movs	r3, r0
10003b82:	9218      	str	r2, [sp, #96]	@ 0x60
10003b84:	9a0f      	ldr	r2, [sp, #60]	@ 0x3c
10003b86:	3b0a      	subs	r3, #10
10003b88:	46b1      	mov	r9, r6
10003b8a:	9516      	str	r5, [sp, #88]	@ 0x58
10003b8c:	9417      	str	r4, [sp, #92]	@ 0x5c
10003b8e:	9719      	str	r7, [sp, #100]	@ 0x64
10003b90:	4644      	mov	r4, r8
10003b92:	4666      	mov	r6, ip
10003b94:	4690      	mov	r8, r2
10003b96:	469b      	mov	fp, r3
10003b98:	9f14      	ldr	r7, [sp, #80]	@ 0x50
10003b9a:	9d08      	ldr	r5, [sp, #32]
10003b9c:	9115      	str	r1, [sp, #84]	@ 0x54
10003b9e:	e003      	b.n	10003ba8 <_vsnprintf+0x88c>
10003ba0:	0007      	movs	r7, r0
10003ba2:	000d      	movs	r5, r1
10003ba4:	2c20      	cmp	r4, #32
10003ba6:	d013      	beq.n	10003bd0 <_vsnprintf+0x8b4>
10003ba8:	0032      	movs	r2, r6
10003baa:	2300      	movs	r3, #0
10003bac:	0038      	movs	r0, r7
10003bae:	0029      	movs	r1, r5
10003bb0:	f7fd ff1a 	bl	100019e8 <__wrap___aeabi_uldivmod>
10003bb4:	465b      	mov	r3, fp
10003bb6:	b2d2      	uxtb	r2, r2
10003bb8:	18d3      	adds	r3, r2, r3
10003bba:	2a09      	cmp	r2, #9
10003bbc:	d801      	bhi.n	10003bc2 <_vsnprintf+0x8a6>
10003bbe:	0013      	movs	r3, r2
10003bc0:	3330      	adds	r3, #48	@ 0x30
10003bc2:	464a      	mov	r2, r9
10003bc4:	3401      	adds	r4, #1
10003bc6:	5513      	strb	r3, [r2, r4]
10003bc8:	45a8      	cmp	r8, r5
10003bca:	d1e9      	bne.n	10003ba0 <_vsnprintf+0x884>
10003bcc:	42be      	cmp	r6, r7
10003bce:	d9e7      	bls.n	10003ba0 <_vsnprintf+0x884>
10003bd0:	9b18      	ldr	r3, [sp, #96]	@ 0x60
10003bd2:	46a0      	mov	r8, r4
10003bd4:	469b      	mov	fp, r3
10003bd6:	9915      	ldr	r1, [sp, #84]	@ 0x54
10003bd8:	9d16      	ldr	r5, [sp, #88]	@ 0x58
10003bda:	9c17      	ldr	r4, [sp, #92]	@ 0x5c
10003bdc:	9f19      	ldr	r7, [sp, #100]	@ 0x64
10003bde:	9b0d      	ldr	r3, [sp, #52]	@ 0x34
10003be0:	9106      	str	r1, [sp, #24]
10003be2:	9304      	str	r3, [sp, #16]
10003be4:	465b      	mov	r3, fp
10003be6:	9303      	str	r3, [sp, #12]
10003be8:	2300      	movs	r3, #0
10003bea:	9505      	str	r5, [sp, #20]
10003bec:	9302      	str	r3, [sp, #8]
10003bee:	4643      	mov	r3, r8
10003bf0:	e744      	b.n	10003a7c <_vsnprintf+0x760>
10003bf2:	2061      	movs	r0, #97	@ 0x61
10003bf4:	068b      	lsls	r3, r1, #26
10003bf6:	d500      	bpl.n	10003bfa <_vsnprintf+0x8de>
10003bf8:	2041      	movs	r0, #65	@ 0x41
10003bfa:	261f      	movs	r6, #31
10003bfc:	ab12      	add	r3, sp, #72	@ 0x48
10003bfe:	18f2      	adds	r2, r6, r3
10003c00:	0003      	movs	r3, r0
10003c02:	3b0a      	subs	r3, #10
10003c04:	930c      	str	r3, [sp, #48]	@ 0x30
10003c06:	464b      	mov	r3, r9
10003c08:	4646      	mov	r6, r8
10003c0a:	46a1      	mov	r9, r4
10003c0c:	46a8      	mov	r8, r5
10003c0e:	001c      	movs	r4, r3
10003c10:	465d      	mov	r5, fp
10003c12:	9114      	str	r1, [sp, #80]	@ 0x50
10003c14:	46bb      	mov	fp, r7
10003c16:	0017      	movs	r7, r2
10003c18:	e002      	b.n	10003c20 <_vsnprintf+0x904>
10003c1a:	0004      	movs	r4, r0
10003c1c:	2e20      	cmp	r6, #32
10003c1e:	d00d      	beq.n	10003c3c <_vsnprintf+0x920>
10003c20:	0029      	movs	r1, r5
10003c22:	0020      	movs	r0, r4
10003c24:	f7fd fea2 	bl	1000196c <__wrap___aeabi_uidiv>
10003c28:	9b0c      	ldr	r3, [sp, #48]	@ 0x30
10003c2a:	18cb      	adds	r3, r1, r3
10003c2c:	2909      	cmp	r1, #9
10003c2e:	d801      	bhi.n	10003c34 <_vsnprintf+0x918>
10003c30:	000b      	movs	r3, r1
10003c32:	3330      	adds	r3, #48	@ 0x30
10003c34:	3601      	adds	r6, #1
10003c36:	55bb      	strb	r3, [r7, r6]
10003c38:	42ac      	cmp	r4, r5
10003c3a:	d2ee      	bcs.n	10003c1a <_vsnprintf+0x8fe>
10003c3c:	465f      	mov	r7, fp
10003c3e:	464c      	mov	r4, r9
10003c40:	46ab      	mov	fp, r5
10003c42:	9914      	ldr	r1, [sp, #80]	@ 0x50
10003c44:	4645      	mov	r5, r8
10003c46:	46b0      	mov	r8, r6
10003c48:	e5d4      	b.n	100037f4 <_vsnprintf+0x4d8>
10003c4a:	9b0f      	ldr	r3, [sp, #60]	@ 0x3c
10003c4c:	429d      	cmp	r5, r3
10003c4e:	d900      	bls.n	10003c52 <_vsnprintf+0x936>
10003c50:	e726      	b.n	10003aa0 <_vsnprintf+0x784>
10003c52:	3301      	adds	r3, #1
10003c54:	930f      	str	r3, [sp, #60]	@ 0x3c
10003c56:	e5f3      	b.n	10003840 <_vsnprintf+0x524>
10003c58:	2310      	movs	r3, #16
10003c5a:	0032      	movs	r2, r6
10003c5c:	439a      	bics	r2, r3
10003c5e:	4694      	mov	ip, r2
10003c60:	2869      	cmp	r0, #105	@ 0x69
10003c62:	d000      	beq.n	10003c66 <_vsnprintf+0x94a>
10003c64:	e0a2      	b.n	10003dac <_vsnprintf+0xa90>
10003c66:	2380      	movs	r3, #128	@ 0x80
10003c68:	0032      	movs	r2, r6
10003c6a:	00db      	lsls	r3, r3, #3
10003c6c:	401a      	ands	r2, r3
10003c6e:	4690      	mov	r8, r2
10003c70:	421e      	tst	r6, r3
10003c72:	d100      	bne.n	10003c76 <_vsnprintf+0x95a>
10003c74:	e651      	b.n	1000391a <_vsnprintf+0x5fe>
10003c76:	e64c      	b.n	10003912 <_vsnprintf+0x5f6>
10003c78:	4643      	mov	r3, r8
10003c7a:	2b00      	cmp	r3, #0
10003c7c:	d000      	beq.n	10003c80 <_vsnprintf+0x964>
10003c7e:	e693      	b.n	100039a8 <_vsnprintf+0x68c>
10003c80:	e673      	b.n	1000396a <_vsnprintf+0x64e>
10003c82:	9b0c      	ldr	r3, [sp, #48]	@ 0x30
10003c84:	681b      	ldr	r3, [r3, #0]
10003c86:	0fda      	lsrs	r2, r3, #31
10003c88:	2b00      	cmp	r3, #0
10003c8a:	d070      	beq.n	10003d6e <_vsnprintf+0xa52>
10003c8c:	17d9      	asrs	r1, r3, #31
10003c8e:	185b      	adds	r3, r3, r1
10003c90:	404b      	eors	r3, r1
10003c92:	4698      	mov	r8, r3
10003c94:	261f      	movs	r6, #31
10003c96:	ab12      	add	r3, sp, #72	@ 0x48
10003c98:	18f6      	adds	r6, r6, r3
10003c9a:	46a1      	mov	r9, r4
10003c9c:	9514      	str	r5, [sp, #80]	@ 0x50
10003c9e:	465c      	mov	r4, fp
10003ca0:	4645      	mov	r5, r8
10003ca2:	46bb      	mov	fp, r7
10003ca4:	46e0      	mov	r8, ip
10003ca6:	0037      	movs	r7, r6
10003ca8:	920c      	str	r2, [sp, #48]	@ 0x30
10003caa:	e006      	b.n	10003cba <_vsnprintf+0x99e>
10003cac:	0028      	movs	r0, r5
10003cae:	210a      	movs	r1, #10
10003cb0:	f7fd fe5c 	bl	1000196c <__wrap___aeabi_uidiv>
10003cb4:	0005      	movs	r5, r0
10003cb6:	2c20      	cmp	r4, #32
10003cb8:	d008      	beq.n	10003ccc <_vsnprintf+0x9b0>
10003cba:	210a      	movs	r1, #10
10003cbc:	0028      	movs	r0, r5
10003cbe:	f7fd fe55 	bl	1000196c <__wrap___aeabi_uidiv>
10003cc2:	3401      	adds	r4, #1
10003cc4:	3130      	adds	r1, #48	@ 0x30
10003cc6:	5539      	strb	r1, [r7, r4]
10003cc8:	2d09      	cmp	r5, #9
10003cca:	d8ef      	bhi.n	10003cac <_vsnprintf+0x990>
10003ccc:	465f      	mov	r7, fp
10003cce:	46c4      	mov	ip, r8
10003cd0:	46a3      	mov	fp, r4
10003cd2:	464c      	mov	r4, r9
10003cd4:	9d14      	ldr	r5, [sp, #80]	@ 0x50
10003cd6:	9a0c      	ldr	r2, [sp, #48]	@ 0x30
10003cd8:	4663      	mov	r3, ip
10003cda:	9306      	str	r3, [sp, #24]
10003cdc:	9b0d      	ldr	r3, [sp, #52]	@ 0x34
10003cde:	9505      	str	r5, [sp, #20]
10003ce0:	9304      	str	r3, [sp, #16]
10003ce2:	230a      	movs	r3, #10
10003ce4:	9202      	str	r2, [sp, #8]
10003ce6:	9303      	str	r3, [sp, #12]
10003ce8:	465b      	mov	r3, fp
10003cea:	e667      	b.n	100039bc <_vsnprintf+0x6a0>
10003cec:	9b0c      	ldr	r3, [sp, #48]	@ 0x30
10003cee:	681b      	ldr	r3, [r3, #0]
10003cf0:	4698      	mov	r8, r3
10003cf2:	2b00      	cmp	r3, #0
10003cf4:	d103      	bne.n	10003cfe <_vsnprintf+0x9e2>
10003cf6:	3310      	adds	r3, #16
10003cf8:	4399      	bics	r1, r3
10003cfa:	2800      	cmp	r0, #0
10003cfc:	d12d      	bne.n	10003d5a <_vsnprintf+0xa3e>
10003cfe:	2061      	movs	r0, #97	@ 0x61
10003d00:	068b      	lsls	r3, r1, #26
10003d02:	d500      	bpl.n	10003d06 <_vsnprintf+0x9ea>
10003d04:	2041      	movs	r0, #65	@ 0x41
10003d06:	261f      	movs	r6, #31
10003d08:	ab12      	add	r3, sp, #72	@ 0x48
10003d0a:	18f6      	adds	r6, r6, r3
10003d0c:	0003      	movs	r3, r0
10003d0e:	3b0a      	subs	r3, #10
10003d10:	464a      	mov	r2, r9
10003d12:	930c      	str	r3, [sp, #48]	@ 0x30
10003d14:	9114      	str	r1, [sp, #80]	@ 0x50
10003d16:	4643      	mov	r3, r8
10003d18:	0031      	movs	r1, r6
10003d1a:	46a8      	mov	r8, r5
10003d1c:	46a1      	mov	r9, r4
10003d1e:	465e      	mov	r6, fp
10003d20:	0014      	movs	r4, r2
10003d22:	46bb      	mov	fp, r7
10003d24:	001d      	movs	r5, r3
10003d26:	000f      	movs	r7, r1
10003d28:	e002      	b.n	10003d30 <_vsnprintf+0xa14>
10003d2a:	0005      	movs	r5, r0
10003d2c:	2c20      	cmp	r4, #32
10003d2e:	d00d      	beq.n	10003d4c <_vsnprintf+0xa30>
10003d30:	0031      	movs	r1, r6
10003d32:	0028      	movs	r0, r5
10003d34:	f7fd fe1a 	bl	1000196c <__wrap___aeabi_uidiv>
10003d38:	9b0c      	ldr	r3, [sp, #48]	@ 0x30
10003d3a:	18cb      	adds	r3, r1, r3
10003d3c:	2909      	cmp	r1, #9
10003d3e:	d801      	bhi.n	10003d44 <_vsnprintf+0xa28>
10003d40:	000b      	movs	r3, r1
10003d42:	3330      	adds	r3, #48	@ 0x30
10003d44:	3401      	adds	r4, #1
10003d46:	553b      	strb	r3, [r7, r4]
10003d48:	42b5      	cmp	r5, r6
10003d4a:	d2ee      	bcs.n	10003d2a <_vsnprintf+0xa0e>
10003d4c:	0023      	movs	r3, r4
10003d4e:	465f      	mov	r7, fp
10003d50:	464c      	mov	r4, r9
10003d52:	4645      	mov	r5, r8
10003d54:	46b3      	mov	fp, r6
10003d56:	4699      	mov	r9, r3
10003d58:	9914      	ldr	r1, [sp, #80]	@ 0x50
10003d5a:	9b0d      	ldr	r3, [sp, #52]	@ 0x34
10003d5c:	9106      	str	r1, [sp, #24]
10003d5e:	9304      	str	r3, [sp, #16]
10003d60:	465b      	mov	r3, fp
10003d62:	9303      	str	r3, [sp, #12]
10003d64:	2300      	movs	r3, #0
10003d66:	9505      	str	r5, [sp, #20]
10003d68:	9302      	str	r3, [sp, #8]
10003d6a:	464b      	mov	r3, r9
10003d6c:	e626      	b.n	100039bc <_vsnprintf+0x6a0>
10003d6e:	4643      	mov	r3, r8
10003d70:	2b00      	cmp	r3, #0
10003d72:	d1b1      	bne.n	10003cd8 <_vsnprintf+0x9bc>
10003d74:	e78e      	b.n	10003c94 <_vsnprintf+0x978>
10003d76:	9b0c      	ldr	r3, [sp, #48]	@ 0x30
10003d78:	681b      	ldr	r3, [r3, #0]
10003d7a:	17d8      	asrs	r0, r3, #31
10003d7c:	1819      	adds	r1, r3, r0
10003d7e:	4041      	eors	r1, r0
10003d80:	e5ed      	b.n	1000395e <_vsnprintf+0x642>
10003d82:	2380      	movs	r3, #128	@ 0x80
10003d84:	0032      	movs	r2, r6
10003d86:	00db      	lsls	r3, r3, #3
10003d88:	401a      	ands	r2, r3
10003d8a:	920f      	str	r2, [sp, #60]	@ 0x3c
10003d8c:	421e      	tst	r6, r3
10003d8e:	d00f      	beq.n	10003db0 <_vsnprintf+0xa94>
10003d90:	3002      	adds	r0, #2
10003d92:	0002      	movs	r2, r0
10003d94:	4032      	ands	r2, r6
10003d96:	920f      	str	r2, [sp, #60]	@ 0x3c
10003d98:	4230      	tst	r0, r6
10003d9a:	d019      	beq.n	10003dd0 <_vsnprintf+0xab4>
10003d9c:	2300      	movs	r3, #0
10003d9e:	46a0      	mov	r8, r4
10003da0:	930f      	str	r3, [sp, #60]	@ 0x3c
10003da2:	e59a      	b.n	100038da <_vsnprintf+0x5be>
10003da4:	9b0c      	ldr	r3, [sp, #48]	@ 0x30
10003da6:	681b      	ldr	r3, [r3, #0]
10003da8:	4699      	mov	r9, r3
10003daa:	e518      	b.n	100037de <_vsnprintf+0x4c2>
10003dac:	0016      	movs	r6, r2
10003dae:	e49b      	b.n	100036e8 <_vsnprintf+0x3cc>
10003db0:	2302      	movs	r3, #2
10003db2:	001a      	movs	r2, r3
10003db4:	4032      	ands	r2, r6
10003db6:	920c      	str	r2, [sp, #48]	@ 0x30
10003db8:	4233      	tst	r3, r6
10003dba:	d000      	beq.n	10003dbe <_vsnprintf+0xaa2>
10003dbc:	e58c      	b.n	100038d8 <_vsnprintf+0x5bc>
10003dbe:	2d00      	cmp	r5, #0
10003dc0:	d000      	beq.n	10003dc4 <_vsnprintf+0xaa8>
10003dc2:	e66d      	b.n	10003aa0 <_vsnprintf+0x784>
10003dc4:	f7ff fbf0 	bl	100035a8 <_vsnprintf+0x28c>
10003dc8:	3301      	adds	r3, #1
10003dca:	930f      	str	r3, [sp, #60]	@ 0x3c
10003dcc:	f7ff fbd0 	bl	10003570 <_vsnprintf+0x254>
10003dd0:	930c      	str	r3, [sp, #48]	@ 0x30
10003dd2:	e7f4      	b.n	10003dbe <_vsnprintf+0xaa2>

10003dd4 <vfctprintf>:
10003dd4:	b500      	push	{lr}
10003dd6:	b085      	sub	sp, #20
10003dd8:	9103      	str	r1, [sp, #12]
10003dda:	2101      	movs	r1, #1
10003ddc:	9002      	str	r0, [sp, #8]
10003dde:	9300      	str	r3, [sp, #0]
10003de0:	4803      	ldr	r0, [pc, #12]	@ (10003df0 <vfctprintf+0x1c>)
10003de2:	0013      	movs	r3, r2
10003de4:	424a      	negs	r2, r1
10003de6:	a902      	add	r1, sp, #8
10003de8:	f7ff fa98 	bl	1000331c <_vsnprintf>
10003dec:	b005      	add	sp, #20
10003dee:	bd00      	pop	{pc}
10003df0:	10002939 	.word	0x10002939

10003df4 <weak_raw_vprintf>:
10003df4:	b510      	push	{r4, lr}
10003df6:	4a09      	ldr	r2, [pc, #36]	@ (10003e1c <weak_raw_vprintf+0x28>)
10003df8:	0003      	movs	r3, r0
10003dfa:	6814      	ldr	r4, [r2, #0]
10003dfc:	b084      	sub	sp, #16
10003dfe:	2c00      	cmp	r4, #0
10003e00:	d008      	beq.n	10003e14 <weak_raw_vprintf+0x20>
10003e02:	2201      	movs	r2, #1
10003e04:	9100      	str	r1, [sp, #0]
10003e06:	4806      	ldr	r0, [pc, #24]	@ (10003e20 <weak_raw_vprintf+0x2c>)
10003e08:	4252      	negs	r2, r2
10003e0a:	a903      	add	r1, sp, #12
10003e0c:	47a0      	blx	r4
10003e0e:	2001      	movs	r0, #1
10003e10:	b004      	add	sp, #16
10003e12:	bd10      	pop	{r4, pc}
10003e14:	f000 f984 	bl	10004120 <__wrap_puts>
10003e18:	2000      	movs	r0, #0
10003e1a:	e7f9      	b.n	10003e10 <weak_raw_vprintf+0x1c>
10003e1c:	20001ef4 	.word	0x20001ef4
10003e20:	10002929 	.word	0x10002929

10003e24 <_exit>:
10003e24:	be00      	bkpt	0x0000
10003e26:	e7fd      	b.n	10003e24 <_exit>

10003e28 <exit>:
10003e28:	b510      	push	{r4, lr}
10003e2a:	f7ff fffb 	bl	10003e24 <_exit>
10003e2e:	46c0      	nop			@ (mov r8, r8)

10003e30 <runtime_init>:
10003e30:	b570      	push	{r4, r5, r6, lr}
10003e32:	f7fd fc4d 	bl	100016d0 <runtime_run_initializers>
10003e36:	4d07      	ldr	r5, [pc, #28]	@ (10003e54 <runtime_init+0x24>)
10003e38:	4e07      	ldr	r6, [pc, #28]	@ (10003e58 <runtime_init+0x28>)
10003e3a:	42b5      	cmp	r5, r6
10003e3c:	d209      	bcs.n	10003e52 <runtime_init+0x22>
10003e3e:	2400      	movs	r4, #0
10003e40:	3e01      	subs	r6, #1
10003e42:	1b76      	subs	r6, r6, r5
10003e44:	08b6      	lsrs	r6, r6, #2
10003e46:	3601      	adds	r6, #1
10003e48:	cd08      	ldmia	r5!, {r3}
10003e4a:	3401      	adds	r4, #1
10003e4c:	4798      	blx	r3
10003e4e:	42b4      	cmp	r4, r6
10003e50:	d1fa      	bne.n	10003e48 <runtime_init+0x18>
10003e52:	bd70      	pop	{r4, r5, r6, pc}
10003e54:	10006dd4 	.word	0x10006dd4
10003e58:	10006ddc 	.word	0x10006ddc

10003e5c <stdio_out_chars_no_crlf>:
10003e5c:	0003      	movs	r3, r0
10003e5e:	b510      	push	{r4, lr}
10003e60:	0008      	movs	r0, r1
10003e62:	0011      	movs	r1, r2
10003e64:	681b      	ldr	r3, [r3, #0]
10003e66:	4798      	blx	r3
10003e68:	bd10      	pop	{r4, pc}
10003e6a:	46c0      	nop			@ (mov r8, r8)

10003e6c <stdio_out_chars_crlf>:
10003e6c:	b5f8      	push	{r3, r4, r5, r6, r7, lr}
10003e6e:	7d43      	ldrb	r3, [r0, #21]
10003e70:	0007      	movs	r7, r0
10003e72:	000d      	movs	r5, r1
10003e74:	0016      	movs	r6, r2
10003e76:	2b00      	cmp	r3, #0
10003e78:	d038      	beq.n	10003eec <stdio_out_chars_crlf+0x80>
10003e7a:	2a00      	cmp	r2, #0
10003e7c:	dd1a      	ble.n	10003eb4 <stdio_out_chars_crlf+0x48>
10003e7e:	780b      	ldrb	r3, [r1, #0]
10003e80:	2b0a      	cmp	r3, #10
10003e82:	d018      	beq.n	10003eb6 <stdio_out_chars_crlf+0x4a>
10003e84:	2000      	movs	r0, #0
10003e86:	2e01      	cmp	r6, #1
10003e88:	d009      	beq.n	10003e9e <stdio_out_chars_crlf+0x32>
10003e8a:	2401      	movs	r4, #1
10003e8c:	0021      	movs	r1, r4
10003e8e:	5c6b      	ldrb	r3, [r5, r1]
10003e90:	3401      	adds	r4, #1
10003e92:	2b0a      	cmp	r3, #10
10003e94:	d01a      	beq.n	10003ecc <stdio_out_chars_crlf+0x60>
10003e96:	42b4      	cmp	r4, r6
10003e98:	d1f8      	bne.n	10003e8c <stdio_out_chars_crlf+0x20>
10003e9a:	4286      	cmp	r6, r0
10003e9c:	dd03      	ble.n	10003ea6 <stdio_out_chars_crlf+0x3a>
10003e9e:	1a31      	subs	r1, r6, r0
10003ea0:	683b      	ldr	r3, [r7, #0]
10003ea2:	1828      	adds	r0, r5, r0
10003ea4:	4798      	blx	r3
10003ea6:	19ad      	adds	r5, r5, r6
10003ea8:	3d01      	subs	r5, #1
10003eaa:	782b      	ldrb	r3, [r5, #0]
10003eac:	3b0d      	subs	r3, #13
10003eae:	425a      	negs	r2, r3
10003eb0:	4153      	adcs	r3, r2
10003eb2:	753b      	strb	r3, [r7, #20]
10003eb4:	bdf8      	pop	{r3, r4, r5, r6, r7, pc}
10003eb6:	7d03      	ldrb	r3, [r0, #20]
10003eb8:	2b00      	cmp	r3, #0
10003eba:	d1e3      	bne.n	10003e84 <stdio_out_chars_crlf+0x18>
10003ebc:	2102      	movs	r1, #2
10003ebe:	480e      	ldr	r0, [pc, #56]	@ (10003ef8 <stdio_out_chars_crlf+0x8c>)
10003ec0:	683b      	ldr	r3, [r7, #0]
10003ec2:	4798      	blx	r3
10003ec4:	2e01      	cmp	r6, #1
10003ec6:	d0ee      	beq.n	10003ea6 <stdio_out_chars_crlf+0x3a>
10003ec8:	2001      	movs	r0, #1
10003eca:	e7de      	b.n	10003e8a <stdio_out_chars_crlf+0x1e>
10003ecc:	1e6b      	subs	r3, r5, #1
10003ece:	5c5b      	ldrb	r3, [r3, r1]
10003ed0:	2b0d      	cmp	r3, #13
10003ed2:	d0e0      	beq.n	10003e96 <stdio_out_chars_crlf+0x2a>
10003ed4:	4288      	cmp	r0, r1
10003ed6:	da03      	bge.n	10003ee0 <stdio_out_chars_crlf+0x74>
10003ed8:	1a09      	subs	r1, r1, r0
10003eda:	683b      	ldr	r3, [r7, #0]
10003edc:	1828      	adds	r0, r5, r0
10003ede:	4798      	blx	r3
10003ee0:	4805      	ldr	r0, [pc, #20]	@ (10003ef8 <stdio_out_chars_crlf+0x8c>)
10003ee2:	2102      	movs	r1, #2
10003ee4:	683b      	ldr	r3, [r7, #0]
10003ee6:	4798      	blx	r3
10003ee8:	0020      	movs	r0, r4
10003eea:	e7d4      	b.n	10003e96 <stdio_out_chars_crlf+0x2a>
10003eec:	6803      	ldr	r3, [r0, #0]
10003eee:	0011      	movs	r1, r2
10003ef0:	0028      	movs	r0, r5
10003ef2:	4798      	blx	r3
10003ef4:	e7de      	b.n	10003eb4 <stdio_out_chars_crlf+0x48>
10003ef6:	46c0      	nop			@ (mov r8, r8)
10003ef8:	10007608 	.word	0x10007608

10003efc <stdio_buffered_printer>:
10003efc:	b5f0      	push	{r4, r5, r6, r7, lr}
10003efe:	46c6      	mov	lr, r8
10003f00:	680b      	ldr	r3, [r1, #0]
10003f02:	0007      	movs	r7, r0
10003f04:	000d      	movs	r5, r1
10003f06:	b500      	push	{lr}
10003f08:	2b80      	cmp	r3, #128	@ 0x80
10003f0a:	d006      	beq.n	10003f1a <stdio_buffered_printer+0x1e>
10003f0c:	1c5a      	adds	r2, r3, #1
10003f0e:	602a      	str	r2, [r5, #0]
10003f10:	18ed      	adds	r5, r5, r3
10003f12:	712f      	strb	r7, [r5, #4]
10003f14:	bc80      	pop	{r7}
10003f16:	46b8      	mov	r8, r7
10003f18:	bdf0      	pop	{r4, r5, r6, r7, pc}
10003f1a:	4b0f      	ldr	r3, [pc, #60]	@ (10003f58 <stdio_buffered_printer+0x5c>)
10003f1c:	681c      	ldr	r4, [r3, #0]
10003f1e:	2c00      	cmp	r4, #0
10003f20:	d016      	beq.n	10003f50 <stdio_buffered_printer+0x54>
10003f22:	1d0b      	adds	r3, r1, #4
10003f24:	4698      	mov	r8, r3
10003f26:	4e0d      	ldr	r6, [pc, #52]	@ (10003f5c <stdio_buffered_printer+0x60>)
10003f28:	e002      	b.n	10003f30 <stdio_buffered_printer+0x34>
10003f2a:	6924      	ldr	r4, [r4, #16]
10003f2c:	2c00      	cmp	r4, #0
10003f2e:	d00f      	beq.n	10003f50 <stdio_buffered_printer+0x54>
10003f30:	6823      	ldr	r3, [r4, #0]
10003f32:	2b00      	cmp	r3, #0
10003f34:	d0f9      	beq.n	10003f2a <stdio_buffered_printer+0x2e>
10003f36:	6833      	ldr	r3, [r6, #0]
10003f38:	2b00      	cmp	r3, #0
10003f3a:	d001      	beq.n	10003f40 <stdio_buffered_printer+0x44>
10003f3c:	42a3      	cmp	r3, r4
10003f3e:	d1f4      	bne.n	10003f2a <stdio_buffered_printer+0x2e>
10003f40:	0020      	movs	r0, r4
10003f42:	4641      	mov	r1, r8
10003f44:	682a      	ldr	r2, [r5, #0]
10003f46:	f7ff ff91 	bl	10003e6c <stdio_out_chars_crlf>
10003f4a:	6924      	ldr	r4, [r4, #16]
10003f4c:	2c00      	cmp	r4, #0
10003f4e:	d1ef      	bne.n	10003f30 <stdio_buffered_printer+0x34>
10003f50:	2201      	movs	r2, #1
10003f52:	2300      	movs	r3, #0
10003f54:	e7db      	b.n	10003f0e <stdio_buffered_printer+0x12>
10003f56:	46c0      	nop			@ (mov r8, r8)
10003f58:	20001ae8 	.word	0x20001ae8
10003f5c:	20001af0 	.word	0x20001af0

10003f60 <stdio_put_string>:
10003f60:	b5f0      	push	{r4, r5, r6, r7, lr}
10003f62:	4646      	mov	r6, r8
10003f64:	46d6      	mov	lr, sl
10003f66:	464f      	mov	r7, r9
10003f68:	b5c0      	push	{r6, r7, lr}
10003f6a:	b082      	sub	sp, #8
10003f6c:	4690      	mov	r8, r2
10003f6e:	001c      	movs	r4, r3
10003f70:	0006      	movs	r6, r0
10003f72:	000d      	movs	r5, r1
10003f74:	f7fd f998 	bl	100012a8 <time_us_64>
10003f78:	2300      	movs	r3, #0
10003f7a:	4a2f      	ldr	r2, [pc, #188]	@ (10004038 <stdio_put_string+0xd8>)
10003f7c:	1812      	adds	r2, r2, r0
10003f7e:	414b      	adcs	r3, r1
10003f80:	2b00      	cmp	r3, #0
10003f82:	da02      	bge.n	10003f8a <stdio_put_string+0x2a>
10003f84:	2201      	movs	r2, #1
10003f86:	4b2d      	ldr	r3, [pc, #180]	@ (1000403c <stdio_put_string+0xdc>)
10003f88:	4252      	negs	r2, r2
10003f8a:	492d      	ldr	r1, [pc, #180]	@ (10004040 <stdio_put_string+0xe0>)
10003f8c:	0008      	movs	r0, r1
10003f8e:	468a      	mov	sl, r1
10003f90:	f002 feea 	bl	10006d68 <__mutex_try_enter_block_until_veneer>
10003f94:	4681      	mov	r9, r0
10003f96:	1c6b      	adds	r3, r5, #1
10003f98:	d103      	bne.n	10003fa2 <stdio_put_string+0x42>
10003f9a:	0030      	movs	r0, r6
10003f9c:	f002 fe6a 	bl	10006c74 <strlen>
10003fa0:	0005      	movs	r5, r0
10003fa2:	2c00      	cmp	r4, #0
10003fa4:	d027      	beq.n	10003ff6 <stdio_put_string+0x96>
10003fa6:	4f27      	ldr	r7, [pc, #156]	@ (10004044 <stdio_put_string+0xe4>)
10003fa8:	4b27      	ldr	r3, [pc, #156]	@ (10004048 <stdio_put_string+0xe8>)
10003faa:	681c      	ldr	r4, [r3, #0]
10003fac:	2c00      	cmp	r4, #0
10003fae:	d018      	beq.n	10003fe2 <stdio_put_string+0x82>
10003fb0:	4643      	mov	r3, r8
10003fb2:	2b00      	cmp	r3, #0
10003fb4:	d121      	bne.n	10003ffa <stdio_put_string+0x9a>
10003fb6:	4b25      	ldr	r3, [pc, #148]	@ (1000404c <stdio_put_string+0xec>)
10003fb8:	4698      	mov	r8, r3
10003fba:	e002      	b.n	10003fc2 <stdio_put_string+0x62>
10003fbc:	6924      	ldr	r4, [r4, #16]
10003fbe:	2c00      	cmp	r4, #0
10003fc0:	d00f      	beq.n	10003fe2 <stdio_put_string+0x82>
10003fc2:	6823      	ldr	r3, [r4, #0]
10003fc4:	2b00      	cmp	r3, #0
10003fc6:	d0f9      	beq.n	10003fbc <stdio_put_string+0x5c>
10003fc8:	4643      	mov	r3, r8
10003fca:	681b      	ldr	r3, [r3, #0]
10003fcc:	2b00      	cmp	r3, #0
10003fce:	d001      	beq.n	10003fd4 <stdio_put_string+0x74>
10003fd0:	429c      	cmp	r4, r3
10003fd2:	d1f3      	bne.n	10003fbc <stdio_put_string+0x5c>
10003fd4:	0020      	movs	r0, r4
10003fd6:	002a      	movs	r2, r5
10003fd8:	0031      	movs	r1, r6
10003fda:	47b8      	blx	r7
10003fdc:	6924      	ldr	r4, [r4, #16]
10003fde:	2c00      	cmp	r4, #0
10003fe0:	d1ef      	bne.n	10003fc2 <stdio_put_string+0x62>
10003fe2:	464b      	mov	r3, r9
10003fe4:	2b00      	cmp	r3, #0
10003fe6:	d123      	bne.n	10004030 <stdio_put_string+0xd0>
10003fe8:	0028      	movs	r0, r5
10003fea:	b002      	add	sp, #8
10003fec:	bce0      	pop	{r5, r6, r7}
10003fee:	46ba      	mov	sl, r7
10003ff0:	46b1      	mov	r9, r6
10003ff2:	46a8      	mov	r8, r5
10003ff4:	bdf0      	pop	{r4, r5, r6, r7, pc}
10003ff6:	4f16      	ldr	r7, [pc, #88]	@ (10004050 <stdio_put_string+0xf0>)
10003ff8:	e7d6      	b.n	10003fa8 <stdio_put_string+0x48>
10003ffa:	4b14      	ldr	r3, [pc, #80]	@ (1000404c <stdio_put_string+0xec>)
10003ffc:	4698      	mov	r8, r3
10003ffe:	e002      	b.n	10004006 <stdio_put_string+0xa6>
10004000:	6924      	ldr	r4, [r4, #16]
10004002:	2c00      	cmp	r4, #0
10004004:	d0ed      	beq.n	10003fe2 <stdio_put_string+0x82>
10004006:	6823      	ldr	r3, [r4, #0]
10004008:	2b00      	cmp	r3, #0
1000400a:	d0f9      	beq.n	10004000 <stdio_put_string+0xa0>
1000400c:	4643      	mov	r3, r8
1000400e:	681b      	ldr	r3, [r3, #0]
10004010:	2b00      	cmp	r3, #0
10004012:	d001      	beq.n	10004018 <stdio_put_string+0xb8>
10004014:	42a3      	cmp	r3, r4
10004016:	d1f3      	bne.n	10004000 <stdio_put_string+0xa0>
10004018:	002a      	movs	r2, r5
1000401a:	0031      	movs	r1, r6
1000401c:	0020      	movs	r0, r4
1000401e:	47b8      	blx	r7
10004020:	466b      	mov	r3, sp
10004022:	220a      	movs	r2, #10
10004024:	0020      	movs	r0, r4
10004026:	71da      	strb	r2, [r3, #7]
10004028:	1dd9      	adds	r1, r3, #7
1000402a:	3a09      	subs	r2, #9
1000402c:	47b8      	blx	r7
1000402e:	e7e7      	b.n	10004000 <stdio_put_string+0xa0>
10004030:	4650      	mov	r0, sl
10004032:	f002 fe59 	bl	10006ce8 <__mutex_exit_veneer>
10004036:	e7d7      	b.n	10003fe8 <stdio_put_string+0x88>
10004038:	000f4240 	.word	0x000f4240
1000403c:	7fffffff 	.word	0x7fffffff
10004040:	20001060 	.word	0x20001060
10004044:	10003e6d 	.word	0x10003e6d
10004048:	20001ae8 	.word	0x20001ae8
1000404c:	20001af0 	.word	0x20001af0
10004050:	10003e5d 	.word	0x10003e5d

10004054 <stdio_set_driver_enabled>:
10004054:	4a0a      	ldr	r2, [pc, #40]	@ (10004080 <stdio_set_driver_enabled+0x2c>)
10004056:	6813      	ldr	r3, [r2, #0]
10004058:	2b00      	cmp	r3, #0
1000405a:	d105      	bne.n	10004068 <stdio_set_driver_enabled+0x14>
1000405c:	e00c      	b.n	10004078 <stdio_set_driver_enabled+0x24>
1000405e:	001a      	movs	r2, r3
10004060:	691b      	ldr	r3, [r3, #16]
10004062:	3210      	adds	r2, #16
10004064:	2b00      	cmp	r3, #0
10004066:	d007      	beq.n	10004078 <stdio_set_driver_enabled+0x24>
10004068:	4283      	cmp	r3, r0
1000406a:	d1f8      	bne.n	1000405e <stdio_set_driver_enabled+0xa>
1000406c:	2900      	cmp	r1, #0
1000406e:	d102      	bne.n	10004076 <stdio_set_driver_enabled+0x22>
10004070:	6918      	ldr	r0, [r3, #16]
10004072:	6010      	str	r0, [r2, #0]
10004074:	6119      	str	r1, [r3, #16]
10004076:	4770      	bx	lr
10004078:	2900      	cmp	r1, #0
1000407a:	d0fc      	beq.n	10004076 <stdio_set_driver_enabled+0x22>
1000407c:	6010      	str	r0, [r2, #0]
1000407e:	e7fa      	b.n	10004076 <stdio_set_driver_enabled+0x22>
10004080:	20001ae8 	.word	0x20001ae8

10004084 <stdio_init_all>:
10004084:	b510      	push	{r4, lr}
10004086:	f000 faeb 	bl	10004660 <stdio_usb_init>
1000408a:	bd10      	pop	{r4, pc}

1000408c <__wrap_putchar>:
1000408c:	b5f0      	push	{r4, r5, r6, r7, lr}
1000408e:	46ce      	mov	lr, r9
10004090:	4647      	mov	r7, r8
10004092:	b580      	push	{r7, lr}
10004094:	b083      	sub	sp, #12
10004096:	466b      	mov	r3, sp
10004098:	0006      	movs	r6, r0
1000409a:	1ddd      	adds	r5, r3, #7
1000409c:	7028      	strb	r0, [r5, #0]
1000409e:	f7fd f903 	bl	100012a8 <time_us_64>
100040a2:	2300      	movs	r3, #0
100040a4:	4a19      	ldr	r2, [pc, #100]	@ (1000410c <__wrap_putchar+0x80>)
100040a6:	1812      	adds	r2, r2, r0
100040a8:	414b      	adcs	r3, r1
100040aa:	2b00      	cmp	r3, #0
100040ac:	da02      	bge.n	100040b4 <__wrap_putchar+0x28>
100040ae:	2201      	movs	r2, #1
100040b0:	4b17      	ldr	r3, [pc, #92]	@ (10004110 <__wrap_putchar+0x84>)
100040b2:	4252      	negs	r2, r2
100040b4:	4917      	ldr	r1, [pc, #92]	@ (10004114 <__wrap_putchar+0x88>)
100040b6:	0008      	movs	r0, r1
100040b8:	4689      	mov	r9, r1
100040ba:	f002 fe55 	bl	10006d68 <__mutex_try_enter_block_until_veneer>
100040be:	4b16      	ldr	r3, [pc, #88]	@ (10004118 <__wrap_putchar+0x8c>)
100040c0:	4680      	mov	r8, r0
100040c2:	681c      	ldr	r4, [r3, #0]
100040c4:	2c00      	cmp	r4, #0
100040c6:	d014      	beq.n	100040f2 <__wrap_putchar+0x66>
100040c8:	4f14      	ldr	r7, [pc, #80]	@ (1000411c <__wrap_putchar+0x90>)
100040ca:	e002      	b.n	100040d2 <__wrap_putchar+0x46>
100040cc:	6924      	ldr	r4, [r4, #16]
100040ce:	2c00      	cmp	r4, #0
100040d0:	d00f      	beq.n	100040f2 <__wrap_putchar+0x66>
100040d2:	6823      	ldr	r3, [r4, #0]
100040d4:	2b00      	cmp	r3, #0
100040d6:	d0f9      	beq.n	100040cc <__wrap_putchar+0x40>
100040d8:	683b      	ldr	r3, [r7, #0]
100040da:	2b00      	cmp	r3, #0
100040dc:	d001      	beq.n	100040e2 <__wrap_putchar+0x56>
100040de:	429c      	cmp	r4, r3
100040e0:	d1f4      	bne.n	100040cc <__wrap_putchar+0x40>
100040e2:	0020      	movs	r0, r4
100040e4:	2201      	movs	r2, #1
100040e6:	0029      	movs	r1, r5
100040e8:	f7ff fec0 	bl	10003e6c <stdio_out_chars_crlf>
100040ec:	6924      	ldr	r4, [r4, #16]
100040ee:	2c00      	cmp	r4, #0
100040f0:	d1ef      	bne.n	100040d2 <__wrap_putchar+0x46>
100040f2:	4643      	mov	r3, r8
100040f4:	2b00      	cmp	r3, #0
100040f6:	d105      	bne.n	10004104 <__wrap_putchar+0x78>
100040f8:	0030      	movs	r0, r6
100040fa:	b003      	add	sp, #12
100040fc:	bcc0      	pop	{r6, r7}
100040fe:	46b9      	mov	r9, r7
10004100:	46b0      	mov	r8, r6
10004102:	bdf0      	pop	{r4, r5, r6, r7, pc}
10004104:	4648      	mov	r0, r9
10004106:	f002 fdef 	bl	10006ce8 <__mutex_exit_veneer>
1000410a:	e7f5      	b.n	100040f8 <__wrap_putchar+0x6c>
1000410c:	000f4240 	.word	0x000f4240
10004110:	7fffffff 	.word	0x7fffffff
10004114:	20001060 	.word	0x20001060
10004118:	20001ae8 	.word	0x20001ae8
1000411c:	20001af0 	.word	0x20001af0

10004120 <__wrap_puts>:
10004120:	b570      	push	{r4, r5, r6, lr}
10004122:	0004      	movs	r4, r0
10004124:	f002 fda6 	bl	10006c74 <strlen>
10004128:	2301      	movs	r3, #1
1000412a:	0001      	movs	r1, r0
1000412c:	0005      	movs	r5, r0
1000412e:	2201      	movs	r2, #1
10004130:	0020      	movs	r0, r4
10004132:	f7ff ff15 	bl	10003f60 <stdio_put_string>
10004136:	4b08      	ldr	r3, [pc, #32]	@ (10004158 <__wrap_puts+0x38>)
10004138:	681c      	ldr	r4, [r3, #0]
1000413a:	2c00      	cmp	r4, #0
1000413c:	d006      	beq.n	1000414c <__wrap_puts+0x2c>
1000413e:	6863      	ldr	r3, [r4, #4]
10004140:	2b00      	cmp	r3, #0
10004142:	d005      	beq.n	10004150 <__wrap_puts+0x30>
10004144:	4798      	blx	r3
10004146:	6924      	ldr	r4, [r4, #16]
10004148:	2c00      	cmp	r4, #0
1000414a:	d1f8      	bne.n	1000413e <__wrap_puts+0x1e>
1000414c:	0028      	movs	r0, r5
1000414e:	bd70      	pop	{r4, r5, r6, pc}
10004150:	6924      	ldr	r4, [r4, #16]
10004152:	2c00      	cmp	r4, #0
10004154:	d1f3      	bne.n	1000413e <__wrap_puts+0x1e>
10004156:	e7f9      	b.n	1000414c <__wrap_puts+0x2c>
10004158:	20001ae8 	.word	0x20001ae8

1000415c <__wrap_vprintf>:
1000415c:	b5f0      	push	{r4, r5, r6, r7, lr}
1000415e:	46ce      	mov	lr, r9
10004160:	4647      	mov	r7, r8
10004162:	b580      	push	{r7, lr}
10004164:	b0a3      	sub	sp, #140	@ 0x8c
10004166:	0004      	movs	r4, r0
10004168:	000e      	movs	r6, r1
1000416a:	f7fd f89d 	bl	100012a8 <time_us_64>
1000416e:	2300      	movs	r3, #0
10004170:	4a26      	ldr	r2, [pc, #152]	@ (1000420c <__wrap_vprintf+0xb0>)
10004172:	1812      	adds	r2, r2, r0
10004174:	414b      	adcs	r3, r1
10004176:	2b00      	cmp	r3, #0
10004178:	da02      	bge.n	10004180 <__wrap_vprintf+0x24>
1000417a:	2201      	movs	r2, #1
1000417c:	4b24      	ldr	r3, [pc, #144]	@ (10004210 <__wrap_vprintf+0xb4>)
1000417e:	4252      	negs	r2, r2
10004180:	4824      	ldr	r0, [pc, #144]	@ (10004214 <__wrap_vprintf+0xb8>)
10004182:	f002 fdf1 	bl	10006d68 <__mutex_try_enter_block_until_veneer>
10004186:	2300      	movs	r3, #0
10004188:	0022      	movs	r2, r4
1000418a:	9301      	str	r3, [sp, #4]
1000418c:	4680      	mov	r8, r0
1000418e:	0033      	movs	r3, r6
10004190:	4821      	ldr	r0, [pc, #132]	@ (10004218 <__wrap_vprintf+0xbc>)
10004192:	a901      	add	r1, sp, #4
10004194:	f7ff fe1e 	bl	10003dd4 <vfctprintf>
10004198:	4f20      	ldr	r7, [pc, #128]	@ (1000421c <__wrap_vprintf+0xc0>)
1000419a:	9b01      	ldr	r3, [sp, #4]
1000419c:	4681      	mov	r9, r0
1000419e:	683c      	ldr	r4, [r7, #0]
100041a0:	2b00      	cmp	r3, #0
100041a2:	d019      	beq.n	100041d8 <__wrap_vprintf+0x7c>
100041a4:	2c00      	cmp	r4, #0
100041a6:	d02f      	beq.n	10004208 <__wrap_vprintf+0xac>
100041a8:	4e1d      	ldr	r6, [pc, #116]	@ (10004220 <__wrap_vprintf+0xc4>)
100041aa:	e002      	b.n	100041b2 <__wrap_vprintf+0x56>
100041ac:	6924      	ldr	r4, [r4, #16]
100041ae:	2c00      	cmp	r4, #0
100041b0:	d00f      	beq.n	100041d2 <__wrap_vprintf+0x76>
100041b2:	6823      	ldr	r3, [r4, #0]
100041b4:	2b00      	cmp	r3, #0
100041b6:	d0f9      	beq.n	100041ac <__wrap_vprintf+0x50>
100041b8:	6833      	ldr	r3, [r6, #0]
100041ba:	2b00      	cmp	r3, #0
100041bc:	d001      	beq.n	100041c2 <__wrap_vprintf+0x66>
100041be:	42a3      	cmp	r3, r4
100041c0:	d1f4      	bne.n	100041ac <__wrap_vprintf+0x50>
100041c2:	0020      	movs	r0, r4
100041c4:	9a01      	ldr	r2, [sp, #4]
100041c6:	a902      	add	r1, sp, #8
100041c8:	f7ff fe50 	bl	10003e6c <stdio_out_chars_crlf>
100041cc:	6924      	ldr	r4, [r4, #16]
100041ce:	2c00      	cmp	r4, #0
100041d0:	d1ef      	bne.n	100041b2 <__wrap_vprintf+0x56>
100041d2:	2300      	movs	r3, #0
100041d4:	683c      	ldr	r4, [r7, #0]
100041d6:	9301      	str	r3, [sp, #4]
100041d8:	2c00      	cmp	r4, #0
100041da:	d006      	beq.n	100041ea <__wrap_vprintf+0x8e>
100041dc:	6863      	ldr	r3, [r4, #4]
100041de:	2b00      	cmp	r3, #0
100041e0:	d00c      	beq.n	100041fc <__wrap_vprintf+0xa0>
100041e2:	4798      	blx	r3
100041e4:	6924      	ldr	r4, [r4, #16]
100041e6:	2c00      	cmp	r4, #0
100041e8:	d1f8      	bne.n	100041dc <__wrap_vprintf+0x80>
100041ea:	4643      	mov	r3, r8
100041ec:	2b00      	cmp	r3, #0
100041ee:	d107      	bne.n	10004200 <__wrap_vprintf+0xa4>
100041f0:	4648      	mov	r0, r9
100041f2:	b023      	add	sp, #140	@ 0x8c
100041f4:	bcc0      	pop	{r6, r7}
100041f6:	46b9      	mov	r9, r7
100041f8:	46b0      	mov	r8, r6
100041fa:	bdf0      	pop	{r4, r5, r6, r7, pc}
100041fc:	6924      	ldr	r4, [r4, #16]
100041fe:	e7eb      	b.n	100041d8 <__wrap_vprintf+0x7c>
10004200:	4804      	ldr	r0, [pc, #16]	@ (10004214 <__wrap_vprintf+0xb8>)
10004202:	f002 fd71 	bl	10006ce8 <__mutex_exit_veneer>
10004206:	e7f3      	b.n	100041f0 <__wrap_vprintf+0x94>
10004208:	9401      	str	r4, [sp, #4]
1000420a:	e7ee      	b.n	100041ea <__wrap_vprintf+0x8e>
1000420c:	000f4240 	.word	0x000f4240
10004210:	7fffffff 	.word	0x7fffffff
10004214:	20001060 	.word	0x20001060
10004218:	10003efd 	.word	0x10003efd
1000421c:	20001ae8 	.word	0x20001ae8
10004220:	20001af0 	.word	0x20001af0

10004224 <__wrap_printf>:
10004224:	b40f      	push	{r0, r1, r2, r3}
10004226:	b500      	push	{lr}
10004228:	b083      	sub	sp, #12
1000422a:	a904      	add	r1, sp, #16
1000422c:	c901      	ldmia	r1!, {r0}
1000422e:	9101      	str	r1, [sp, #4]
10004230:	f7ff ff94 	bl	1000415c <__wrap_vprintf>
10004234:	b003      	add	sp, #12
10004236:	bc08      	pop	{r3}
10004238:	b004      	add	sp, #16
1000423a:	4718      	bx	r3

1000423c <resetd_init>:
1000423c:	4770      	bx	lr
1000423e:	46c0      	nop			@ (mov r8, r8)

10004240 <resetd_reset>:
10004240:	2200      	movs	r2, #0
10004242:	4b01      	ldr	r3, [pc, #4]	@ (10004248 <resetd_reset+0x8>)
10004244:	701a      	strb	r2, [r3, #0]
10004246:	4770      	bx	lr
10004248:	20001f5e 	.word	0x20001f5e

1000424c <resetd_open>:
1000424c:	794b      	ldrb	r3, [r1, #5]
1000424e:	2000      	movs	r0, #0
10004250:	2bff      	cmp	r3, #255	@ 0xff
10004252:	d10b      	bne.n	1000426c <resetd_open+0x20>
10004254:	798b      	ldrb	r3, [r1, #6]
10004256:	2b00      	cmp	r3, #0
10004258:	d108      	bne.n	1000426c <resetd_open+0x20>
1000425a:	79cb      	ldrb	r3, [r1, #7]
1000425c:	2b01      	cmp	r3, #1
1000425e:	d105      	bne.n	1000426c <resetd_open+0x20>
10004260:	2a08      	cmp	r2, #8
10004262:	d903      	bls.n	1000426c <resetd_open+0x20>
10004264:	4b02      	ldr	r3, [pc, #8]	@ (10004270 <resetd_open+0x24>)
10004266:	788a      	ldrb	r2, [r1, #2]
10004268:	3009      	adds	r0, #9
1000426a:	701a      	strb	r2, [r3, #0]
1000426c:	4770      	bx	lr
1000426e:	46c0      	nop			@ (mov r8, r8)
10004270:	20001f5e 	.word	0x20001f5e

10004274 <resetd_xfer_cb>:
10004274:	2001      	movs	r0, #1
10004276:	4770      	bx	lr

10004278 <resetd_control_xfer_cb>:
10004278:	b510      	push	{r4, lr}
1000427a:	2901      	cmp	r1, #1
1000427c:	d113      	bne.n	100042a6 <resetd_control_xfer_cb+0x2e>
1000427e:	4912      	ldr	r1, [pc, #72]	@ (100042c8 <resetd_control_xfer_cb+0x50>)
10004280:	7953      	ldrb	r3, [r2, #5]
10004282:	7910      	ldrb	r0, [r2, #4]
10004284:	7809      	ldrb	r1, [r1, #0]
10004286:	021b      	lsls	r3, r3, #8
10004288:	4303      	orrs	r3, r0
1000428a:	2000      	movs	r0, #0
1000428c:	4299      	cmp	r1, r3
1000428e:	d000      	beq.n	10004292 <resetd_control_xfer_cb+0x1a>
10004290:	bd10      	pop	{r4, pc}
10004292:	7853      	ldrb	r3, [r2, #1]
10004294:	2b01      	cmp	r3, #1
10004296:	d008      	beq.n	100042aa <resetd_control_xfer_cb+0x32>
10004298:	2b02      	cmp	r3, #2
1000429a:	d1f9      	bne.n	10004290 <resetd_control_xfer_cb+0x18>
1000429c:	2264      	movs	r2, #100	@ 0x64
1000429e:	2100      	movs	r1, #0
100042a0:	2000      	movs	r0, #0
100042a2:	f7fd f95f 	bl	10001564 <watchdog_reboot>
100042a6:	2001      	movs	r0, #1
100042a8:	e7f2      	b.n	10004290 <resetd_control_xfer_cb+0x18>
100042aa:	78d3      	ldrb	r3, [r2, #3]
100042ac:	7891      	ldrb	r1, [r2, #2]
100042ae:	021b      	lsls	r3, r3, #8
100042b0:	4319      	orrs	r1, r3
100042b2:	0a48      	lsrs	r0, r1, #9
100042b4:	05db      	lsls	r3, r3, #23
100042b6:	d401      	bmi.n	100042bc <resetd_control_xfer_cb+0x44>
100042b8:	2001      	movs	r0, #1
100042ba:	4240      	negs	r0, r0
100042bc:	237f      	movs	r3, #127	@ 0x7f
100042be:	058a      	lsls	r2, r1, #22
100042c0:	0fd2      	lsrs	r2, r2, #31
100042c2:	4019      	ands	r1, r3
100042c4:	f7fd f9d6 	bl	10001674 <rom_reset_usb_boot_extra>
100042c8:	20001f5e 	.word	0x20001f5e

100042cc <tud_descriptor_bos_cb>:
100042cc:	4800      	ldr	r0, [pc, #0]	@ (100042d0 <tud_descriptor_bos_cb+0x4>)
100042ce:	4770      	bx	lr
100042d0:	100076d4 	.word	0x100076d4

100042d4 <tud_vendor_control_xfer_cb>:
100042d4:	4694      	mov	ip, r2
100042d6:	2301      	movs	r3, #1
100042d8:	b510      	push	{r4, lr}
100042da:	2901      	cmp	r1, #1
100042dc:	d10a      	bne.n	100042f4 <tud_vendor_control_xfer_cb+0x20>
100042de:	7852      	ldrb	r2, [r2, #1]
100042e0:	2300      	movs	r3, #0
100042e2:	2a01      	cmp	r2, #1
100042e4:	d106      	bne.n	100042f4 <tud_vendor_control_xfer_cb+0x20>
100042e6:	4662      	mov	r2, ip
100042e8:	7911      	ldrb	r1, [r2, #4]
100042ea:	7952      	ldrb	r2, [r2, #5]
100042ec:	0212      	lsls	r2, r2, #8
100042ee:	430a      	orrs	r2, r1
100042f0:	2a07      	cmp	r2, #7
100042f2:	d001      	beq.n	100042f8 <tud_vendor_control_xfer_cb+0x24>
100042f4:	0018      	movs	r0, r3
100042f6:	bd10      	pop	{r4, pc}
100042f8:	33a6      	adds	r3, #166	@ 0xa6
100042fa:	4661      	mov	r1, ip
100042fc:	4a02      	ldr	r2, [pc, #8]	@ (10004308 <tud_vendor_control_xfer_cb+0x34>)
100042fe:	f001 fa63 	bl	100057c8 <tud_control_xfer>
10004302:	0003      	movs	r3, r0
10004304:	e7f6      	b.n	100042f4 <tud_vendor_control_xfer_cb+0x20>
10004306:	46c0      	nop			@ (mov r8, r8)
10004308:	1000762c 	.word	0x1000762c

1000430c <usbd_app_driver_get_cb>:
1000430c:	2301      	movs	r3, #1
1000430e:	7003      	strb	r3, [r0, #0]
10004310:	4800      	ldr	r0, [pc, #0]	@ (10004314 <usbd_app_driver_get_cb+0x8>)
10004312:	4770      	bx	lr
10004314:	1000760c 	.word	0x1000760c

10004318 <tud_cdc_line_coding_cb>:
10004318:	784b      	ldrb	r3, [r1, #1]
1000431a:	780a      	ldrb	r2, [r1, #0]
1000431c:	021b      	lsls	r3, r3, #8
1000431e:	4313      	orrs	r3, r2
10004320:	788a      	ldrb	r2, [r1, #2]
10004322:	b510      	push	{r4, lr}
10004324:	0412      	lsls	r2, r2, #16
10004326:	431a      	orrs	r2, r3
10004328:	78cb      	ldrb	r3, [r1, #3]
1000432a:	061b      	lsls	r3, r3, #24
1000432c:	4313      	orrs	r3, r2
1000432e:	2296      	movs	r2, #150	@ 0x96
10004330:	00d2      	lsls	r2, r2, #3
10004332:	4293      	cmp	r3, r2
10004334:	d000      	beq.n	10004338 <tud_cdc_line_coding_cb+0x20>
10004336:	bd10      	pop	{r4, pc}
10004338:	2200      	movs	r2, #0
1000433a:	2001      	movs	r0, #1
1000433c:	0011      	movs	r1, r2
1000433e:	4240      	negs	r0, r0
10004340:	f7fd f998 	bl	10001674 <rom_reset_usb_boot_extra>

10004344 <stdio_usb_set_chars_available_callback>:
10004344:	4b02      	ldr	r3, [pc, #8]	@ (10004350 <stdio_usb_set_chars_available_callback+0xc>)
10004346:	6018      	str	r0, [r3, #0]
10004348:	4b02      	ldr	r3, [pc, #8]	@ (10004354 <stdio_usb_set_chars_available_callback+0x10>)
1000434a:	6019      	str	r1, [r3, #0]
1000434c:	4770      	bx	lr
1000434e:	46c0      	nop			@ (mov r8, r8)
10004350:	20001a88 	.word	0x20001a88
10004354:	20001a8c 	.word	0x20001a8c

10004358 <usb_irq>:
10004358:	b510      	push	{r4, lr}
1000435a:	4b02      	ldr	r3, [pc, #8]	@ (10004364 <usb_irq+0xc>)
1000435c:	7818      	ldrb	r0, [r3, #0]
1000435e:	f7fc f9a5 	bl	100006ac <irq_set_pending>
10004362:	bd10      	pop	{r4, pc}
10004364:	20001f5f 	.word	0x20001f5f

10004368 <timer_task>:
10004368:	4b15      	ldr	r3, [pc, #84]	@ (100043c0 <timer_task+0x58>)
1000436a:	b570      	push	{r4, r5, r6, lr}
1000436c:	681a      	ldr	r2, [r3, #0]
1000436e:	2a00      	cmp	r2, #0
10004370:	d022      	beq.n	100043b8 <timer_task+0x50>
10004372:	f3ef 8110 	mrs	r1, PRIMASK
10004376:	b672      	cpsid	i
10004378:	6810      	ldr	r0, [r2, #0]
1000437a:	2800      	cmp	r0, #0
1000437c:	d0fc      	beq.n	10004378 <timer_task+0x10>
1000437e:	f3bf 8f5f 	dmb	sy
10004382:	2000      	movs	r0, #0
10004384:	4a0f      	ldr	r2, [pc, #60]	@ (100043c4 <timer_task+0x5c>)
10004386:	6059      	str	r1, [r3, #4]
10004388:	7010      	strb	r0, [r2, #0]
1000438a:	681b      	ldr	r3, [r3, #0]
1000438c:	f3bf 8f5f 	dmb	sy
10004390:	6018      	str	r0, [r3, #0]
10004392:	f381 8810 	msr	PRIMASK, r1
10004396:	2400      	movs	r4, #0
10004398:	2500      	movs	r5, #0
1000439a:	4e0b      	ldr	r6, [pc, #44]	@ (100043c8 <timer_task+0x60>)
1000439c:	7830      	ldrb	r0, [r6, #0]
1000439e:	f7fc f979 	bl	10000694 <irq_is_enabled>
100043a2:	2800      	cmp	r0, #0
100043a4:	d104      	bne.n	100043b0 <timer_task+0x48>
100043a6:	2400      	movs	r4, #0
100043a8:	2500      	movs	r5, #0
100043aa:	0029      	movs	r1, r5
100043ac:	0020      	movs	r0, r4
100043ae:	bd70      	pop	{r4, r5, r6, pc}
100043b0:	7830      	ldrb	r0, [r6, #0]
100043b2:	f7fc f97b 	bl	100006ac <irq_set_pending>
100043b6:	e7f8      	b.n	100043aa <timer_task+0x42>
100043b8:	24fa      	movs	r4, #250	@ 0xfa
100043ba:	2500      	movs	r5, #0
100043bc:	00a4      	lsls	r4, r4, #2
100043be:	e7ec      	b.n	1000439a <timer_task+0x32>
100043c0:	20001f18 	.word	0x20001f18
100043c4:	20001f60 	.word	0x20001f60
100043c8:	20001f5f 	.word	0x20001f5f

100043cc <stdio_usb_in_chars>:
100043cc:	b570      	push	{r4, r5, r6, lr}
100043ce:	0005      	movs	r5, r0
100043d0:	2000      	movs	r0, #0
100043d2:	000e      	movs	r6, r1
100043d4:	f001 fb10 	bl	100059f8 <tud_cdc_n_connected>
100043d8:	2800      	cmp	r0, #0
100043da:	d034      	beq.n	10004446 <stdio_usb_in_chars+0x7a>
100043dc:	2000      	movs	r0, #0
100043de:	f001 fb21 	bl	10005a24 <tud_cdc_n_available>
100043e2:	2800      	cmp	r0, #0
100043e4:	d02f      	beq.n	10004446 <stdio_usb_in_chars+0x7a>
100043e6:	f7fc ff5f 	bl	100012a8 <time_us_64>
100043ea:	2300      	movs	r3, #0
100043ec:	4a17      	ldr	r2, [pc, #92]	@ (1000444c <stdio_usb_in_chars+0x80>)
100043ee:	1812      	adds	r2, r2, r0
100043f0:	414b      	adcs	r3, r1
100043f2:	2b00      	cmp	r3, #0
100043f4:	db16      	blt.n	10004424 <stdio_usb_in_chars+0x58>
100043f6:	4c16      	ldr	r4, [pc, #88]	@ (10004450 <stdio_usb_in_chars+0x84>)
100043f8:	0020      	movs	r0, r4
100043fa:	f002 fcb5 	bl	10006d68 <__mutex_try_enter_block_until_veneer>
100043fe:	2800      	cmp	r0, #0
10004400:	d021      	beq.n	10004446 <stdio_usb_in_chars+0x7a>
10004402:	2000      	movs	r0, #0
10004404:	f001 faf8 	bl	100059f8 <tud_cdc_n_connected>
10004408:	2800      	cmp	r0, #0
1000440a:	d10f      	bne.n	1000442c <stdio_usb_in_chars+0x60>
1000440c:	2001      	movs	r0, #1
1000440e:	2100      	movs	r1, #0
10004410:	4240      	negs	r0, r0
10004412:	f000 fd0f 	bl	10004e34 <tud_task_ext>
10004416:	2503      	movs	r5, #3
10004418:	426d      	negs	r5, r5
1000441a:	0020      	movs	r0, r4
1000441c:	f002 fc64 	bl	10006ce8 <__mutex_exit_veneer>
10004420:	0028      	movs	r0, r5
10004422:	bd70      	pop	{r4, r5, r6, pc}
10004424:	2201      	movs	r2, #1
10004426:	4b0b      	ldr	r3, [pc, #44]	@ (10004454 <stdio_usb_in_chars+0x88>)
10004428:	4252      	negs	r2, r2
1000442a:	e7e4      	b.n	100043f6 <stdio_usb_in_chars+0x2a>
1000442c:	2000      	movs	r0, #0
1000442e:	f001 faf9 	bl	10005a24 <tud_cdc_n_available>
10004432:	2800      	cmp	r0, #0
10004434:	d0ea      	beq.n	1000440c <stdio_usb_in_chars+0x40>
10004436:	0029      	movs	r1, r5
10004438:	0032      	movs	r2, r6
1000443a:	2000      	movs	r0, #0
1000443c:	f001 fafc 	bl	10005a38 <tud_cdc_n_read>
10004440:	1e05      	subs	r5, r0, #0
10004442:	d1ea      	bne.n	1000441a <stdio_usb_in_chars+0x4e>
10004444:	e7e7      	b.n	10004416 <stdio_usb_in_chars+0x4a>
10004446:	2503      	movs	r5, #3
10004448:	426d      	negs	r5, r5
1000444a:	e7e9      	b.n	10004420 <stdio_usb_in_chars+0x54>
1000444c:	000f4240 	.word	0x000f4240
10004450:	20001f40 	.word	0x20001f40
10004454:	7fffffff 	.word	0x7fffffff

10004458 <stdio_usb_out_flush>:
10004458:	b510      	push	{r4, lr}
1000445a:	f7fc ff25 	bl	100012a8 <time_us_64>
1000445e:	2300      	movs	r3, #0
10004460:	4a0d      	ldr	r2, [pc, #52]	@ (10004498 <stdio_usb_out_flush+0x40>)
10004462:	1812      	adds	r2, r2, r0
10004464:	414b      	adcs	r3, r1
10004466:	2b00      	cmp	r3, #0
10004468:	da02      	bge.n	10004470 <stdio_usb_out_flush+0x18>
1000446a:	2201      	movs	r2, #1
1000446c:	4b0b      	ldr	r3, [pc, #44]	@ (1000449c <stdio_usb_out_flush+0x44>)
1000446e:	4252      	negs	r2, r2
10004470:	480b      	ldr	r0, [pc, #44]	@ (100044a0 <stdio_usb_out_flush+0x48>)
10004472:	f002 fc79 	bl	10006d68 <__mutex_try_enter_block_until_veneer>
10004476:	2800      	cmp	r0, #0
10004478:	d00c      	beq.n	10004494 <stdio_usb_out_flush+0x3c>
1000447a:	2001      	movs	r0, #1
1000447c:	2100      	movs	r1, #0
1000447e:	4240      	negs	r0, r0
10004480:	f000 fcd8 	bl	10004e34 <tud_task_ext>
10004484:	2000      	movs	r0, #0
10004486:	f001 fb1b 	bl	10005ac0 <tud_cdc_n_write_flush>
1000448a:	2800      	cmp	r0, #0
1000448c:	d1f5      	bne.n	1000447a <stdio_usb_out_flush+0x22>
1000448e:	4804      	ldr	r0, [pc, #16]	@ (100044a0 <stdio_usb_out_flush+0x48>)
10004490:	f002 fc2a 	bl	10006ce8 <__mutex_exit_veneer>
10004494:	bd10      	pop	{r4, pc}
10004496:	46c0      	nop			@ (mov r8, r8)
10004498:	000f4240 	.word	0x000f4240
1000449c:	7fffffff 	.word	0x7fffffff
100044a0:	20001f40 	.word	0x20001f40

100044a4 <stdio_usb_out_chars>:
100044a4:	b5f8      	push	{r3, r4, r5, r6, r7, lr}
100044a6:	46ce      	mov	lr, r9
100044a8:	4647      	mov	r7, r8
100044aa:	b580      	push	{r7, lr}
100044ac:	0005      	movs	r5, r0
100044ae:	000c      	movs	r4, r1
100044b0:	f7fc fefa 	bl	100012a8 <time_us_64>
100044b4:	2300      	movs	r3, #0
100044b6:	4a34      	ldr	r2, [pc, #208]	@ (10004588 <stdio_usb_out_chars+0xe4>)
100044b8:	1812      	adds	r2, r2, r0
100044ba:	414b      	adcs	r3, r1
100044bc:	2b00      	cmp	r3, #0
100044be:	da02      	bge.n	100044c6 <stdio_usb_out_chars+0x22>
100044c0:	2201      	movs	r2, #1
100044c2:	4b32      	ldr	r3, [pc, #200]	@ (1000458c <stdio_usb_out_chars+0xe8>)
100044c4:	4252      	negs	r2, r2
100044c6:	4932      	ldr	r1, [pc, #200]	@ (10004590 <stdio_usb_out_chars+0xec>)
100044c8:	0008      	movs	r0, r1
100044ca:	4688      	mov	r8, r1
100044cc:	f002 fc4c 	bl	10006d68 <__mutex_try_enter_block_until_veneer>
100044d0:	2800      	cmp	r0, #0
100044d2:	d103      	bne.n	100044dc <stdio_usb_out_chars+0x38>
100044d4:	bcc0      	pop	{r6, r7}
100044d6:	46b9      	mov	r9, r7
100044d8:	46b0      	mov	r8, r6
100044da:	bdf8      	pop	{r3, r4, r5, r6, r7, pc}
100044dc:	2000      	movs	r0, #0
100044de:	f001 fa8b 	bl	100059f8 <tud_cdc_n_connected>
100044e2:	2800      	cmp	r0, #0
100044e4:	d048      	beq.n	10004578 <stdio_usb_out_chars+0xd4>
100044e6:	2600      	movs	r6, #0
100044e8:	2c00      	cmp	r4, #0
100044ea:	dd41      	ble.n	10004570 <stdio_usb_out_chars+0xcc>
100044ec:	4b29      	ldr	r3, [pc, #164]	@ (10004594 <stdio_usb_out_chars+0xf0>)
100044ee:	4699      	mov	r9, r3
100044f0:	e013      	b.n	1000451a <stdio_usb_out_chars+0x76>
100044f2:	19a9      	adds	r1, r5, r6
100044f4:	2000      	movs	r0, #0
100044f6:	f001 fb1f 	bl	10005b38 <tud_cdc_n_write>
100044fa:	0007      	movs	r7, r0
100044fc:	2001      	movs	r0, #1
100044fe:	2100      	movs	r1, #0
10004500:	4240      	negs	r0, r0
10004502:	f000 fc97 	bl	10004e34 <tud_task_ext>
10004506:	2000      	movs	r0, #0
10004508:	f001 fada 	bl	10005ac0 <tud_cdc_n_write_flush>
1000450c:	f7fc fecc 	bl	100012a8 <time_us_64>
10004510:	4b20      	ldr	r3, [pc, #128]	@ (10004594 <stdio_usb_out_chars+0xf0>)
10004512:	19f6      	adds	r6, r6, r7
10004514:	c303      	stmia	r3!, {r0, r1}
10004516:	42b4      	cmp	r4, r6
10004518:	dd2a      	ble.n	10004570 <stdio_usb_out_chars+0xcc>
1000451a:	2000      	movs	r0, #0
1000451c:	f001 fb2c 	bl	10005b78 <tud_cdc_n_write_available>
10004520:	1ba7      	subs	r7, r4, r6
10004522:	0002      	movs	r2, r0
10004524:	42b8      	cmp	r0, r7
10004526:	dd00      	ble.n	1000452a <stdio_usb_out_chars+0x86>
10004528:	003a      	movs	r2, r7
1000452a:	2a00      	cmp	r2, #0
1000452c:	d1e1      	bne.n	100044f2 <stdio_usb_out_chars+0x4e>
1000452e:	2001      	movs	r0, #1
10004530:	2100      	movs	r1, #0
10004532:	4240      	negs	r0, r0
10004534:	f000 fc7e 	bl	10004e34 <tud_task_ext>
10004538:	2000      	movs	r0, #0
1000453a:	f001 fac1 	bl	10005ac0 <tud_cdc_n_write_flush>
1000453e:	2000      	movs	r0, #0
10004540:	f001 fa5a 	bl	100059f8 <tud_cdc_n_connected>
10004544:	2800      	cmp	r0, #0
10004546:	d013      	beq.n	10004570 <stdio_usb_out_chars+0xcc>
10004548:	2000      	movs	r0, #0
1000454a:	f001 fb15 	bl	10005b78 <tud_cdc_n_write_available>
1000454e:	2800      	cmp	r0, #0
10004550:	d1e1      	bne.n	10004516 <stdio_usb_out_chars+0x72>
10004552:	f7fc fea9 	bl	100012a8 <time_us_64>
10004556:	464b      	mov	r3, r9
10004558:	000f      	movs	r7, r1
1000455a:	cb0c      	ldmia	r3, {r2, r3}
1000455c:	2100      	movs	r1, #0
1000455e:	4684      	mov	ip, r0
10004560:	480d      	ldr	r0, [pc, #52]	@ (10004598 <stdio_usb_out_chars+0xf4>)
10004562:	1812      	adds	r2, r2, r0
10004564:	414b      	adcs	r3, r1
10004566:	429f      	cmp	r7, r3
10004568:	d802      	bhi.n	10004570 <stdio_usb_out_chars+0xcc>
1000456a:	d1d4      	bne.n	10004516 <stdio_usb_out_chars+0x72>
1000456c:	4594      	cmp	ip, r2
1000456e:	d9d2      	bls.n	10004516 <stdio_usb_out_chars+0x72>
10004570:	4640      	mov	r0, r8
10004572:	f002 fbb9 	bl	10006ce8 <__mutex_exit_veneer>
10004576:	e7ad      	b.n	100044d4 <stdio_usb_out_chars+0x30>
10004578:	2000      	movs	r0, #0
1000457a:	2100      	movs	r1, #0
1000457c:	4b05      	ldr	r3, [pc, #20]	@ (10004594 <stdio_usb_out_chars+0xf0>)
1000457e:	c303      	stmia	r3!, {r0, r1}
10004580:	4640      	mov	r0, r8
10004582:	f002 fbb1 	bl	10006ce8 <__mutex_exit_veneer>
10004586:	e7a5      	b.n	100044d4 <stdio_usb_out_chars+0x30>
10004588:	000f4240 	.word	0x000f4240
1000458c:	7fffffff 	.word	0x7fffffff
10004590:	20001f40 	.word	0x20001f40
10004594:	200012b0 	.word	0x200012b0
10004598:	0007a120 	.word	0x0007a120

1000459c <low_priority_worker_irq>:
1000459c:	b530      	push	{r4, r5, lr}
1000459e:	2100      	movs	r1, #0
100045a0:	b085      	sub	sp, #20
100045a2:	4828      	ldr	r0, [pc, #160]	@ (10004644 <low_priority_worker_irq+0xa8>)
100045a4:	f002 fbc0 	bl	10006d28 <__mutex_try_enter_veneer>
100045a8:	2800      	cmp	r0, #0
100045aa:	d11c      	bne.n	100045e6 <low_priority_worker_irq+0x4a>
100045ac:	4b26      	ldr	r3, [pc, #152]	@ (10004648 <low_priority_worker_irq+0xac>)
100045ae:	681a      	ldr	r2, [r3, #0]
100045b0:	2a00      	cmp	r2, #0
100045b2:	d016      	beq.n	100045e2 <low_priority_worker_irq+0x46>
100045b4:	f3ef 8110 	mrs	r1, PRIMASK
100045b8:	b672      	cpsid	i
100045ba:	6810      	ldr	r0, [r2, #0]
100045bc:	2800      	cmp	r0, #0
100045be:	d0fc      	beq.n	100045ba <low_priority_worker_irq+0x1e>
100045c0:	f3bf 8f5f 	dmb	sy
100045c4:	2401      	movs	r4, #1
100045c6:	4821      	ldr	r0, [pc, #132]	@ (1000464c <low_priority_worker_irq+0xb0>)
100045c8:	6059      	str	r1, [r3, #4]
100045ca:	7802      	ldrb	r2, [r0, #0]
100045cc:	681b      	ldr	r3, [r3, #0]
100045ce:	b2d2      	uxtb	r2, r2
100045d0:	7004      	strb	r4, [r0, #0]
100045d2:	f3bf 8f5f 	dmb	sy
100045d6:	2000      	movs	r0, #0
100045d8:	6018      	str	r0, [r3, #0]
100045da:	f381 8810 	msr	PRIMASK, r1
100045de:	2a00      	cmp	r2, #0
100045e0:	d017      	beq.n	10004612 <low_priority_worker_irq+0x76>
100045e2:	b005      	add	sp, #20
100045e4:	bd30      	pop	{r4, r5, pc}
100045e6:	2001      	movs	r0, #1
100045e8:	2100      	movs	r1, #0
100045ea:	4240      	negs	r0, r0
100045ec:	f000 fc22 	bl	10004e34 <tud_task_ext>
100045f0:	2000      	movs	r0, #0
100045f2:	f001 fa17 	bl	10005a24 <tud_cdc_n_available>
100045f6:	0005      	movs	r5, r0
100045f8:	4812      	ldr	r0, [pc, #72]	@ (10004644 <low_priority_worker_irq+0xa8>)
100045fa:	f002 fb75 	bl	10006ce8 <__mutex_exit_veneer>
100045fe:	2d00      	cmp	r5, #0
10004600:	d0ef      	beq.n	100045e2 <low_priority_worker_irq+0x46>
10004602:	4b13      	ldr	r3, [pc, #76]	@ (10004650 <low_priority_worker_irq+0xb4>)
10004604:	681b      	ldr	r3, [r3, #0]
10004606:	2b00      	cmp	r3, #0
10004608:	d0eb      	beq.n	100045e2 <low_priority_worker_irq+0x46>
1000460a:	4a12      	ldr	r2, [pc, #72]	@ (10004654 <low_priority_worker_irq+0xb8>)
1000460c:	6810      	ldr	r0, [r2, #0]
1000460e:	4798      	blx	r3
10004610:	e7e7      	b.n	100045e2 <low_priority_worker_irq+0x46>
10004612:	f7fc fc35 	bl	10000e80 <alarm_pool_get_default>
10004616:	0004      	movs	r4, r0
10004618:	f7fc fe46 	bl	100012a8 <time_us_64>
1000461c:	22fa      	movs	r2, #250	@ 0xfa
1000461e:	2300      	movs	r3, #0
10004620:	0092      	lsls	r2, r2, #2
10004622:	1812      	adds	r2, r2, r0
10004624:	414b      	adcs	r3, r1
10004626:	2b00      	cmp	r3, #0
10004628:	da02      	bge.n	10004630 <low_priority_worker_irq+0x94>
1000462a:	2201      	movs	r2, #1
1000462c:	4b0a      	ldr	r3, [pc, #40]	@ (10004658 <low_priority_worker_irq+0xbc>)
1000462e:	4252      	negs	r2, r2
10004630:	2101      	movs	r1, #1
10004632:	9102      	str	r1, [sp, #8]
10004634:	2100      	movs	r1, #0
10004636:	9101      	str	r1, [sp, #4]
10004638:	4908      	ldr	r1, [pc, #32]	@ (1000465c <low_priority_worker_irq+0xc0>)
1000463a:	0020      	movs	r0, r4
1000463c:	9100      	str	r1, [sp, #0]
1000463e:	f7fc fc23 	bl	10000e88 <alarm_pool_add_alarm_at>
10004642:	e7ce      	b.n	100045e2 <low_priority_worker_irq+0x46>
10004644:	20001f40 	.word	0x20001f40
10004648:	20001f18 	.word	0x20001f18
1000464c:	20001f60 	.word	0x20001f60
10004650:	20001a88 	.word	0x20001a88
10004654:	20001a8c 	.word	0x20001a8c
10004658:	7fffffff 	.word	0x7fffffff
1000465c:	10004369 	.word	0x10004369

10004660 <stdio_usb_init>:
10004660:	23d0      	movs	r3, #208	@ 0xd0
10004662:	b510      	push	{r4, lr}
10004664:	061b      	lsls	r3, r3, #24
10004666:	b084      	sub	sp, #16
10004668:	681c      	ldr	r4, [r3, #0]
1000466a:	f7fc fc09 	bl	10000e80 <alarm_pool_get_default>
1000466e:	f7fc fd09 	bl	10001084 <alarm_pool_core_num>
10004672:	42a0      	cmp	r0, r4
10004674:	d002      	beq.n	1000467c <stdio_usb_init+0x1c>
10004676:	2000      	movs	r0, #0
10004678:	b004      	add	sp, #16
1000467a:	bd10      	pop	{r4, pc}
1000467c:	4b28      	ldr	r3, [pc, #160]	@ (10004720 <stdio_usb_init+0xc0>)
1000467e:	2100      	movs	r1, #0
10004680:	2000      	movs	r0, #0
10004682:	781b      	ldrb	r3, [r3, #0]
10004684:	f001 fd60 	bl	10006148 <tusb_rhport_init>
10004688:	4826      	ldr	r0, [pc, #152]	@ (10004724 <stdio_usb_init+0xc4>)
1000468a:	6803      	ldr	r3, [r0, #0]
1000468c:	2b00      	cmp	r3, #0
1000468e:	d044      	beq.n	1000471a <stdio_usb_init+0xba>
10004690:	2001      	movs	r0, #1
10004692:	f7fc f98d 	bl	100009b0 <user_irq_claim_unused>
10004696:	23ff      	movs	r3, #255	@ 0xff
10004698:	4c23      	ldr	r4, [pc, #140]	@ (10004728 <stdio_usb_init+0xc8>)
1000469a:	4924      	ldr	r1, [pc, #144]	@ (1000472c <stdio_usb_init+0xcc>)
1000469c:	7020      	strb	r0, [r4, #0]
1000469e:	4018      	ands	r0, r3
100046a0:	f7fc f81c 	bl	100006dc <irq_set_exclusive_handler>
100046a4:	7820      	ldrb	r0, [r4, #0]
100046a6:	2101      	movs	r1, #1
100046a8:	f7fb ffe2 	bl	10000670 <irq_set_enabled>
100046ac:	2005      	movs	r0, #5
100046ae:	f7fc f805 	bl	100006bc <irq_has_shared_handler>
100046b2:	2800      	cmp	r0, #0
100046b4:	d124      	bne.n	10004700 <stdio_usb_init+0xa0>
100046b6:	2208      	movs	r2, #8
100046b8:	2100      	movs	r1, #0
100046ba:	481d      	ldr	r0, [pc, #116]	@ (10004730 <stdio_usb_init+0xd0>)
100046bc:	f7fd ffe6 	bl	1000268c <__wrap_memset>
100046c0:	f7fc fbde 	bl	10000e80 <alarm_pool_get_default>
100046c4:	0004      	movs	r4, r0
100046c6:	f7fc fdef 	bl	100012a8 <time_us_64>
100046ca:	22fa      	movs	r2, #250	@ 0xfa
100046cc:	2300      	movs	r3, #0
100046ce:	0092      	lsls	r2, r2, #2
100046d0:	1812      	adds	r2, r2, r0
100046d2:	414b      	adcs	r3, r1
100046d4:	2b00      	cmp	r3, #0
100046d6:	da02      	bge.n	100046de <stdio_usb_init+0x7e>
100046d8:	2201      	movs	r2, #1
100046da:	4b16      	ldr	r3, [pc, #88]	@ (10004734 <stdio_usb_init+0xd4>)
100046dc:	4252      	negs	r2, r2
100046de:	2101      	movs	r1, #1
100046e0:	9102      	str	r1, [sp, #8]
100046e2:	2100      	movs	r1, #0
100046e4:	9101      	str	r1, [sp, #4]
100046e6:	4914      	ldr	r1, [pc, #80]	@ (10004738 <stdio_usb_init+0xd8>)
100046e8:	0020      	movs	r0, r4
100046ea:	9100      	str	r1, [sp, #0]
100046ec:	f7fc fbcc 	bl	10000e88 <alarm_pool_add_alarm_at>
100046f0:	2800      	cmp	r0, #0
100046f2:	dbc0      	blt.n	10004676 <stdio_usb_init+0x16>
100046f4:	4811      	ldr	r0, [pc, #68]	@ (1000473c <stdio_usb_init+0xdc>)
100046f6:	2101      	movs	r1, #1
100046f8:	f7ff fcac 	bl	10004054 <stdio_set_driver_enabled>
100046fc:	2001      	movs	r0, #1
100046fe:	e7bb      	b.n	10004678 <stdio_usb_init+0x18>
10004700:	2001      	movs	r0, #1
10004702:	f7fb ff73 	bl	100005ec <spin_lock_claim_unused>
10004706:	0001      	movs	r1, r0
10004708:	4809      	ldr	r0, [pc, #36]	@ (10004730 <stdio_usb_init+0xd0>)
1000470a:	f7fc f9b1 	bl	10000a70 <critical_section_init_with_lock_num>
1000470e:	2200      	movs	r2, #0
10004710:	2005      	movs	r0, #5
10004712:	490b      	ldr	r1, [pc, #44]	@ (10004740 <stdio_usb_init+0xe0>)
10004714:	f7fc f80c 	bl	10000730 <irq_add_shared_handler>
10004718:	e7ec      	b.n	100046f4 <stdio_usb_init+0x94>
1000471a:	f7fc f98d 	bl	10000a38 <mutex_init>
1000471e:	e7b7      	b.n	10004690 <stdio_usb_init+0x30>
10004720:	10007888 	.word	0x10007888
10004724:	20001f40 	.word	0x20001f40
10004728:	20001f5f 	.word	0x20001f5f
1000472c:	1000459d 	.word	0x1000459d
10004730:	20001f18 	.word	0x20001f18
10004734:	7fffffff 	.word	0x7fffffff
10004738:	10004369 	.word	0x10004369
1000473c:	20001020 	.word	0x20001020
10004740:	10004359 	.word	0x10004359

10004744 <tud_descriptor_device_cb>:
10004744:	4800      	ldr	r0, [pc, #0]	@ (10004748 <tud_descriptor_device_cb+0x4>)
10004746:	4770      	bx	lr
10004748:	10007770 	.word	0x10007770

1000474c <tud_descriptor_configuration_cb>:
1000474c:	4800      	ldr	r0, [pc, #0]	@ (10004750 <tud_descriptor_configuration_cb+0x4>)
1000474e:	4770      	bx	lr
10004750:	1000771c 	.word	0x1000771c

10004754 <tud_descriptor_string_cb>:
10004754:	b510      	push	{r4, lr}
10004756:	0004      	movs	r4, r0
10004758:	4816      	ldr	r0, [pc, #88]	@ (100047b4 <tud_descriptor_string_cb+0x60>)
1000475a:	7803      	ldrb	r3, [r0, #0]
1000475c:	2b00      	cmp	r3, #0
1000475e:	d020      	beq.n	100047a2 <tud_descriptor_string_cb+0x4e>
10004760:	2c00      	cmp	r4, #0
10004762:	d106      	bne.n	10004772 <tud_descriptor_string_cb+0x1e>
10004764:	4b14      	ldr	r3, [pc, #80]	@ (100047b8 <tud_descriptor_string_cb+0x64>)
10004766:	4815      	ldr	r0, [pc, #84]	@ (100047bc <tud_descriptor_string_cb+0x68>)
10004768:	8043      	strh	r3, [r0, #2]
1000476a:	3b06      	subs	r3, #6
1000476c:	3bff      	subs	r3, #255	@ 0xff
1000476e:	8003      	strh	r3, [r0, #0]
10004770:	bd10      	pop	{r4, pc}
10004772:	2c05      	cmp	r4, #5
10004774:	d81c      	bhi.n	100047b0 <tud_descriptor_string_cb+0x5c>
10004776:	4b12      	ldr	r3, [pc, #72]	@ (100047c0 <tud_descriptor_string_cb+0x6c>)
10004778:	00a4      	lsls	r4, r4, #2
1000477a:	58e4      	ldr	r4, [r4, r3]
1000477c:	480f      	ldr	r0, [pc, #60]	@ (100047bc <tud_descriptor_string_cb+0x68>)
1000477e:	2301      	movs	r3, #1
10004780:	1c81      	adds	r1, r0, #2
10004782:	3c01      	subs	r4, #1
10004784:	e004      	b.n	10004790 <tud_descriptor_string_cb+0x3c>
10004786:	3301      	adds	r3, #1
10004788:	800a      	strh	r2, [r1, #0]
1000478a:	3102      	adds	r1, #2
1000478c:	2b14      	cmp	r3, #20
1000478e:	d00c      	beq.n	100047aa <tud_descriptor_string_cb+0x56>
10004790:	5ce2      	ldrb	r2, [r4, r3]
10004792:	2a00      	cmp	r2, #0
10004794:	d1f7      	bne.n	10004786 <tud_descriptor_string_cb+0x32>
10004796:	22c0      	movs	r2, #192	@ 0xc0
10004798:	b2db      	uxtb	r3, r3
1000479a:	005b      	lsls	r3, r3, #1
1000479c:	0092      	lsls	r2, r2, #2
1000479e:	4313      	orrs	r3, r2
100047a0:	e7e5      	b.n	1000476e <tud_descriptor_string_cb+0x1a>
100047a2:	2111      	movs	r1, #17
100047a4:	f000 f816 	bl	100047d4 <pico_get_unique_board_id_string>
100047a8:	e7da      	b.n	10004760 <tud_descriptor_string_cb+0xc>
100047aa:	23ca      	movs	r3, #202	@ 0xca
100047ac:	009b      	lsls	r3, r3, #2
100047ae:	e7de      	b.n	1000476e <tud_descriptor_string_cb+0x1a>
100047b0:	2000      	movs	r0, #0
100047b2:	e7dd      	b.n	10004770 <tud_descriptor_string_cb+0x1c>
100047b4:	20001f48 	.word	0x20001f48
100047b8:	00000409 	.word	0x00000409
100047bc:	20001ac0 	.word	0x20001ac0
100047c0:	10007704 	.word	0x10007704

100047c4 <_retrieve_unique_id_on_boot>:
100047c4:	b510      	push	{r4, lr}
100047c6:	4802      	ldr	r0, [pc, #8]	@ (100047d0 <_retrieve_unique_id_on_boot+0xc>)
100047c8:	f000 f8f4 	bl	100049b4 <flash_get_unique_id>
100047cc:	bd10      	pop	{r4, pc}
100047ce:	46c0      	nop			@ (mov r8, r8)
100047d0:	20001f30 	.word	0x20001f30

100047d4 <pico_get_unique_board_id_string>:
100047d4:	b530      	push	{r4, r5, lr}
100047d6:	2901      	cmp	r1, #1
100047d8:	d100      	bne.n	100047dc <pico_get_unique_board_id_string+0x8>
100047da:	e0bb      	b.n	10004954 <pico_get_unique_board_id_string+0x180>
100047dc:	4b74      	ldr	r3, [pc, #464]	@ (100049b0 <pico_get_unique_board_id_string+0x1dc>)
100047de:	3901      	subs	r1, #1
100047e0:	781a      	ldrb	r2, [r3, #0]
100047e2:	1112      	asrs	r2, r2, #4
100047e4:	0014      	movs	r4, r2
100047e6:	3430      	adds	r4, #48	@ 0x30
100047e8:	2a09      	cmp	r2, #9
100047ea:	dd00      	ble.n	100047ee <pico_get_unique_board_id_string+0x1a>
100047ec:	e0b5      	b.n	1000495a <pico_get_unique_board_id_string+0x186>
100047ee:	7004      	strb	r4, [r0, #0]
100047f0:	2901      	cmp	r1, #1
100047f2:	d100      	bne.n	100047f6 <pico_get_unique_board_id_string+0x22>
100047f4:	e0da      	b.n	100049ac <pico_get_unique_board_id_string+0x1d8>
100047f6:	220f      	movs	r2, #15
100047f8:	781c      	ldrb	r4, [r3, #0]
100047fa:	4022      	ands	r2, r4
100047fc:	0014      	movs	r4, r2
100047fe:	3430      	adds	r4, #48	@ 0x30
10004800:	2a09      	cmp	r2, #9
10004802:	d900      	bls.n	10004806 <pico_get_unique_board_id_string+0x32>
10004804:	e0ac      	b.n	10004960 <pico_get_unique_board_id_string+0x18c>
10004806:	7044      	strb	r4, [r0, #1]
10004808:	2902      	cmp	r1, #2
1000480a:	d100      	bne.n	1000480e <pico_get_unique_board_id_string+0x3a>
1000480c:	e0ce      	b.n	100049ac <pico_get_unique_board_id_string+0x1d8>
1000480e:	785a      	ldrb	r2, [r3, #1]
10004810:	4694      	mov	ip, r2
10004812:	1112      	asrs	r2, r2, #4
10004814:	0014      	movs	r4, r2
10004816:	3430      	adds	r4, #48	@ 0x30
10004818:	2a09      	cmp	r2, #9
1000481a:	dd00      	ble.n	1000481e <pico_get_unique_board_id_string+0x4a>
1000481c:	e0a3      	b.n	10004966 <pico_get_unique_board_id_string+0x192>
1000481e:	7084      	strb	r4, [r0, #2]
10004820:	2903      	cmp	r1, #3
10004822:	d100      	bne.n	10004826 <pico_get_unique_board_id_string+0x52>
10004824:	e0c2      	b.n	100049ac <pico_get_unique_board_id_string+0x1d8>
10004826:	4664      	mov	r4, ip
10004828:	220f      	movs	r2, #15
1000482a:	4022      	ands	r2, r4
1000482c:	0014      	movs	r4, r2
1000482e:	3430      	adds	r4, #48	@ 0x30
10004830:	2a09      	cmp	r2, #9
10004832:	d900      	bls.n	10004836 <pico_get_unique_board_id_string+0x62>
10004834:	e09a      	b.n	1000496c <pico_get_unique_board_id_string+0x198>
10004836:	70c4      	strb	r4, [r0, #3]
10004838:	2904      	cmp	r1, #4
1000483a:	d100      	bne.n	1000483e <pico_get_unique_board_id_string+0x6a>
1000483c:	e0b6      	b.n	100049ac <pico_get_unique_board_id_string+0x1d8>
1000483e:	789a      	ldrb	r2, [r3, #2]
10004840:	4694      	mov	ip, r2
10004842:	1112      	asrs	r2, r2, #4
10004844:	0014      	movs	r4, r2
10004846:	3430      	adds	r4, #48	@ 0x30
10004848:	2a09      	cmp	r2, #9
1000484a:	dd00      	ble.n	1000484e <pico_get_unique_board_id_string+0x7a>
1000484c:	e091      	b.n	10004972 <pico_get_unique_board_id_string+0x19e>
1000484e:	7104      	strb	r4, [r0, #4]
10004850:	2905      	cmp	r1, #5
10004852:	d100      	bne.n	10004856 <pico_get_unique_board_id_string+0x82>
10004854:	e0aa      	b.n	100049ac <pico_get_unique_board_id_string+0x1d8>
10004856:	4664      	mov	r4, ip
10004858:	220f      	movs	r2, #15
1000485a:	4022      	ands	r2, r4
1000485c:	0014      	movs	r4, r2
1000485e:	3430      	adds	r4, #48	@ 0x30
10004860:	2a09      	cmp	r2, #9
10004862:	d900      	bls.n	10004866 <pico_get_unique_board_id_string+0x92>
10004864:	e088      	b.n	10004978 <pico_get_unique_board_id_string+0x1a4>
10004866:	7144      	strb	r4, [r0, #5]
10004868:	2906      	cmp	r1, #6
1000486a:	d100      	bne.n	1000486e <pico_get_unique_board_id_string+0x9a>
1000486c:	e09e      	b.n	100049ac <pico_get_unique_board_id_string+0x1d8>
1000486e:	2530      	movs	r5, #48	@ 0x30
10004870:	46ac      	mov	ip, r5
10004872:	78dc      	ldrb	r4, [r3, #3]
10004874:	1122      	asrs	r2, r4, #4
10004876:	4494      	add	ip, r2
10004878:	2a09      	cmp	r2, #9
1000487a:	dd00      	ble.n	1000487e <pico_get_unique_board_id_string+0xaa>
1000487c:	e07f      	b.n	1000497e <pico_get_unique_board_id_string+0x1aa>
1000487e:	4662      	mov	r2, ip
10004880:	7182      	strb	r2, [r0, #6]
10004882:	2907      	cmp	r1, #7
10004884:	d100      	bne.n	10004888 <pico_get_unique_board_id_string+0xb4>
10004886:	e091      	b.n	100049ac <pico_get_unique_board_id_string+0x1d8>
10004888:	220f      	movs	r2, #15
1000488a:	4022      	ands	r2, r4
1000488c:	0014      	movs	r4, r2
1000488e:	3430      	adds	r4, #48	@ 0x30
10004890:	2a09      	cmp	r2, #9
10004892:	d900      	bls.n	10004896 <pico_get_unique_board_id_string+0xc2>
10004894:	e077      	b.n	10004986 <pico_get_unique_board_id_string+0x1b2>
10004896:	71c4      	strb	r4, [r0, #7]
10004898:	2908      	cmp	r1, #8
1000489a:	d100      	bne.n	1000489e <pico_get_unique_board_id_string+0xca>
1000489c:	e086      	b.n	100049ac <pico_get_unique_board_id_string+0x1d8>
1000489e:	2530      	movs	r5, #48	@ 0x30
100048a0:	46ac      	mov	ip, r5
100048a2:	791c      	ldrb	r4, [r3, #4]
100048a4:	1122      	asrs	r2, r4, #4
100048a6:	4494      	add	ip, r2
100048a8:	2a09      	cmp	r2, #9
100048aa:	dd00      	ble.n	100048ae <pico_get_unique_board_id_string+0xda>
100048ac:	e06e      	b.n	1000498c <pico_get_unique_board_id_string+0x1b8>
100048ae:	4662      	mov	r2, ip
100048b0:	7202      	strb	r2, [r0, #8]
100048b2:	2909      	cmp	r1, #9
100048b4:	d100      	bne.n	100048b8 <pico_get_unique_board_id_string+0xe4>
100048b6:	e079      	b.n	100049ac <pico_get_unique_board_id_string+0x1d8>
100048b8:	220f      	movs	r2, #15
100048ba:	4022      	ands	r2, r4
100048bc:	0014      	movs	r4, r2
100048be:	3430      	adds	r4, #48	@ 0x30
100048c0:	2a09      	cmp	r2, #9
100048c2:	d867      	bhi.n	10004994 <pico_get_unique_board_id_string+0x1c0>
100048c4:	7244      	strb	r4, [r0, #9]
100048c6:	290a      	cmp	r1, #10
100048c8:	d100      	bne.n	100048cc <pico_get_unique_board_id_string+0xf8>
100048ca:	e06f      	b.n	100049ac <pico_get_unique_board_id_string+0x1d8>
100048cc:	2530      	movs	r5, #48	@ 0x30
100048ce:	46ac      	mov	ip, r5
100048d0:	795c      	ldrb	r4, [r3, #5]
100048d2:	1122      	asrs	r2, r4, #4
100048d4:	4494      	add	ip, r2
100048d6:	2a09      	cmp	r2, #9
100048d8:	dc5f      	bgt.n	1000499a <pico_get_unique_board_id_string+0x1c6>
100048da:	4662      	mov	r2, ip
100048dc:	7282      	strb	r2, [r0, #10]
100048de:	290b      	cmp	r1, #11
100048e0:	d064      	beq.n	100049ac <pico_get_unique_board_id_string+0x1d8>
100048e2:	220f      	movs	r2, #15
100048e4:	4022      	ands	r2, r4
100048e6:	0014      	movs	r4, r2
100048e8:	3430      	adds	r4, #48	@ 0x30
100048ea:	2a09      	cmp	r2, #9
100048ec:	d859      	bhi.n	100049a2 <pico_get_unique_board_id_string+0x1ce>
100048ee:	72c4      	strb	r4, [r0, #11]
100048f0:	290c      	cmp	r1, #12
100048f2:	d05b      	beq.n	100049ac <pico_get_unique_board_id_string+0x1d8>
100048f4:	2530      	movs	r5, #48	@ 0x30
100048f6:	46ac      	mov	ip, r5
100048f8:	799c      	ldrb	r4, [r3, #6]
100048fa:	1122      	asrs	r2, r4, #4
100048fc:	4494      	add	ip, r2
100048fe:	2a09      	cmp	r2, #9
10004900:	dd02      	ble.n	10004908 <pico_get_unique_board_id_string+0x134>
10004902:	3507      	adds	r5, #7
10004904:	46ac      	mov	ip, r5
10004906:	4494      	add	ip, r2
10004908:	4662      	mov	r2, ip
1000490a:	7302      	strb	r2, [r0, #12]
1000490c:	290d      	cmp	r1, #13
1000490e:	d04d      	beq.n	100049ac <pico_get_unique_board_id_string+0x1d8>
10004910:	220f      	movs	r2, #15
10004912:	4022      	ands	r2, r4
10004914:	0014      	movs	r4, r2
10004916:	3430      	adds	r4, #48	@ 0x30
10004918:	2a09      	cmp	r2, #9
1000491a:	d901      	bls.n	10004920 <pico_get_unique_board_id_string+0x14c>
1000491c:	3237      	adds	r2, #55	@ 0x37
1000491e:	0014      	movs	r4, r2
10004920:	7344      	strb	r4, [r0, #13]
10004922:	290e      	cmp	r1, #14
10004924:	d042      	beq.n	100049ac <pico_get_unique_board_id_string+0x1d8>
10004926:	79da      	ldrb	r2, [r3, #7]
10004928:	1113      	asrs	r3, r2, #4
1000492a:	001c      	movs	r4, r3
1000492c:	3430      	adds	r4, #48	@ 0x30
1000492e:	2b09      	cmp	r3, #9
10004930:	dd01      	ble.n	10004936 <pico_get_unique_board_id_string+0x162>
10004932:	3337      	adds	r3, #55	@ 0x37
10004934:	001c      	movs	r4, r3
10004936:	7384      	strb	r4, [r0, #14]
10004938:	290f      	cmp	r1, #15
1000493a:	d037      	beq.n	100049ac <pico_get_unique_board_id_string+0x1d8>
1000493c:	230f      	movs	r3, #15
1000493e:	4013      	ands	r3, r2
10004940:	001a      	movs	r2, r3
10004942:	3237      	adds	r2, #55	@ 0x37
10004944:	2b09      	cmp	r3, #9
10004946:	d801      	bhi.n	1000494c <pico_get_unique_board_id_string+0x178>
10004948:	3330      	adds	r3, #48	@ 0x30
1000494a:	001a      	movs	r2, r3
1000494c:	73c2      	strb	r2, [r0, #15]
1000494e:	2910      	cmp	r1, #16
10004950:	d02c      	beq.n	100049ac <pico_get_unique_board_id_string+0x1d8>
10004952:	3010      	adds	r0, #16
10004954:	2300      	movs	r3, #0
10004956:	7003      	strb	r3, [r0, #0]
10004958:	bd30      	pop	{r4, r5, pc}
1000495a:	3237      	adds	r2, #55	@ 0x37
1000495c:	0014      	movs	r4, r2
1000495e:	e746      	b.n	100047ee <pico_get_unique_board_id_string+0x1a>
10004960:	3237      	adds	r2, #55	@ 0x37
10004962:	0014      	movs	r4, r2
10004964:	e74f      	b.n	10004806 <pico_get_unique_board_id_string+0x32>
10004966:	3237      	adds	r2, #55	@ 0x37
10004968:	0014      	movs	r4, r2
1000496a:	e758      	b.n	1000481e <pico_get_unique_board_id_string+0x4a>
1000496c:	3237      	adds	r2, #55	@ 0x37
1000496e:	0014      	movs	r4, r2
10004970:	e761      	b.n	10004836 <pico_get_unique_board_id_string+0x62>
10004972:	3237      	adds	r2, #55	@ 0x37
10004974:	0014      	movs	r4, r2
10004976:	e76a      	b.n	1000484e <pico_get_unique_board_id_string+0x7a>
10004978:	3237      	adds	r2, #55	@ 0x37
1000497a:	0014      	movs	r4, r2
1000497c:	e773      	b.n	10004866 <pico_get_unique_board_id_string+0x92>
1000497e:	3507      	adds	r5, #7
10004980:	46ac      	mov	ip, r5
10004982:	4494      	add	ip, r2
10004984:	e77b      	b.n	1000487e <pico_get_unique_board_id_string+0xaa>
10004986:	3237      	adds	r2, #55	@ 0x37
10004988:	0014      	movs	r4, r2
1000498a:	e784      	b.n	10004896 <pico_get_unique_board_id_string+0xc2>
1000498c:	3507      	adds	r5, #7
1000498e:	46ac      	mov	ip, r5
10004990:	4494      	add	ip, r2
10004992:	e78c      	b.n	100048ae <pico_get_unique_board_id_string+0xda>
10004994:	3237      	adds	r2, #55	@ 0x37
10004996:	0014      	movs	r4, r2
10004998:	e794      	b.n	100048c4 <pico_get_unique_board_id_string+0xf0>
1000499a:	3507      	adds	r5, #7
1000499c:	46ac      	mov	ip, r5
1000499e:	4494      	add	ip, r2
100049a0:	e79b      	b.n	100048da <pico_get_unique_board_id_string+0x106>
100049a2:	3237      	adds	r2, #55	@ 0x37
100049a4:	0014      	movs	r4, r2
100049a6:	72c4      	strb	r4, [r0, #11]
100049a8:	290c      	cmp	r1, #12
100049aa:	d1a3      	bne.n	100048f4 <pico_get_unique_board_id_string+0x120>
100049ac:	1840      	adds	r0, r0, r1
100049ae:	e7d1      	b.n	10004954 <pico_get_unique_board_id_string+0x180>
100049b0:	20001f30 	.word	0x20001f30

100049b4 <flash_get_unique_id>:
100049b4:	b510      	push	{r4, lr}
100049b6:	b088      	sub	sp, #32
100049b8:	0004      	movs	r4, r0
100049ba:	220d      	movs	r2, #13
100049bc:	2100      	movs	r1, #0
100049be:	4668      	mov	r0, sp
100049c0:	f7fd fe64 	bl	1000268c <__wrap_memset>
100049c4:	220d      	movs	r2, #13
100049c6:	2100      	movs	r1, #0
100049c8:	a804      	add	r0, sp, #16
100049ca:	f7fd fe5f 	bl	1000268c <__wrap_memset>
100049ce:	234b      	movs	r3, #75	@ 0x4b
100049d0:	466a      	mov	r2, sp
100049d2:	4668      	mov	r0, sp
100049d4:	7013      	strb	r3, [r2, #0]
100049d6:	a904      	add	r1, sp, #16
100049d8:	220d      	movs	r2, #13
100049da:	f002 f97d 	bl	10006cd8 <__flash_do_cmd_veneer>
100049de:	2115      	movs	r1, #21
100049e0:	2208      	movs	r2, #8
100049e2:	0020      	movs	r0, r4
100049e4:	4469      	add	r1, sp
100049e6:	f7fd fe57 	bl	10002698 <__wrap___aeabi_memcpy>
100049ea:	b008      	add	sp, #32
100049ec:	bd10      	pop	{r4, pc}
100049ee:	46c0      	nop			@ (mov r8, r8)

100049f0 <dcd_init>:
100049f0:	b5f8      	push	{r3, r4, r5, r6, r7, lr}
100049f2:	f000 f947 	bl	10004c84 <rp2040_usb_init>
100049f6:	230c      	movs	r3, #12
100049f8:	4d19      	ldr	r5, [pc, #100]	@ (10004a60 <dcd_init+0x70>)
100049fa:	22ff      	movs	r2, #255	@ 0xff
100049fc:	67ab      	str	r3, [r5, #120]	@ 0x78
100049fe:	2005      	movs	r0, #5
10004a00:	4918      	ldr	r1, [pc, #96]	@ (10004a64 <dcd_init+0x74>)
10004a02:	f7fb fe95 	bl	10000730 <irq_add_shared_handler>
10004a06:	4c18      	ldr	r4, [pc, #96]	@ (10004a68 <dcd_init+0x78>)
10004a08:	2240      	movs	r2, #64	@ 0x40
10004a0a:	2100      	movs	r1, #0
10004a0c:	0020      	movs	r0, r4
10004a0e:	f7fd fe3d 	bl	1000268c <__wrap_memset>
10004a12:	2740      	movs	r7, #64	@ 0x40
10004a14:	2300      	movs	r3, #0
10004a16:	2601      	movs	r6, #1
10004a18:	2121      	movs	r1, #33	@ 0x21
10004a1a:	4a14      	ldr	r2, [pc, #80]	@ (10004a6c <dcd_init+0x7c>)
10004a1c:	7066      	strb	r6, [r4, #1]
10004a1e:	8327      	strh	r7, [r4, #24]
10004a20:	60a2      	str	r2, [r4, #8]
10004a22:	6013      	str	r3, [r2, #0]
10004a24:	5463      	strb	r3, [r4, r1]
10004a26:	315f      	adds	r1, #95	@ 0x5f
10004a28:	8461      	strh	r1, [r4, #34]	@ 0x22
10004a2a:	3945      	subs	r1, #69	@ 0x45
10004a2c:	5463      	strb	r3, [r4, r1]
10004a2e:	4a10      	ldr	r2, [pc, #64]	@ (10004a70 <dcd_init+0x80>)
10004a30:	4910      	ldr	r1, [pc, #64]	@ (10004a74 <dcd_init+0x84>)
10004a32:	6063      	str	r3, [r4, #4]
10004a34:	60e2      	str	r2, [r4, #12]
10004a36:	8727      	strh	r7, [r4, #56]	@ 0x38
10004a38:	62a1      	str	r1, [r4, #40]	@ 0x28
10004a3a:	600b      	str	r3, [r1, #0]
10004a3c:	6263      	str	r3, [r4, #36]	@ 0x24
10004a3e:	62e2      	str	r2, [r4, #44]	@ 0x2c
10004a40:	f002 f982 	bl	10006d48 <__reset_non_control_endpoints_veneer>
10004a44:	2380      	movs	r3, #128	@ 0x80
10004a46:	059b      	lsls	r3, r3, #22
10004a48:	642e      	str	r6, [r5, #64]	@ 0x40
10004a4a:	64eb      	str	r3, [r5, #76]	@ 0x4c
10004a4c:	2390      	movs	r3, #144	@ 0x90
10004a4e:	4a0a      	ldr	r2, [pc, #40]	@ (10004a78 <dcd_init+0x88>)
10004a50:	2001      	movs	r0, #1
10004a52:	50ea      	str	r2, [r5, r3]
10004a54:	2280      	movs	r2, #128	@ 0x80
10004a56:	4b09      	ldr	r3, [pc, #36]	@ (10004a7c <dcd_init+0x8c>)
10004a58:	0252      	lsls	r2, r2, #9
10004a5a:	64da      	str	r2, [r3, #76]	@ 0x4c
10004a5c:	bdf8      	pop	{r3, r4, r5, r6, r7, pc}
10004a5e:	46c0      	nop			@ (mov r8, r8)
10004a60:	50110000 	.word	0x50110000
10004a64:	20000515 	.word	0x20000515
10004a68:	20001af4 	.word	0x20001af4
10004a6c:	50100084 	.word	0x50100084
10004a70:	50100100 	.word	0x50100100
10004a74:	50100080 	.word	0x50100080
10004a78:	0001d010 	.word	0x0001d010
10004a7c:	50112000 	.word	0x50112000

10004a80 <dcd_int_enable>:
10004a80:	b510      	push	{r4, lr}
10004a82:	2101      	movs	r1, #1
10004a84:	2005      	movs	r0, #5
10004a86:	f7fb fdf3 	bl	10000670 <irq_set_enabled>
10004a8a:	bd10      	pop	{r4, pc}

10004a8c <dcd_set_address>:
10004a8c:	b510      	push	{r4, lr}
10004a8e:	2200      	movs	r2, #0
10004a90:	2100      	movs	r1, #0
10004a92:	4802      	ldr	r0, [pc, #8]	@ (10004a9c <dcd_set_address+0x10>)
10004a94:	f000 f916 	bl	10004cc4 <hw_endpoint_xfer_start>
10004a98:	bd10      	pop	{r4, pc}
10004a9a:	46c0      	nop			@ (mov r8, r8)
10004a9c:	20001b14 	.word	0x20001b14

10004aa0 <dcd_sof_enable>:
10004aa0:	4b04      	ldr	r3, [pc, #16]	@ (10004ab4 <dcd_sof_enable+0x14>)
10004aa2:	7019      	strb	r1, [r3, #0]
10004aa4:	2900      	cmp	r1, #0
10004aa6:	d004      	beq.n	10004ab2 <dcd_sof_enable+0x12>
10004aa8:	2180      	movs	r1, #128	@ 0x80
10004aaa:	2390      	movs	r3, #144	@ 0x90
10004aac:	4a02      	ldr	r2, [pc, #8]	@ (10004ab8 <dcd_sof_enable+0x18>)
10004aae:	0289      	lsls	r1, r1, #10
10004ab0:	50d1      	str	r1, [r2, r3]
10004ab2:	4770      	bx	lr
10004ab4:	20001f5a 	.word	0x20001f5a
10004ab8:	50112000 	.word	0x50112000

10004abc <dcd_edpt0_status_complete>:
10004abc:	780b      	ldrb	r3, [r1, #0]
10004abe:	065b      	lsls	r3, r3, #25
10004ac0:	d000      	beq.n	10004ac4 <dcd_edpt0_status_complete+0x8>
10004ac2:	4770      	bx	lr
10004ac4:	784b      	ldrb	r3, [r1, #1]
10004ac6:	2b05      	cmp	r3, #5
10004ac8:	d1fb      	bne.n	10004ac2 <dcd_edpt0_status_complete+0x6>
10004aca:	788a      	ldrb	r2, [r1, #2]
10004acc:	4b01      	ldr	r3, [pc, #4]	@ (10004ad4 <dcd_edpt0_status_complete+0x18>)
10004ace:	601a      	str	r2, [r3, #0]
10004ad0:	e7f7      	b.n	10004ac2 <dcd_edpt0_status_complete+0x6>
10004ad2:	46c0      	nop			@ (mov r8, r8)
10004ad4:	50110000 	.word	0x50110000

10004ad8 <dcd_edpt_open>:
10004ad8:	b5f8      	push	{r3, r4, r5, r6, r7, lr}
10004ada:	46ce      	mov	lr, r9
10004adc:	4647      	mov	r7, r8
10004ade:	78c8      	ldrb	r0, [r1, #3]
10004ae0:	b580      	push	{r7, lr}
10004ae2:	0780      	lsls	r0, r0, #30
10004ae4:	0f83      	lsrs	r3, r0, #30
10004ae6:	0018      	movs	r0, r3
10004ae8:	2b01      	cmp	r3, #1
10004aea:	d061      	beq.n	10004bb0 <dcd_edpt_open+0xd8>
10004aec:	788b      	ldrb	r3, [r1, #2]
10004aee:	790a      	ldrb	r2, [r1, #4]
10004af0:	469c      	mov	ip, r3
10004af2:	794b      	ldrb	r3, [r1, #5]
10004af4:	217f      	movs	r1, #127	@ 0x7f
10004af6:	021b      	lsls	r3, r3, #8
10004af8:	4313      	orrs	r3, r2
10004afa:	055b      	lsls	r3, r3, #21
10004afc:	0d5e      	lsrs	r6, r3, #21
10004afe:	4663      	mov	r3, ip
10004b00:	4019      	ands	r1, r3
10004b02:	09dc      	lsrs	r4, r3, #7
10004b04:	004b      	lsls	r3, r1, #1
10004b06:	191a      	adds	r2, r3, r4
10004b08:	001f      	movs	r7, r3
10004b0a:	4663      	mov	r3, ip
10004b0c:	4d2f      	ldr	r5, [pc, #188]	@ (10004bcc <dcd_edpt_open+0xf4>)
10004b0e:	0152      	lsls	r2, r2, #5
10004b10:	18aa      	adds	r2, r5, r2
10004b12:	7093      	strb	r3, [r2, #2]
10004b14:	2301      	movs	r3, #1
10004b16:	4063      	eors	r3, r4
10004b18:	7053      	strb	r3, [r2, #1]
10004b1a:	2300      	movs	r3, #0
10004b1c:	8316      	strh	r6, [r2, #24]
10004b1e:	70d3      	strb	r3, [r2, #3]
10004b20:	76d0      	strb	r0, [r2, #27]
10004b22:	46b1      	mov	r9, r6
10004b24:	00ca      	lsls	r2, r1, #3
10004b26:	2c01      	cmp	r4, #1
10004b28:	d031      	beq.n	10004b8e <dcd_edpt_open+0xb6>
10004b2a:	4e29      	ldr	r6, [pc, #164]	@ (10004bd0 <dcd_edpt_open+0xf8>)
10004b2c:	1992      	adds	r2, r2, r6
10004b2e:	018e      	lsls	r6, r1, #6
10004b30:	46b4      	mov	ip, r6
10004b32:	44ac      	add	ip, r5
10004b34:	4666      	mov	r6, ip
10004b36:	60b2      	str	r2, [r6, #8]
10004b38:	6013      	str	r3, [r2, #0]
10004b3a:	2900      	cmp	r1, #0
10004b3c:	d031      	beq.n	10004ba2 <dcd_edpt_open+0xca>
10004b3e:	4b25      	ldr	r3, [pc, #148]	@ (10004bd4 <dcd_edpt_open+0xfc>)
10004b40:	00c9      	lsls	r1, r1, #3
10004b42:	18c9      	adds	r1, r1, r3
10004b44:	6071      	str	r1, [r6, #4]
10004b46:	464b      	mov	r3, r9
10004b48:	333f      	adds	r3, #63	@ 0x3f
10004b4a:	099b      	lsrs	r3, r3, #6
10004b4c:	2802      	cmp	r0, #2
10004b4e:	d036      	beq.n	10004bbe <dcd_edpt_open+0xe6>
10004b50:	019b      	lsls	r3, r3, #6
10004b52:	4821      	ldr	r0, [pc, #132]	@ (10004bd8 <dcd_edpt_open+0x100>)
10004b54:	1939      	adds	r1, r7, r4
10004b56:	6802      	ldr	r2, [r0, #0]
10004b58:	0149      	lsls	r1, r1, #5
10004b5a:	1869      	adds	r1, r5, r1
10004b5c:	000e      	movs	r6, r1
10004b5e:	60ca      	str	r2, [r1, #12]
10004b60:	491e      	ldr	r1, [pc, #120]	@ (10004bdc <dcd_edpt_open+0x104>)
10004b62:	18d3      	adds	r3, r2, r3
10004b64:	6003      	str	r3, [r0, #0]
10004b66:	428b      	cmp	r3, r1
10004b68:	d82b      	bhi.n	10004bc2 <dcd_edpt_open+0xea>
10004b6a:	193b      	adds	r3, r7, r4
10004b6c:	015b      	lsls	r3, r3, #5
10004b6e:	18ed      	adds	r5, r5, r3
10004b70:	7eeb      	ldrb	r3, [r5, #27]
10004b72:	491b      	ldr	r1, [pc, #108]	@ (10004be0 <dcd_edpt_open+0x108>)
10004b74:	069b      	lsls	r3, r3, #26
10004b76:	404a      	eors	r2, r1
10004b78:	4313      	orrs	r3, r2
10004b7a:	2280      	movs	r2, #128	@ 0x80
10004b7c:	0612      	lsls	r2, r2, #24
10004b7e:	4313      	orrs	r3, r2
10004b80:	686a      	ldr	r2, [r5, #4]
10004b82:	6013      	str	r3, [r2, #0]
10004b84:	2001      	movs	r0, #1
10004b86:	bcc0      	pop	{r6, r7}
10004b88:	46b9      	mov	r9, r7
10004b8a:	46b0      	mov	r8, r6
10004b8c:	bdf8      	pop	{r3, r4, r5, r6, r7, pc}
10004b8e:	4e15      	ldr	r6, [pc, #84]	@ (10004be4 <dcd_edpt_open+0x10c>)
10004b90:	1992      	adds	r2, r2, r6
10004b92:	018e      	lsls	r6, r1, #6
10004b94:	46b4      	mov	ip, r6
10004b96:	44ac      	add	ip, r5
10004b98:	4666      	mov	r6, ip
10004b9a:	62b2      	str	r2, [r6, #40]	@ 0x28
10004b9c:	6013      	str	r3, [r2, #0]
10004b9e:	2900      	cmp	r1, #0
10004ba0:	d108      	bne.n	10004bb4 <dcd_edpt_open+0xdc>
10004ba2:	2300      	movs	r3, #0
10004ba4:	0164      	lsls	r4, r4, #5
10004ba6:	192c      	adds	r4, r5, r4
10004ba8:	6063      	str	r3, [r4, #4]
10004baa:	4b0f      	ldr	r3, [pc, #60]	@ (10004be8 <dcd_edpt_open+0x110>)
10004bac:	60e3      	str	r3, [r4, #12]
10004bae:	e7e9      	b.n	10004b84 <dcd_edpt_open+0xac>
10004bb0:	2000      	movs	r0, #0
10004bb2:	e7e8      	b.n	10004b86 <dcd_edpt_open+0xae>
10004bb4:	4b0a      	ldr	r3, [pc, #40]	@ (10004be0 <dcd_edpt_open+0x108>)
10004bb6:	00c9      	lsls	r1, r1, #3
10004bb8:	18c9      	adds	r1, r1, r3
10004bba:	6271      	str	r1, [r6, #36]	@ 0x24
10004bbc:	e7c3      	b.n	10004b46 <dcd_edpt_open+0x6e>
10004bbe:	01db      	lsls	r3, r3, #7
10004bc0:	e7c7      	b.n	10004b52 <dcd_edpt_open+0x7a>
10004bc2:	f7fc fd7f 	bl	100016c4 <hard_assertion_failure>
10004bc6:	68f2      	ldr	r2, [r6, #12]
10004bc8:	e7cf      	b.n	10004b6a <dcd_edpt_open+0x92>
10004bca:	46c0      	nop			@ (mov r8, r8)
10004bcc:	20001af4 	.word	0x20001af4
10004bd0:	50100084 	.word	0x50100084
10004bd4:	50100004 	.word	0x50100004
10004bd8:	20001efc 	.word	0x20001efc
10004bdc:	50100fff 	.word	0x50100fff
10004be0:	50100000 	.word	0x50100000
10004be4:	50100080 	.word	0x50100080
10004be8:	50100100 	.word	0x50100100

10004bec <dcd_edpt_close_all>:
10004bec:	b510      	push	{r4, lr}
10004bee:	f002 f8ab 	bl	10006d48 <__reset_non_control_endpoints_veneer>
10004bf2:	bd10      	pop	{r4, pc}

10004bf4 <dcd_edpt_xfer>:
10004bf4:	207f      	movs	r0, #127	@ 0x7f
10004bf6:	b510      	push	{r4, lr}
10004bf8:	4008      	ands	r0, r1
10004bfa:	0040      	lsls	r0, r0, #1
10004bfc:	09c9      	lsrs	r1, r1, #7
10004bfe:	1840      	adds	r0, r0, r1
10004c00:	0011      	movs	r1, r2
10004c02:	4a04      	ldr	r2, [pc, #16]	@ (10004c14 <dcd_edpt_xfer+0x20>)
10004c04:	0140      	lsls	r0, r0, #5
10004c06:	1880      	adds	r0, r0, r2
10004c08:	001a      	movs	r2, r3
10004c0a:	f000 f85b 	bl	10004cc4 <hw_endpoint_xfer_start>
10004c0e:	2001      	movs	r0, #1
10004c10:	bd10      	pop	{r4, pc}
10004c12:	46c0      	nop			@ (mov r8, r8)
10004c14:	20001af4 	.word	0x20001af4

10004c18 <dcd_edpt_stall>:
10004c18:	237f      	movs	r3, #127	@ 0x7f
10004c1a:	0018      	movs	r0, r3
10004c1c:	b500      	push	{lr}
10004c1e:	4008      	ands	r0, r1
10004c20:	b083      	sub	sp, #12
10004c22:	420b      	tst	r3, r1
10004c24:	d104      	bne.n	10004c30 <dcd_edpt_stall+0x18>
10004c26:	424b      	negs	r3, r1
10004c28:	414b      	adcs	r3, r1
10004c2a:	4a08      	ldr	r2, [pc, #32]	@ (10004c4c <dcd_edpt_stall+0x34>)
10004c2c:	3301      	adds	r3, #1
10004c2e:	6693      	str	r3, [r2, #104]	@ 0x68
10004c30:	2280      	movs	r2, #128	@ 0x80
10004c32:	09c9      	lsrs	r1, r1, #7
10004c34:	0040      	lsls	r0, r0, #1
10004c36:	4b06      	ldr	r3, [pc, #24]	@ (10004c50 <dcd_edpt_stall+0x38>)
10004c38:	1840      	adds	r0, r0, r1
10004c3a:	0140      	lsls	r0, r0, #5
10004c3c:	2100      	movs	r1, #0
10004c3e:	18c0      	adds	r0, r0, r3
10004c40:	0112      	lsls	r2, r2, #4
10004c42:	f002 f8a1 	bl	10006d88 <___hw_endpoint_buffer_control_update32_veneer>
10004c46:	b003      	add	sp, #12
10004c48:	bd00      	pop	{pc}
10004c4a:	46c0      	nop			@ (mov r8, r8)
10004c4c:	50112000 	.word	0x50112000
10004c50:	20001af4 	.word	0x20001af4

10004c54 <dcd_edpt_clear_stall>:
10004c54:	227f      	movs	r2, #127	@ 0x7f
10004c56:	0013      	movs	r3, r2
10004c58:	b510      	push	{r4, lr}
10004c5a:	400b      	ands	r3, r1
10004c5c:	420a      	tst	r2, r1
10004c5e:	d100      	bne.n	10004c62 <dcd_edpt_clear_stall+0xe>
10004c60:	bd10      	pop	{r4, pc}
10004c62:	09c9      	lsrs	r1, r1, #7
10004c64:	005b      	lsls	r3, r3, #1
10004c66:	185b      	adds	r3, r3, r1
10004c68:	4804      	ldr	r0, [pc, #16]	@ (10004c7c <dcd_edpt_clear_stall+0x28>)
10004c6a:	015b      	lsls	r3, r3, #5
10004c6c:	18c0      	adds	r0, r0, r3
10004c6e:	2300      	movs	r3, #0
10004c70:	2200      	movs	r2, #0
10004c72:	4903      	ldr	r1, [pc, #12]	@ (10004c80 <dcd_edpt_clear_stall+0x2c>)
10004c74:	70c3      	strb	r3, [r0, #3]
10004c76:	f002 f887 	bl	10006d88 <___hw_endpoint_buffer_control_update32_veneer>
10004c7a:	e7f1      	b.n	10004c60 <dcd_edpt_clear_stall+0xc>
10004c7c:	20001af4 	.word	0x20001af4
10004c80:	fffff7ff 	.word	0xfffff7ff

10004c84 <rp2040_usb_init>:
10004c84:	2280      	movs	r2, #128	@ 0x80
10004c86:	4b0a      	ldr	r3, [pc, #40]	@ (10004cb0 <rp2040_usb_init+0x2c>)
10004c88:	0452      	lsls	r2, r2, #17
10004c8a:	b510      	push	{r4, lr}
10004c8c:	601a      	str	r2, [r3, #0]
10004c8e:	4b09      	ldr	r3, [pc, #36]	@ (10004cb4 <rp2040_usb_init+0x30>)
10004c90:	4909      	ldr	r1, [pc, #36]	@ (10004cb8 <rp2040_usb_init+0x34>)
10004c92:	601a      	str	r2, [r3, #0]
10004c94:	0010      	movs	r0, r2
10004c96:	680b      	ldr	r3, [r1, #0]
10004c98:	4398      	bics	r0, r3
10004c9a:	d1fb      	bne.n	10004c94 <rp2040_usb_init+0x10>
10004c9c:	2280      	movs	r2, #128	@ 0x80
10004c9e:	2100      	movs	r1, #0
10004ca0:	0152      	lsls	r2, r2, #5
10004ca2:	4806      	ldr	r0, [pc, #24]	@ (10004cbc <rp2040_usb_init+0x38>)
10004ca4:	f7fd fcf2 	bl	1000268c <__wrap_memset>
10004ca8:	2209      	movs	r2, #9
10004caa:	4b05      	ldr	r3, [pc, #20]	@ (10004cc0 <rp2040_usb_init+0x3c>)
10004cac:	675a      	str	r2, [r3, #116]	@ 0x74
10004cae:	bd10      	pop	{r4, pc}
10004cb0:	4000e000 	.word	0x4000e000
10004cb4:	4000f000 	.word	0x4000f000
10004cb8:	4000c008 	.word	0x4000c008
10004cbc:	50100000 	.word	0x50100000
10004cc0:	50110000 	.word	0x50110000

10004cc4 <hw_endpoint_xfer_start>:
10004cc4:	2300      	movs	r3, #0
10004cc6:	b510      	push	{r4, lr}
10004cc8:	82c3      	strh	r3, [r0, #22]
10004cca:	3301      	adds	r3, #1
10004ccc:	8282      	strh	r2, [r0, #20]
10004cce:	7683      	strb	r3, [r0, #26]
10004cd0:	6101      	str	r1, [r0, #16]
10004cd2:	0004      	movs	r4, r0
10004cd4:	f002 f840 	bl	10006d58 <__e15_is_bulkin_ep_veneer>
10004cd8:	2800      	cmp	r0, #0
10004cda:	d004      	beq.n	10004ce6 <hw_endpoint_xfer_start+0x22>
10004cdc:	2180      	movs	r1, #128	@ 0x80
10004cde:	2390      	movs	r3, #144	@ 0x90
10004ce0:	4a07      	ldr	r2, [pc, #28]	@ (10004d00 <hw_endpoint_xfer_start+0x3c>)
10004ce2:	0289      	lsls	r1, r1, #10
10004ce4:	50d1      	str	r1, [r2, r3]
10004ce6:	0020      	movs	r0, r4
10004ce8:	f002 f80e 	bl	10006d08 <__e15_is_critical_frame_period_veneer>
10004cec:	2800      	cmp	r0, #0
10004cee:	d002      	beq.n	10004cf6 <hw_endpoint_xfer_start+0x32>
10004cf0:	2301      	movs	r3, #1
10004cf2:	7723      	strb	r3, [r4, #28]
10004cf4:	bd10      	pop	{r4, pc}
10004cf6:	0020      	movs	r0, r4
10004cf8:	f002 f83e 	bl	10006d78 <__hw_endpoint_start_next_buffer_veneer>
10004cfc:	e7fa      	b.n	10004cf4 <hw_endpoint_xfer_start+0x30>
10004cfe:	46c0      	nop			@ (mov r8, r8)
10004d00:	50112000 	.word	0x50112000

10004d04 <tud_event_hook_cb>:
10004d04:	4770      	bx	lr
10004d06:	46c0      	nop			@ (mov r8, r8)

10004d08 <tud_sof_cb>:
10004d08:	4770      	bx	lr
10004d0a:	46c0      	nop			@ (mov r8, r8)

10004d0c <tud_descriptor_device_qualifier_cb>:
10004d0c:	2000      	movs	r0, #0
10004d0e:	4770      	bx	lr

10004d10 <tud_descriptor_other_speed_configuration_cb>:
10004d10:	2000      	movs	r0, #0
10004d12:	4770      	bx	lr

10004d14 <tud_mount_cb>:
10004d14:	4770      	bx	lr
10004d16:	46c0      	nop			@ (mov r8, r8)

10004d18 <tud_umount_cb>:
10004d18:	4770      	bx	lr
10004d1a:	46c0      	nop			@ (mov r8, r8)

10004d1c <tud_suspend_cb>:
10004d1c:	4770      	bx	lr
10004d1e:	46c0      	nop			@ (mov r8, r8)

10004d20 <tud_resume_cb>:
10004d20:	4770      	bx	lr
10004d22:	46c0      	nop			@ (mov r8, r8)

10004d24 <tud_mounted>:
10004d24:	4b02      	ldr	r3, [pc, #8]	@ (10004d30 <tud_mounted+0xc>)
10004d26:	7858      	ldrb	r0, [r3, #1]
10004d28:	1e43      	subs	r3, r0, #1
10004d2a:	4198      	sbcs	r0, r3
10004d2c:	b2c0      	uxtb	r0, r0
10004d2e:	4770      	bx	lr
10004d30:	200015a0 	.word	0x200015a0

10004d34 <tud_suspended>:
10004d34:	4b02      	ldr	r3, [pc, #8]	@ (10004d40 <tud_suspended+0xc>)
10004d36:	7818      	ldrb	r0, [r3, #0]
10004d38:	0740      	lsls	r0, r0, #29
10004d3a:	0fc0      	lsrs	r0, r0, #31
10004d3c:	4770      	bx	lr
10004d3e:	46c0      	nop			@ (mov r8, r8)
10004d40:	200015a0 	.word	0x200015a0

10004d44 <tud_rhport_init>:
10004d44:	b5f0      	push	{r4, r5, r6, r7, lr}
10004d46:	46d6      	mov	lr, sl
10004d48:	464f      	mov	r7, r9
10004d4a:	4646      	mov	r6, r8
10004d4c:	b5c0      	push	{r6, r7, lr}
10004d4e:	4b2e      	ldr	r3, [pc, #184]	@ (10004e08 <tud_rhport_init+0xc4>)
10004d50:	4681      	mov	r9, r0
10004d52:	4698      	mov	r8, r3
10004d54:	781b      	ldrb	r3, [r3, #0]
10004d56:	468a      	mov	sl, r1
10004d58:	2bff      	cmp	r3, #255	@ 0xff
10004d5a:	d14e      	bne.n	10004dfa <tud_rhport_init+0xb6>
10004d5c:	2900      	cmp	r1, #0
10004d5e:	d03e      	beq.n	10004dde <tud_rhport_init+0x9a>
10004d60:	2100      	movs	r1, #0
10004d62:	2254      	movs	r2, #84	@ 0x54
10004d64:	4829      	ldr	r0, [pc, #164]	@ (10004e0c <tud_rhport_init+0xc8>)
10004d66:	f7fd fc91 	bl	1000268c <__wrap_memset>
10004d6a:	2200      	movs	r2, #0
10004d6c:	4c28      	ldr	r4, [pc, #160]	@ (10004e10 <tud_rhport_init+0xcc>)
10004d6e:	4b29      	ldr	r3, [pc, #164]	@ (10004e14 <tud_rhport_init+0xd0>)
10004d70:	0020      	movs	r0, r4
10004d72:	701a      	strb	r2, [r3, #0]
10004d74:	f7fb fe60 	bl	10000a38 <mutex_init>
10004d78:	4b27      	ldr	r3, [pc, #156]	@ (10004e18 <tud_rhport_init+0xd4>)
10004d7a:	601c      	str	r4, [r3, #0]
10004d7c:	4c27      	ldr	r4, [pc, #156]	@ (10004e1c <tud_rhport_init+0xd8>)
10004d7e:	0020      	movs	r0, r4
10004d80:	3c14      	subs	r4, #20
10004d82:	f7fb fe67 	bl	10000a54 <critical_section_init>
10004d86:	0020      	movs	r0, r4
10004d88:	f001 fdda 	bl	10006940 <tu_fifo_clear>
10004d8c:	4b24      	ldr	r3, [pc, #144]	@ (10004e20 <tud_rhport_init+0xdc>)
10004d8e:	4d25      	ldr	r5, [pc, #148]	@ (10004e24 <tud_rhport_init+0xe0>)
10004d90:	601c      	str	r4, [r3, #0]
10004d92:	4b25      	ldr	r3, [pc, #148]	@ (10004e28 <tud_rhport_init+0xe4>)
10004d94:	2b00      	cmp	r3, #0
10004d96:	d004      	beq.n	10004da2 <tud_rhport_init+0x5e>
10004d98:	0028      	movs	r0, r5
10004d9a:	f7ff fab7 	bl	1000430c <usbd_app_driver_get_cb>
10004d9e:	4b23      	ldr	r3, [pc, #140]	@ (10004e2c <tud_rhport_init+0xe8>)
10004da0:	6018      	str	r0, [r3, #0]
10004da2:	2400      	movs	r4, #0
10004da4:	2300      	movs	r3, #0
10004da6:	782a      	ldrb	r2, [r5, #0]
10004da8:	4f21      	ldr	r7, [pc, #132]	@ (10004e30 <tud_rhport_init+0xec>)
10004daa:	4e20      	ldr	r6, [pc, #128]	@ (10004e2c <tud_rhport_init+0xe8>)
10004dac:	e00f      	b.n	10004dce <tud_rhport_init+0x8a>
10004dae:	6833      	ldr	r3, [r6, #0]
10004db0:	0162      	lsls	r2, r4, #5
10004db2:	189b      	adds	r3, r3, r2
10004db4:	2b00      	cmp	r3, #0
10004db6:	d012      	beq.n	10004dde <tud_rhport_init+0x9a>
10004db8:	685b      	ldr	r3, [r3, #4]
10004dba:	2b00      	cmp	r3, #0
10004dbc:	d00f      	beq.n	10004dde <tud_rhport_init+0x9a>
10004dbe:	4798      	blx	r3
10004dc0:	782a      	ldrb	r2, [r5, #0]
10004dc2:	3401      	adds	r4, #1
10004dc4:	b2e4      	uxtb	r4, r4
10004dc6:	1c51      	adds	r1, r2, #1
10004dc8:	0023      	movs	r3, r4
10004dca:	42a1      	cmp	r1, r4
10004dcc:	db09      	blt.n	10004de2 <tud_rhport_init+0x9e>
10004dce:	42a2      	cmp	r2, r4
10004dd0:	d8ed      	bhi.n	10004dae <tud_rhport_init+0x6a>
10004dd2:	1a9b      	subs	r3, r3, r2
10004dd4:	015b      	lsls	r3, r3, #5
10004dd6:	19db      	adds	r3, r3, r7
10004dd8:	685b      	ldr	r3, [r3, #4]
10004dda:	2b00      	cmp	r3, #0
10004ddc:	d1ef      	bne.n	10004dbe <tud_rhport_init+0x7a>
10004dde:	2000      	movs	r0, #0
10004de0:	e00c      	b.n	10004dfc <tud_rhport_init+0xb8>
10004de2:	4642      	mov	r2, r8
10004de4:	464b      	mov	r3, r9
10004de6:	4651      	mov	r1, sl
10004de8:	4648      	mov	r0, r9
10004dea:	7013      	strb	r3, [r2, #0]
10004dec:	f7ff fe00 	bl	100049f0 <dcd_init>
10004df0:	2800      	cmp	r0, #0
10004df2:	d0f4      	beq.n	10004dde <tud_rhport_init+0x9a>
10004df4:	4648      	mov	r0, r9
10004df6:	f7ff fe43 	bl	10004a80 <dcd_int_enable>
10004dfa:	2001      	movs	r0, #1
10004dfc:	bce0      	pop	{r5, r6, r7}
10004dfe:	46ba      	mov	sl, r7
10004e00:	46b1      	mov	r9, r6
10004e02:	46a8      	mov	r8, r5
10004e04:	bdf0      	pop	{r4, r5, r6, r7, pc}
10004e06:	46c0      	nop			@ (mov r8, r8)
10004e08:	20001054 	.word	0x20001054
10004e0c:	200015a0 	.word	0x200015a0
10004e10:	20001598 	.word	0x20001598
10004e14:	20001f5b 	.word	0x20001f5b
10004e18:	200015f4 	.word	0x200015f4
10004e1c:	2000104c 	.word	0x2000104c
10004e20:	200015f8 	.word	0x200015f8
10004e24:	20001f59 	.word	0x20001f59
10004e28:	1000430d 	.word	0x1000430d
10004e2c:	200014b8 	.word	0x200014b8
10004e30:	1000782c 	.word	0x1000782c

10004e34 <tud_task_ext>:
10004e34:	b5f0      	push	{r4, r5, r6, r7, lr}
10004e36:	46de      	mov	lr, fp
10004e38:	4657      	mov	r7, sl
10004e3a:	464e      	mov	r6, r9
10004e3c:	4645      	mov	r5, r8
10004e3e:	b5e0      	push	{r5, r6, r7, lr}
10004e40:	4bc6      	ldr	r3, [pc, #792]	@ (1000515c <tud_task_ext+0x328>)
10004e42:	b091      	sub	sp, #68	@ 0x44
10004e44:	9302      	str	r3, [sp, #8]
10004e46:	781b      	ldrb	r3, [r3, #0]
10004e48:	2bff      	cmp	r3, #255	@ 0xff
10004e4a:	d100      	bne.n	10004e4e <tud_task_ext+0x1a>
10004e4c:	e13b      	b.n	100050c6 <tud_task_ext+0x292>
10004e4e:	4bc4      	ldr	r3, [pc, #784]	@ (10005160 <tud_task_ext+0x32c>)
10004e50:	4ec4      	ldr	r6, [pc, #784]	@ (10005164 <tud_task_ext+0x330>)
10004e52:	001f      	movs	r7, r3
10004e54:	4bc4      	ldr	r3, [pc, #784]	@ (10005168 <tud_task_ext+0x334>)
10004e56:	ac0d      	add	r4, sp, #52	@ 0x34
10004e58:	9301      	str	r3, [sp, #4]
10004e5a:	4bc4      	ldr	r3, [pc, #784]	@ (1000516c <tud_task_ext+0x338>)
10004e5c:	9300      	str	r3, [sp, #0]
10004e5e:	6835      	ldr	r5, [r6, #0]
10004e60:	696a      	ldr	r2, [r5, #20]
10004e62:	f3ef 8110 	mrs	r1, PRIMASK
10004e66:	b672      	cpsid	i
10004e68:	6813      	ldr	r3, [r2, #0]
10004e6a:	2b00      	cmp	r3, #0
10004e6c:	d0fc      	beq.n	10004e68 <tud_task_ext+0x34>
10004e6e:	f3bf 8f5f 	dmb	sy
10004e72:	61a9      	str	r1, [r5, #24]
10004e74:	0028      	movs	r0, r5
10004e76:	0021      	movs	r1, r4
10004e78:	f001 fb98 	bl	100065ac <tu_fifo_read>
10004e7c:	696a      	ldr	r2, [r5, #20]
10004e7e:	69ab      	ldr	r3, [r5, #24]
10004e80:	f3bf 8f5f 	dmb	sy
10004e84:	2100      	movs	r1, #0
10004e86:	6011      	str	r1, [r2, #0]
10004e88:	f383 8810 	msr	PRIMASK, r3
10004e8c:	2800      	cmp	r0, #0
10004e8e:	d100      	bne.n	10004e92 <tud_task_ext+0x5e>
10004e90:	e119      	b.n	100050c6 <tud_task_ext+0x292>
10004e92:	7863      	ldrb	r3, [r4, #1]
10004e94:	2b08      	cmp	r3, #8
10004e96:	d8e2      	bhi.n	10004e5e <tud_task_ext+0x2a>
10004e98:	009b      	lsls	r3, r3, #2
10004e9a:	58fb      	ldr	r3, [r7, r3]
10004e9c:	469f      	mov	pc, r3
10004e9e:	6863      	ldr	r3, [r4, #4]
10004ea0:	2b00      	cmp	r3, #0
10004ea2:	d0dc      	beq.n	10004e5e <tud_task_ext+0x2a>
10004ea4:	68a0      	ldr	r0, [r4, #8]
10004ea6:	4798      	blx	r3
10004ea8:	e7d9      	b.n	10004e5e <tud_task_ext+0x2a>
10004eaa:	227f      	movs	r2, #127	@ 0x7f
10004eac:	7921      	ldrb	r1, [r4, #4]
10004eae:	4dae      	ldr	r5, [pc, #696]	@ (10005168 <tud_task_ext+0x334>)
10004eb0:	400a      	ands	r2, r1
10004eb2:	0053      	lsls	r3, r2, #1
10004eb4:	18eb      	adds	r3, r5, r3
10004eb6:	4698      	mov	r8, r3
10004eb8:	09c8      	lsrs	r0, r1, #7
10004eba:	4480      	add	r8, r0
10004ebc:	4640      	mov	r0, r8
10004ebe:	2301      	movs	r3, #1
10004ec0:	3030      	adds	r0, #48	@ 0x30
10004ec2:	7905      	ldrb	r5, [r0, #4]
10004ec4:	439d      	bics	r5, r3
10004ec6:	7105      	strb	r5, [r0, #4]
10004ec8:	7905      	ldrb	r5, [r0, #4]
10004eca:	3303      	adds	r3, #3
10004ecc:	439d      	bics	r5, r3
10004ece:	7105      	strb	r5, [r0, #4]
10004ed0:	2a00      	cmp	r2, #0
10004ed2:	d100      	bne.n	10004ed6 <tud_task_ext+0xa2>
10004ed4:	e0fe      	b.n	100050d4 <tud_task_ext+0x2a0>
10004ed6:	4643      	mov	r3, r8
10004ed8:	4aa5      	ldr	r2, [pc, #660]	@ (10005170 <tud_task_ext+0x33c>)
10004eda:	7d1b      	ldrb	r3, [r3, #20]
10004edc:	7812      	ldrb	r2, [r2, #0]
10004ede:	4293      	cmp	r3, r2
10004ee0:	d300      	bcc.n	10004ee4 <tud_task_ext+0xb0>
10004ee2:	e0ed      	b.n	100050c0 <tud_task_ext+0x28c>
10004ee4:	4aa3      	ldr	r2, [pc, #652]	@ (10005174 <tud_task_ext+0x340>)
10004ee6:	015b      	lsls	r3, r3, #5
10004ee8:	6815      	ldr	r5, [r2, #0]
10004eea:	18ed      	adds	r5, r5, r3
10004eec:	2d00      	cmp	r5, #0
10004eee:	d100      	bne.n	10004ef2 <tud_task_ext+0xbe>
10004ef0:	e0e9      	b.n	100050c6 <tud_task_ext+0x292>
10004ef2:	68a3      	ldr	r3, [r4, #8]
10004ef4:	7962      	ldrb	r2, [r4, #5]
10004ef6:	7820      	ldrb	r0, [r4, #0]
10004ef8:	69ad      	ldr	r5, [r5, #24]
10004efa:	47a8      	blx	r5
10004efc:	e7af      	b.n	10004e5e <tud_task_ext+0x2a>
10004efe:	4b9e      	ldr	r3, [pc, #632]	@ (10005178 <tud_task_ext+0x344>)
10004f00:	781a      	ldrb	r2, [r3, #0]
10004f02:	2a00      	cmp	r2, #0
10004f04:	d100      	bne.n	10004f08 <tud_task_ext+0xd4>
10004f06:	e0de      	b.n	100050c6 <tud_task_ext+0x292>
10004f08:	781a      	ldrb	r2, [r3, #0]
10004f0a:	3a01      	subs	r2, #1
10004f0c:	701a      	strb	r2, [r3, #0]
10004f0e:	781b      	ldrb	r3, [r3, #0]
10004f10:	2b00      	cmp	r3, #0
10004f12:	d1a4      	bne.n	10004e5e <tud_task_ext+0x2a>
10004f14:	2201      	movs	r2, #1
10004f16:	4d94      	ldr	r5, [pc, #592]	@ (10005168 <tud_task_ext+0x334>)
10004f18:	2101      	movs	r1, #1
10004f1a:	782b      	ldrb	r3, [r5, #0]
10004f1c:	2004      	movs	r0, #4
10004f1e:	4313      	orrs	r3, r2
10004f20:	702b      	strb	r3, [r5, #0]
10004f22:	2334      	movs	r3, #52	@ 0x34
10004f24:	5cea      	ldrb	r2, [r5, r3]
10004f26:	438a      	bics	r2, r1
10004f28:	54ea      	strb	r2, [r5, r3]
10004f2a:	5cea      	ldrb	r2, [r5, r3]
10004f2c:	4382      	bics	r2, r0
10004f2e:	54ea      	strb	r2, [r5, r3]
10004f30:	3301      	adds	r3, #1
10004f32:	5cea      	ldrb	r2, [r5, r3]
10004f34:	438a      	bics	r2, r1
10004f36:	54ea      	strb	r2, [r5, r3]
10004f38:	5cea      	ldrb	r2, [r5, r3]
10004f3a:	4382      	bics	r2, r0
10004f3c:	54ea      	strb	r2, [r5, r3]
10004f3e:	7823      	ldrb	r3, [r4, #0]
10004f40:	2000      	movs	r0, #0
10004f42:	469b      	mov	fp, r3
10004f44:	f000 fc9a 	bl	1000587c <usbd_control_set_complete_callback>
10004f48:	2260      	movs	r2, #96	@ 0x60
10004f4a:	7923      	ldrb	r3, [r4, #4]
10004f4c:	401a      	ands	r2, r3
10004f4e:	2a60      	cmp	r2, #96	@ 0x60
10004f50:	d100      	bne.n	10004f54 <tud_task_ext+0x120>
10004f52:	e0ee      	b.n	10005132 <tud_task_ext+0x2fe>
10004f54:	2a40      	cmp	r2, #64	@ 0x40
10004f56:	d100      	bne.n	10004f5a <tud_task_ext+0x126>
10004f58:	e0f4      	b.n	10005144 <tud_task_ext+0x310>
10004f5a:	06db      	lsls	r3, r3, #27
10004f5c:	0edb      	lsrs	r3, r3, #27
10004f5e:	2b01      	cmp	r3, #1
10004f60:	d100      	bne.n	10004f64 <tud_task_ext+0x130>
10004f62:	e111      	b.n	10005188 <tud_task_ext+0x354>
10004f64:	2b02      	cmp	r3, #2
10004f66:	d100      	bne.n	10004f6a <tud_task_ext+0x136>
10004f68:	e0c6      	b.n	100050f8 <tud_task_ext+0x2c4>
10004f6a:	2b00      	cmp	r3, #0
10004f6c:	d000      	beq.n	10004f70 <tud_task_ext+0x13c>
10004f6e:	e0e0      	b.n	10005132 <tud_task_ext+0x2fe>
10004f70:	2a20      	cmp	r2, #32
10004f72:	d100      	bne.n	10004f76 <tud_task_ext+0x142>
10004f74:	e21c      	b.n	100053b0 <tud_task_ext+0x57c>
10004f76:	2a00      	cmp	r2, #0
10004f78:	d000      	beq.n	10004f7c <tud_task_ext+0x148>
10004f7a:	e0da      	b.n	10005132 <tud_task_ext+0x2fe>
10004f7c:	7963      	ldrb	r3, [r4, #5]
10004f7e:	2b09      	cmp	r3, #9
10004f80:	d900      	bls.n	10004f84 <tud_task_ext+0x150>
10004f82:	e0d6      	b.n	10005132 <tud_task_ext+0x2fe>
10004f84:	4a7d      	ldr	r2, [pc, #500]	@ (1000517c <tud_task_ext+0x348>)
10004f86:	009b      	lsls	r3, r3, #2
10004f88:	58d3      	ldr	r3, [r2, r3]
10004f8a:	469f      	mov	pc, r3
10004f8c:	4d76      	ldr	r5, [pc, #472]	@ (10005168 <tud_task_ext+0x334>)
10004f8e:	782b      	ldrb	r3, [r5, #0]
10004f90:	07db      	lsls	r3, r3, #31
10004f92:	d400      	bmi.n	10004f96 <tud_task_ext+0x162>
10004f94:	e763      	b.n	10004e5e <tud_task_ext+0x2a>
10004f96:	f7ff fec3 	bl	10004d20 <tud_resume_cb>
10004f9a:	e760      	b.n	10004e5e <tud_task_ext+0x2a>
10004f9c:	9b01      	ldr	r3, [sp, #4]
10004f9e:	78db      	ldrb	r3, [r3, #3]
10004fa0:	07db      	lsls	r3, r3, #31
10004fa2:	d400      	bmi.n	10004fa6 <tud_task_ext+0x172>
10004fa4:	e75b      	b.n	10004e5e <tud_task_ext+0x2a>
10004fa6:	6860      	ldr	r0, [r4, #4]
10004fa8:	f7ff feae 	bl	10004d08 <tud_sof_cb>
10004fac:	e757      	b.n	10004e5e <tud_task_ext+0x2a>
10004fae:	4d6e      	ldr	r5, [pc, #440]	@ (10005168 <tud_task_ext+0x334>)
10004fb0:	782b      	ldrb	r3, [r5, #0]
10004fb2:	07db      	lsls	r3, r3, #31
10004fb4:	d400      	bmi.n	10004fb8 <tud_task_ext+0x184>
10004fb6:	e752      	b.n	10004e5e <tud_task_ext+0x2a>
10004fb8:	7828      	ldrb	r0, [r5, #0]
10004fba:	0700      	lsls	r0, r0, #28
10004fbc:	0fc0      	lsrs	r0, r0, #31
10004fbe:	f7ff fead 	bl	10004d1c <tud_suspend_cb>
10004fc2:	e74c      	b.n	10004e5e <tud_task_ext+0x2a>
10004fc4:	7823      	ldrb	r3, [r4, #0]
10004fc6:	4969      	ldr	r1, [pc, #420]	@ (1000516c <tud_task_ext+0x338>)
10004fc8:	4699      	mov	r9, r3
10004fca:	468b      	mov	fp, r1
10004fcc:	4b68      	ldr	r3, [pc, #416]	@ (10005170 <tud_task_ext+0x33c>)
10004fce:	4969      	ldr	r1, [pc, #420]	@ (10005174 <tud_task_ext+0x340>)
10004fd0:	4698      	mov	r8, r3
10004fd2:	468a      	mov	sl, r1
10004fd4:	0039      	movs	r1, r7
10004fd6:	781a      	ldrb	r2, [r3, #0]
10004fd8:	4647      	mov	r7, r8
10004fda:	2300      	movs	r3, #0
10004fdc:	46b0      	mov	r8, r6
10004fde:	2500      	movs	r5, #0
10004fe0:	464e      	mov	r6, r9
10004fe2:	4689      	mov	r9, r1
10004fe4:	e010      	b.n	10005008 <tud_task_ext+0x1d4>
10004fe6:	4653      	mov	r3, sl
10004fe8:	681b      	ldr	r3, [r3, #0]
10004fea:	016a      	lsls	r2, r5, #5
10004fec:	189b      	adds	r3, r3, r2
10004fee:	2b00      	cmp	r3, #0
10004ff0:	d100      	bne.n	10004ff4 <tud_task_ext+0x1c0>
10004ff2:	e075      	b.n	100050e0 <tud_task_ext+0x2ac>
10004ff4:	68db      	ldr	r3, [r3, #12]
10004ff6:	0030      	movs	r0, r6
10004ff8:	4798      	blx	r3
10004ffa:	783a      	ldrb	r2, [r7, #0]
10004ffc:	3501      	adds	r5, #1
10004ffe:	b2ed      	uxtb	r5, r5
10005000:	1c51      	adds	r1, r2, #1
10005002:	002b      	movs	r3, r5
10005004:	428d      	cmp	r5, r1
10005006:	dc43      	bgt.n	10005090 <tud_task_ext+0x25c>
10005008:	4295      	cmp	r5, r2
1000500a:	d3ec      	bcc.n	10004fe6 <tud_task_ext+0x1b2>
1000500c:	1a9b      	subs	r3, r3, r2
1000500e:	015b      	lsls	r3, r3, #5
10005010:	445b      	add	r3, fp
10005012:	e7ef      	b.n	10004ff4 <tud_task_ext+0x1c0>
10005014:	7823      	ldrb	r3, [r4, #0]
10005016:	4957      	ldr	r1, [pc, #348]	@ (10005174 <tud_task_ext+0x340>)
10005018:	4699      	mov	r9, r3
1000501a:	4b55      	ldr	r3, [pc, #340]	@ (10005170 <tud_task_ext+0x33c>)
1000501c:	468a      	mov	sl, r1
1000501e:	4698      	mov	r8, r3
10005020:	0031      	movs	r1, r6
10005022:	46bb      	mov	fp, r7
10005024:	464e      	mov	r6, r9
10005026:	781a      	ldrb	r2, [r3, #0]
10005028:	2500      	movs	r5, #0
1000502a:	2300      	movs	r3, #0
1000502c:	4647      	mov	r7, r8
1000502e:	4689      	mov	r9, r1
10005030:	e00f      	b.n	10005052 <tud_task_ext+0x21e>
10005032:	4653      	mov	r3, sl
10005034:	681b      	ldr	r3, [r3, #0]
10005036:	016a      	lsls	r2, r5, #5
10005038:	189b      	adds	r3, r3, r2
1000503a:	2b00      	cmp	r3, #0
1000503c:	d054      	beq.n	100050e8 <tud_task_ext+0x2b4>
1000503e:	68db      	ldr	r3, [r3, #12]
10005040:	0030      	movs	r0, r6
10005042:	4798      	blx	r3
10005044:	783a      	ldrb	r2, [r7, #0]
10005046:	3501      	adds	r5, #1
10005048:	b2ed      	uxtb	r5, r5
1000504a:	1c51      	adds	r1, r2, #1
1000504c:	002b      	movs	r3, r5
1000504e:	428d      	cmp	r5, r1
10005050:	dc06      	bgt.n	10005060 <tud_task_ext+0x22c>
10005052:	4295      	cmp	r5, r2
10005054:	d3ed      	bcc.n	10005032 <tud_task_ext+0x1fe>
10005056:	1a9b      	subs	r3, r3, r2
10005058:	9a00      	ldr	r2, [sp, #0]
1000505a:	015b      	lsls	r3, r3, #5
1000505c:	18d3      	adds	r3, r2, r3
1000505e:	e7ee      	b.n	1000503e <tud_task_ext+0x20a>
10005060:	9d01      	ldr	r5, [sp, #4]
10005062:	2254      	movs	r2, #84	@ 0x54
10005064:	2100      	movs	r1, #0
10005066:	0028      	movs	r0, r5
10005068:	f7fd fb10 	bl	1000268c <__wrap_memset>
1000506c:	2210      	movs	r2, #16
1000506e:	21ff      	movs	r1, #255	@ 0xff
10005070:	4843      	ldr	r0, [pc, #268]	@ (10005180 <tud_task_ext+0x34c>)
10005072:	f7fd fb0b 	bl	1000268c <__wrap_memset>
10005076:	0028      	movs	r0, r5
10005078:	2220      	movs	r2, #32
1000507a:	21ff      	movs	r1, #255	@ 0xff
1000507c:	3014      	adds	r0, #20
1000507e:	464e      	mov	r6, r9
10005080:	465f      	mov	r7, fp
10005082:	f7fd fb03 	bl	1000268c <__wrap_memset>
10005086:	f000 fbef 	bl	10005868 <usbd_control_reset>
1000508a:	f7ff fe45 	bl	10004d18 <tud_umount_cb>
1000508e:	e6e6      	b.n	10004e5e <tud_task_ext+0x2a>
10005090:	4d35      	ldr	r5, [pc, #212]	@ (10005168 <tud_task_ext+0x334>)
10005092:	2254      	movs	r2, #84	@ 0x54
10005094:	2100      	movs	r1, #0
10005096:	0028      	movs	r0, r5
10005098:	f7fd faf8 	bl	1000268c <__wrap_memset>
1000509c:	2210      	movs	r2, #16
1000509e:	21ff      	movs	r1, #255	@ 0xff
100050a0:	1d28      	adds	r0, r5, #4
100050a2:	f7fd faf3 	bl	1000268c <__wrap_memset>
100050a6:	0028      	movs	r0, r5
100050a8:	2220      	movs	r2, #32
100050aa:	21ff      	movs	r1, #255	@ 0xff
100050ac:	3014      	adds	r0, #20
100050ae:	4646      	mov	r6, r8
100050b0:	464f      	mov	r7, r9
100050b2:	f7fd faeb 	bl	1000268c <__wrap_memset>
100050b6:	f000 fbd7 	bl	10005868 <usbd_control_reset>
100050ba:	7923      	ldrb	r3, [r4, #4]
100050bc:	70ab      	strb	r3, [r5, #2]
100050be:	e6ce      	b.n	10004e5e <tud_task_ext+0x2a>
100050c0:	1c50      	adds	r0, r2, #1
100050c2:	4298      	cmp	r0, r3
100050c4:	da13      	bge.n	100050ee <tud_task_ext+0x2ba>
100050c6:	b011      	add	sp, #68	@ 0x44
100050c8:	bcf0      	pop	{r4, r5, r6, r7}
100050ca:	46bb      	mov	fp, r7
100050cc:	46b2      	mov	sl, r6
100050ce:	46a9      	mov	r9, r5
100050d0:	46a0      	mov	r8, r4
100050d2:	bdf0      	pop	{r4, r5, r6, r7, pc}
100050d4:	68a3      	ldr	r3, [r4, #8]
100050d6:	7962      	ldrb	r2, [r4, #5]
100050d8:	7820      	ldrb	r0, [r4, #0]
100050da:	f000 fbe3 	bl	100058a4 <usbd_control_xfer_cb>
100050de:	e6be      	b.n	10004e5e <tud_task_ext+0x2a>
100050e0:	4646      	mov	r6, r8
100050e2:	464f      	mov	r7, r9
100050e4:	4d20      	ldr	r5, [pc, #128]	@ (10005168 <tud_task_ext+0x334>)
100050e6:	e7e6      	b.n	100050b6 <tud_task_ext+0x282>
100050e8:	464e      	mov	r6, r9
100050ea:	465f      	mov	r7, fp
100050ec:	e7cb      	b.n	10005086 <tud_task_ext+0x252>
100050ee:	4d1f      	ldr	r5, [pc, #124]	@ (1000516c <tud_task_ext+0x338>)
100050f0:	1a9b      	subs	r3, r3, r2
100050f2:	015b      	lsls	r3, r3, #5
100050f4:	195d      	adds	r5, r3, r5
100050f6:	e6fc      	b.n	10004ef2 <tud_task_ext+0xbe>
100050f8:	2370      	movs	r3, #112	@ 0x70
100050fa:	7a21      	ldrb	r1, [r4, #8]
100050fc:	420b      	tst	r3, r1
100050fe:	d118      	bne.n	10005132 <tud_task_ext+0x2fe>
10005100:	09c8      	lsrs	r0, r1, #7
10005102:	4682      	mov	sl, r0
10005104:	330f      	adds	r3, #15
10005106:	400b      	ands	r3, r1
10005108:	005b      	lsls	r3, r3, #1
1000510a:	4698      	mov	r8, r3
1000510c:	4818      	ldr	r0, [pc, #96]	@ (10005170 <tud_task_ext+0x33c>)
1000510e:	18eb      	adds	r3, r5, r3
10005110:	4453      	add	r3, sl
10005112:	7d1b      	ldrb	r3, [r3, #20]
10005114:	7800      	ldrb	r0, [r0, #0]
10005116:	4699      	mov	r9, r3
10005118:	4283      	cmp	r3, r0
1000511a:	d268      	bcs.n	100051ee <tud_task_ext+0x3ba>
1000511c:	4815      	ldr	r0, [pc, #84]	@ (10005174 <tud_task_ext+0x340>)
1000511e:	015b      	lsls	r3, r3, #5
10005120:	6800      	ldr	r0, [r0, #0]
10005122:	4681      	mov	r9, r0
10005124:	4499      	add	r9, r3
10005126:	2a00      	cmp	r2, #0
10005128:	d100      	bne.n	1000512c <tud_task_ext+0x2f8>
1000512a:	e163      	b.n	100053f4 <tud_task_ext+0x5c0>
1000512c:	464b      	mov	r3, r9
1000512e:	2b00      	cmp	r3, #0
10005130:	d16a      	bne.n	10005208 <tud_task_ext+0x3d4>
10005132:	7820      	ldrb	r0, [r4, #0]
10005134:	2100      	movs	r1, #0
10005136:	f7ff fd6f 	bl	10004c18 <dcd_edpt_stall>
1000513a:	2180      	movs	r1, #128	@ 0x80
1000513c:	7820      	ldrb	r0, [r4, #0]
1000513e:	f7ff fd6b 	bl	10004c18 <dcd_edpt_stall>
10005142:	e68c      	b.n	10004e5e <tud_task_ext+0x2a>
10005144:	480f      	ldr	r0, [pc, #60]	@ (10005184 <tud_task_ext+0x350>)
10005146:	f000 fb99 	bl	1000587c <usbd_control_set_complete_callback>
1000514a:	2101      	movs	r1, #1
1000514c:	4658      	mov	r0, fp
1000514e:	aa0e      	add	r2, sp, #56	@ 0x38
10005150:	f7ff f8c0 	bl	100042d4 <tud_vendor_control_xfer_cb>
10005154:	2800      	cmp	r0, #0
10005156:	d000      	beq.n	1000515a <tud_task_ext+0x326>
10005158:	e681      	b.n	10004e5e <tud_task_ext+0x2a>
1000515a:	e7ea      	b.n	10005132 <tud_task_ext+0x2fe>
1000515c:	20001054 	.word	0x20001054
10005160:	10007784 	.word	0x10007784
10005164:	200015f8 	.word	0x200015f8
10005168:	200015a0 	.word	0x200015a0
1000516c:	1000782c 	.word	0x1000782c
10005170:	20001f59 	.word	0x20001f59
10005174:	200014b8 	.word	0x200014b8
10005178:	20001f5b 	.word	0x20001f5b
1000517c:	100077a8 	.word	0x100077a8
10005180:	200015a4 	.word	0x200015a4
10005184:	100042d5 	.word	0x100042d5
10005188:	7a23      	ldrb	r3, [r4, #8]
1000518a:	8922      	ldrh	r2, [r4, #8]
1000518c:	2b0f      	cmp	r3, #15
1000518e:	d8d0      	bhi.n	10005132 <tud_task_ext+0x2fe>
10005190:	23ff      	movs	r3, #255	@ 0xff
10005192:	4013      	ands	r3, r2
10005194:	4acf      	ldr	r2, [pc, #828]	@ (100054d4 <tud_task_ext+0x6a0>)
10005196:	18eb      	adds	r3, r5, r3
10005198:	791b      	ldrb	r3, [r3, #4]
1000519a:	7815      	ldrb	r5, [r2, #0]
1000519c:	42ab      	cmp	r3, r5
1000519e:	d33e      	bcc.n	1000521e <tud_task_ext+0x3ea>
100051a0:	1c69      	adds	r1, r5, #1
100051a2:	4299      	cmp	r1, r3
100051a4:	dbc5      	blt.n	10005132 <tud_task_ext+0x2fe>
100051a6:	1b5d      	subs	r5, r3, r5
100051a8:	4bcb      	ldr	r3, [pc, #812]	@ (100054d8 <tud_task_ext+0x6a4>)
100051aa:	016d      	lsls	r5, r5, #5
100051ac:	18ed      	adds	r5, r5, r3
100051ae:	6968      	ldr	r0, [r5, #20]
100051b0:	f000 fb64 	bl	1000587c <usbd_control_set_complete_callback>
100051b4:	2101      	movs	r1, #1
100051b6:	4658      	mov	r0, fp
100051b8:	696b      	ldr	r3, [r5, #20]
100051ba:	aa0e      	add	r2, sp, #56	@ 0x38
100051bc:	4798      	blx	r3
100051be:	2800      	cmp	r0, #0
100051c0:	d000      	beq.n	100051c4 <tud_task_ext+0x390>
100051c2:	e64c      	b.n	10004e5e <tud_task_ext+0x2a>
100051c4:	2260      	movs	r2, #96	@ 0x60
100051c6:	0015      	movs	r5, r2
100051c8:	7923      	ldrb	r3, [r4, #4]
100051ca:	401d      	ands	r5, r3
100051cc:	421a      	tst	r2, r3
100051ce:	d1b0      	bne.n	10005132 <tud_task_ext+0x2fe>
100051d0:	7963      	ldrb	r3, [r4, #5]
100051d2:	3b0a      	subs	r3, #10
100051d4:	2b01      	cmp	r3, #1
100051d6:	d8ac      	bhi.n	10005132 <tud_task_ext+0x2fe>
100051d8:	f000 fb50 	bl	1000587c <usbd_control_set_complete_callback>
100051dc:	7963      	ldrb	r3, [r4, #5]
100051de:	2b0a      	cmp	r3, #10
100051e0:	d100      	bne.n	100051e4 <tud_task_ext+0x3b0>
100051e2:	e199      	b.n	10005518 <tud_task_ext+0x6e4>
100051e4:	4658      	mov	r0, fp
100051e6:	a90e      	add	r1, sp, #56	@ 0x38
100051e8:	f000 fad8 	bl	1000579c <tud_control_status>
100051ec:	e637      	b.n	10004e5e <tud_task_ext+0x2a>
100051ee:	1c43      	adds	r3, r0, #1
100051f0:	454b      	cmp	r3, r9
100051f2:	da00      	bge.n	100051f6 <tud_task_ext+0x3c2>
100051f4:	e0f9      	b.n	100053ea <tud_task_ext+0x5b6>
100051f6:	464b      	mov	r3, r9
100051f8:	1a1b      	subs	r3, r3, r0
100051fa:	015b      	lsls	r3, r3, #5
100051fc:	4699      	mov	r9, r3
100051fe:	48b6      	ldr	r0, [pc, #728]	@ (100054d8 <tud_task_ext+0x6a4>)
10005200:	4481      	add	r9, r0
10005202:	2a00      	cmp	r2, #0
10005204:	d100      	bne.n	10005208 <tud_task_ext+0x3d4>
10005206:	e0f5      	b.n	100053f4 <tud_task_ext+0x5c0>
10005208:	464b      	mov	r3, r9
1000520a:	6958      	ldr	r0, [r3, #20]
1000520c:	f000 fb36 	bl	1000587c <usbd_control_set_complete_callback>
10005210:	464b      	mov	r3, r9
10005212:	2101      	movs	r1, #1
10005214:	4658      	mov	r0, fp
10005216:	695b      	ldr	r3, [r3, #20]
10005218:	aa0e      	add	r2, sp, #56	@ 0x38
1000521a:	4798      	blx	r3
1000521c:	e79a      	b.n	10005154 <tud_task_ext+0x320>
1000521e:	4aaf      	ldr	r2, [pc, #700]	@ (100054dc <tud_task_ext+0x6a8>)
10005220:	015b      	lsls	r3, r3, #5
10005222:	6815      	ldr	r5, [r2, #0]
10005224:	18ed      	adds	r5, r5, r3
10005226:	2d00      	cmp	r5, #0
10005228:	d1c1      	bne.n	100051ae <tud_task_ext+0x37a>
1000522a:	e782      	b.n	10005132 <tud_task_ext+0x2fe>
1000522c:	79a3      	ldrb	r3, [r4, #6]
1000522e:	4699      	mov	r9, r3
10005230:	786b      	ldrb	r3, [r5, #1]
10005232:	4599      	cmp	r9, r3
10005234:	d0d6      	beq.n	100051e4 <tud_task_ext+0x3b0>
10005236:	786b      	ldrb	r3, [r5, #1]
10005238:	2b00      	cmp	r3, #0
1000523a:	d000      	beq.n	1000523e <tud_task_ext+0x40a>
1000523c:	e135      	b.n	100054aa <tud_task_ext+0x676>
1000523e:	464b      	mov	r3, r9
10005240:	706b      	strb	r3, [r5, #1]
10005242:	2b00      	cmp	r3, #0
10005244:	d100      	bne.n	10005248 <tud_task_ext+0x414>
10005246:	e12d      	b.n	100054a4 <tud_task_ext+0x670>
10005248:	4648      	mov	r0, r9
1000524a:	3801      	subs	r0, #1
1000524c:	b2c0      	uxtb	r0, r0
1000524e:	f7ff fa7d 	bl	1000474c <tud_descriptor_configuration_cb>
10005252:	2800      	cmp	r0, #0
10005254:	d100      	bne.n	10005258 <tud_task_ext+0x424>
10005256:	e17e      	b.n	10005556 <tud_task_ext+0x722>
10005258:	7843      	ldrb	r3, [r0, #1]
1000525a:	9307      	str	r3, [sp, #28]
1000525c:	2b02      	cmp	r3, #2
1000525e:	d000      	beq.n	10005262 <tud_task_ext+0x42e>
10005260:	e179      	b.n	10005556 <tud_task_ext+0x722>
10005262:	2201      	movs	r2, #1
10005264:	79c1      	ldrb	r1, [r0, #7]
10005266:	46b1      	mov	r9, r6
10005268:	118b      	asrs	r3, r1, #6
1000526a:	1149      	asrs	r1, r1, #5
1000526c:	4013      	ands	r3, r2
1000526e:	400a      	ands	r2, r1
10005270:	2130      	movs	r1, #48	@ 0x30
10005272:	0112      	lsls	r2, r2, #4
10005274:	015b      	lsls	r3, r3, #5
10005276:	4313      	orrs	r3, r2
10005278:	782a      	ldrb	r2, [r5, #0]
1000527a:	46a8      	mov	r8, r5
1000527c:	438a      	bics	r2, r1
1000527e:	4313      	orrs	r3, r2
10005280:	702b      	strb	r3, [r5, #0]
10005282:	2309      	movs	r3, #9
10005284:	469a      	mov	sl, r3
10005286:	4482      	add	sl, r0
10005288:	4656      	mov	r6, sl
1000528a:	46ba      	mov	sl, r7
1000528c:	78c3      	ldrb	r3, [r0, #3]
1000528e:	7882      	ldrb	r2, [r0, #2]
10005290:	021b      	lsls	r3, r3, #8
10005292:	4313      	orrs	r3, r2
10005294:	18c3      	adds	r3, r0, r3
10005296:	9305      	str	r3, [sp, #20]
10005298:	4b8e      	ldr	r3, [pc, #568]	@ (100054d4 <tud_task_ext+0x6a0>)
1000529a:	9304      	str	r3, [sp, #16]
1000529c:	4b8e      	ldr	r3, [pc, #568]	@ (100054d8 <tud_task_ext+0x6a4>)
1000529e:	9308      	str	r3, [sp, #32]
100052a0:	4b8e      	ldr	r3, [pc, #568]	@ (100054dc <tud_task_ext+0x6a8>)
100052a2:	9309      	str	r3, [sp, #36]	@ 0x24
100052a4:	4b8e      	ldr	r3, [pc, #568]	@ (100054e0 <tud_task_ext+0x6ac>)
100052a6:	930a      	str	r3, [sp, #40]	@ 0x28
100052a8:	9b05      	ldr	r3, [sp, #20]
100052aa:	42b3      	cmp	r3, r6
100052ac:	d800      	bhi.n	100052b0 <tud_task_ext+0x47c>
100052ae:	e155      	b.n	1000555c <tud_task_ext+0x728>
100052b0:	7873      	ldrb	r3, [r6, #1]
100052b2:	2201      	movs	r2, #1
100052b4:	2b0b      	cmp	r3, #11
100052b6:	d103      	bne.n	100052c0 <tud_task_ext+0x48c>
100052b8:	7833      	ldrb	r3, [r6, #0]
100052ba:	78f2      	ldrb	r2, [r6, #3]
100052bc:	18f6      	adds	r6, r6, r3
100052be:	7873      	ldrb	r3, [r6, #1]
100052c0:	2b04      	cmp	r3, #4
100052c2:	d000      	beq.n	100052c6 <tud_task_ext+0x492>
100052c4:	e144      	b.n	10005550 <tud_task_ext+0x71c>
100052c6:	9b05      	ldr	r3, [sp, #20]
100052c8:	2700      	movs	r7, #0
100052ca:	1b9b      	subs	r3, r3, r6
100052cc:	b29b      	uxth	r3, r3
100052ce:	9306      	str	r3, [sp, #24]
100052d0:	9b04      	ldr	r3, [sp, #16]
100052d2:	920b      	str	r2, [sp, #44]	@ 0x2c
100052d4:	781d      	ldrb	r5, [r3, #0]
100052d6:	2300      	movs	r3, #0
100052d8:	9303      	str	r3, [sp, #12]
100052da:	e01b      	b.n	10005314 <tud_task_ext+0x4e0>
100052dc:	9a09      	ldr	r2, [sp, #36]	@ 0x24
100052de:	017b      	lsls	r3, r7, #5
100052e0:	6815      	ldr	r5, [r2, #0]
100052e2:	18ed      	adds	r5, r5, r3
100052e4:	2d00      	cmp	r5, #0
100052e6:	d100      	bne.n	100052ea <tud_task_ext+0x4b6>
100052e8:	e132      	b.n	10005550 <tud_task_ext+0x71c>
100052ea:	0031      	movs	r1, r6
100052ec:	4658      	mov	r0, fp
100052ee:	692b      	ldr	r3, [r5, #16]
100052f0:	9a06      	ldr	r2, [sp, #24]
100052f2:	4798      	blx	r3
100052f4:	4684      	mov	ip, r0
100052f6:	2808      	cmp	r0, #8
100052f8:	d903      	bls.n	10005302 <tud_task_ext+0x4ce>
100052fa:	9a06      	ldr	r2, [sp, #24]
100052fc:	4282      	cmp	r2, r0
100052fe:	d300      	bcc.n	10005302 <tud_task_ext+0x4ce>
10005300:	e113      	b.n	1000552a <tud_task_ext+0x6f6>
10005302:	9b04      	ldr	r3, [sp, #16]
10005304:	3701      	adds	r7, #1
10005306:	781d      	ldrb	r5, [r3, #0]
10005308:	b2ff      	uxtb	r7, r7
1000530a:	1c6b      	adds	r3, r5, #1
1000530c:	9703      	str	r7, [sp, #12]
1000530e:	429f      	cmp	r7, r3
10005310:	dd00      	ble.n	10005314 <tud_task_ext+0x4e0>
10005312:	e11d      	b.n	10005550 <tud_task_ext+0x71c>
10005314:	42bd      	cmp	r5, r7
10005316:	d8e1      	bhi.n	100052dc <tud_task_ext+0x4a8>
10005318:	9b03      	ldr	r3, [sp, #12]
1000531a:	1b5d      	subs	r5, r3, r5
1000531c:	9b08      	ldr	r3, [sp, #32]
1000531e:	016d      	lsls	r5, r5, #5
10005320:	195d      	adds	r5, r3, r5
10005322:	e7e2      	b.n	100052ea <tud_task_ext+0x4b6>
10005324:	786b      	ldrb	r3, [r5, #1]
10005326:	aa0c      	add	r2, sp, #48	@ 0x30
10005328:	3202      	adds	r2, #2
1000532a:	7013      	strb	r3, [r2, #0]
1000532c:	4658      	mov	r0, fp
1000532e:	2301      	movs	r3, #1
10005330:	a90e      	add	r1, sp, #56	@ 0x38
10005332:	f000 fa49 	bl	100057c8 <tud_control_xfer>
10005336:	e592      	b.n	10004e5e <tud_task_ext+0x2a>
10005338:	88e0      	ldrh	r0, [r4, #6]
1000533a:	0a03      	lsrs	r3, r0, #8
1000533c:	b2c0      	uxtb	r0, r0
1000533e:	2b0f      	cmp	r3, #15
10005340:	d900      	bls.n	10005344 <tud_task_ext+0x510>
10005342:	e6f6      	b.n	10005132 <tud_task_ext+0x2fe>
10005344:	4967      	ldr	r1, [pc, #412]	@ (100054e4 <tud_task_ext+0x6b0>)
10005346:	009a      	lsls	r2, r3, #2
10005348:	588a      	ldr	r2, [r1, r2]
1000534a:	4697      	mov	pc, r2
1000534c:	a80e      	add	r0, sp, #56	@ 0x38
1000534e:	f000 fa9b 	bl	10005888 <usbd_control_set_request>
10005352:	4658      	mov	r0, fp
10005354:	79a1      	ldrb	r1, [r4, #6]
10005356:	f7ff fb99 	bl	10004a8c <dcd_set_address>
1000535a:	2202      	movs	r2, #2
1000535c:	782b      	ldrb	r3, [r5, #0]
1000535e:	4313      	orrs	r3, r2
10005360:	702b      	strb	r3, [r5, #0]
10005362:	e57c      	b.n	10004e5e <tud_task_ext+0x2a>
10005364:	88e3      	ldrh	r3, [r4, #6]
10005366:	2b01      	cmp	r3, #1
10005368:	d000      	beq.n	1000536c <tud_task_ext+0x538>
1000536a:	e6e2      	b.n	10005132 <tud_task_ext+0x2fe>
1000536c:	2208      	movs	r2, #8
1000536e:	782b      	ldrb	r3, [r5, #0]
10005370:	4658      	mov	r0, fp
10005372:	4393      	bics	r3, r2
10005374:	a90e      	add	r1, sp, #56	@ 0x38
10005376:	702b      	strb	r3, [r5, #0]
10005378:	f000 fa10 	bl	1000579c <tud_control_status>
1000537c:	e56f      	b.n	10004e5e <tud_task_ext+0x2a>
1000537e:	2002      	movs	r0, #2
10005380:	7829      	ldrb	r1, [r5, #0]
10005382:	ab0c      	add	r3, sp, #48	@ 0x30
10005384:	1c9a      	adds	r2, r3, #2
10005386:	068b      	lsls	r3, r1, #26
10005388:	0889      	lsrs	r1, r1, #2
1000538a:	0fdb      	lsrs	r3, r3, #31
1000538c:	4001      	ands	r1, r0
1000538e:	430b      	orrs	r3, r1
10005390:	8013      	strh	r3, [r2, #0]
10005392:	4658      	mov	r0, fp
10005394:	2302      	movs	r3, #2
10005396:	a90e      	add	r1, sp, #56	@ 0x38
10005398:	f000 fa16 	bl	100057c8 <tud_control_xfer>
1000539c:	e55f      	b.n	10004e5e <tud_task_ext+0x2a>
1000539e:	88e3      	ldrh	r3, [r4, #6]
100053a0:	2b01      	cmp	r3, #1
100053a2:	d000      	beq.n	100053a6 <tud_task_ext+0x572>
100053a4:	e6c5      	b.n	10005132 <tud_task_ext+0x2fe>
100053a6:	2208      	movs	r2, #8
100053a8:	782b      	ldrb	r3, [r5, #0]
100053aa:	4313      	orrs	r3, r2
100053ac:	702b      	strb	r3, [r5, #0]
100053ae:	e719      	b.n	100051e4 <tud_task_ext+0x3b0>
100053b0:	7a23      	ldrb	r3, [r4, #8]
100053b2:	8922      	ldrh	r2, [r4, #8]
100053b4:	2b0f      	cmp	r3, #15
100053b6:	d900      	bls.n	100053ba <tud_task_ext+0x586>
100053b8:	e6bb      	b.n	10005132 <tud_task_ext+0x2fe>
100053ba:	23ff      	movs	r3, #255	@ 0xff
100053bc:	4013      	ands	r3, r2
100053be:	18eb      	adds	r3, r5, r3
100053c0:	791d      	ldrb	r5, [r3, #4]
100053c2:	4b44      	ldr	r3, [pc, #272]	@ (100054d4 <tud_task_ext+0x6a0>)
100053c4:	781b      	ldrb	r3, [r3, #0]
100053c6:	429d      	cmp	r5, r3
100053c8:	d228      	bcs.n	1000541c <tud_task_ext+0x5e8>
100053ca:	4b44      	ldr	r3, [pc, #272]	@ (100054dc <tud_task_ext+0x6a8>)
100053cc:	016d      	lsls	r5, r5, #5
100053ce:	681b      	ldr	r3, [r3, #0]
100053d0:	195d      	adds	r5, r3, r5
100053d2:	2d00      	cmp	r5, #0
100053d4:	d100      	bne.n	100053d8 <tud_task_ext+0x5a4>
100053d6:	e6ac      	b.n	10005132 <tud_task_ext+0x2fe>
100053d8:	6968      	ldr	r0, [r5, #20]
100053da:	f000 fa4f 	bl	1000587c <usbd_control_set_complete_callback>
100053de:	2101      	movs	r1, #1
100053e0:	4658      	mov	r0, fp
100053e2:	696b      	ldr	r3, [r5, #20]
100053e4:	aa0e      	add	r2, sp, #56	@ 0x38
100053e6:	4798      	blx	r3
100053e8:	e6b4      	b.n	10005154 <tud_task_ext+0x320>
100053ea:	2a00      	cmp	r2, #0
100053ec:	d000      	beq.n	100053f0 <tud_task_ext+0x5bc>
100053ee:	e6a0      	b.n	10005132 <tud_task_ext+0x2fe>
100053f0:	2300      	movs	r3, #0
100053f2:	4699      	mov	r9, r3
100053f4:	7962      	ldrb	r2, [r4, #5]
100053f6:	2002      	movs	r0, #2
100053f8:	0013      	movs	r3, r2
100053fa:	9203      	str	r2, [sp, #12]
100053fc:	4383      	bics	r3, r0
100053fe:	2b01      	cmp	r3, #1
10005400:	d015      	beq.n	1000542e <tud_task_ext+0x5fa>
10005402:	2a00      	cmp	r2, #0
10005404:	d000      	beq.n	10005408 <tud_task_ext+0x5d4>
10005406:	e694      	b.n	10005132 <tud_task_ext+0x2fe>
10005408:	002b      	movs	r3, r5
1000540a:	4443      	add	r3, r8
1000540c:	4453      	add	r3, sl
1000540e:	3330      	adds	r3, #48	@ 0x30
10005410:	791b      	ldrb	r3, [r3, #4]
10005412:	aa0c      	add	r2, sp, #48	@ 0x30
10005414:	079b      	lsls	r3, r3, #30
10005416:	0fdb      	lsrs	r3, r3, #31
10005418:	3202      	adds	r2, #2
1000541a:	e7b9      	b.n	10005390 <tud_task_ext+0x55c>
1000541c:	1c5a      	adds	r2, r3, #1
1000541e:	42aa      	cmp	r2, r5
10005420:	da00      	bge.n	10005424 <tud_task_ext+0x5f0>
10005422:	e686      	b.n	10005132 <tud_task_ext+0x2fe>
10005424:	1aed      	subs	r5, r5, r3
10005426:	4b2c      	ldr	r3, [pc, #176]	@ (100054d8 <tud_task_ext+0x6a4>)
10005428:	016d      	lsls	r5, r5, #5
1000542a:	18ed      	adds	r5, r5, r3
1000542c:	e7d4      	b.n	100053d8 <tud_task_ext+0x5a4>
1000542e:	88e3      	ldrh	r3, [r4, #6]
10005430:	2b00      	cmp	r3, #0
10005432:	d112      	bne.n	1000545a <tud_task_ext+0x626>
10005434:	9b02      	ldr	r3, [sp, #8]
10005436:	7818      	ldrb	r0, [r3, #0]
10005438:	9b03      	ldr	r3, [sp, #12]
1000543a:	2b01      	cmp	r3, #1
1000543c:	d023      	beq.n	10005486 <tud_task_ext+0x652>
1000543e:	f7ff fbeb 	bl	10004c18 <dcd_edpt_stall>
10005442:	4643      	mov	r3, r8
10005444:	2102      	movs	r1, #2
10005446:	18eb      	adds	r3, r5, r3
10005448:	4453      	add	r3, sl
1000544a:	3330      	adds	r3, #48	@ 0x30
1000544c:	791a      	ldrb	r2, [r3, #4]
1000544e:	430a      	orrs	r2, r1
10005450:	2101      	movs	r1, #1
10005452:	711a      	strb	r2, [r3, #4]
10005454:	791a      	ldrb	r2, [r3, #4]
10005456:	430a      	orrs	r2, r1
10005458:	711a      	strb	r2, [r3, #4]
1000545a:	464b      	mov	r3, r9
1000545c:	2b00      	cmp	r3, #0
1000545e:	d100      	bne.n	10005462 <tud_task_ext+0x62e>
10005460:	e4fd      	b.n	10004e5e <tud_task_ext+0x2a>
10005462:	6958      	ldr	r0, [r3, #20]
10005464:	f000 fa0a 	bl	1000587c <usbd_control_set_complete_callback>
10005468:	464b      	mov	r3, r9
1000546a:	2101      	movs	r1, #1
1000546c:	695b      	ldr	r3, [r3, #20]
1000546e:	aa0e      	add	r2, sp, #56	@ 0x38
10005470:	4658      	mov	r0, fp
10005472:	4798      	blx	r3
10005474:	2000      	movs	r0, #0
10005476:	f000 fa01 	bl	1000587c <usbd_control_set_complete_callback>
1000547a:	2335      	movs	r3, #53	@ 0x35
1000547c:	5ceb      	ldrb	r3, [r5, r3]
1000547e:	07db      	lsls	r3, r3, #31
10005480:	d500      	bpl.n	10005484 <tud_task_ext+0x650>
10005482:	e4ec      	b.n	10004e5e <tud_task_ext+0x2a>
10005484:	e6ae      	b.n	100051e4 <tud_task_ext+0x3b0>
10005486:	f7ff fbe5 	bl	10004c54 <dcd_edpt_clear_stall>
1000548a:	4643      	mov	r3, r8
1000548c:	2102      	movs	r1, #2
1000548e:	18eb      	adds	r3, r5, r3
10005490:	4453      	add	r3, sl
10005492:	3330      	adds	r3, #48	@ 0x30
10005494:	791a      	ldrb	r2, [r3, #4]
10005496:	438a      	bics	r2, r1
10005498:	711a      	strb	r2, [r3, #4]
1000549a:	791a      	ldrb	r2, [r3, #4]
1000549c:	9903      	ldr	r1, [sp, #12]
1000549e:	438a      	bics	r2, r1
100054a0:	711a      	strb	r2, [r3, #4]
100054a2:	e7da      	b.n	1000545a <tud_task_ext+0x626>
100054a4:	f7ff fc38 	bl	10004d18 <tud_umount_cb>
100054a8:	e69c      	b.n	100051e4 <tud_task_ext+0x3b0>
100054aa:	2100      	movs	r1, #0
100054ac:	4658      	mov	r0, fp
100054ae:	f7ff faf7 	bl	10004aa0 <dcd_sof_enable>
100054b2:	4658      	mov	r0, fp
100054b4:	f7ff fb9a 	bl	10004bec <dcd_edpt_close_all>
100054b8:	78ab      	ldrb	r3, [r5, #2]
100054ba:	4907      	ldr	r1, [pc, #28]	@ (100054d8 <tud_task_ext+0x6a4>)
100054bc:	9303      	str	r3, [sp, #12]
100054be:	4b05      	ldr	r3, [pc, #20]	@ (100054d4 <tud_task_ext+0x6a0>)
100054c0:	9104      	str	r1, [sp, #16]
100054c2:	4698      	mov	r8, r3
100054c4:	781a      	ldrb	r2, [r3, #0]
100054c6:	2300      	movs	r3, #0
100054c8:	4904      	ldr	r1, [pc, #16]	@ (100054dc <tud_task_ext+0x6a8>)
100054ca:	46aa      	mov	sl, r5
100054cc:	9105      	str	r1, [sp, #20]
100054ce:	001d      	movs	r5, r3
100054d0:	e01b      	b.n	1000550a <tud_task_ext+0x6d6>
100054d2:	46c0      	nop			@ (mov r8, r8)
100054d4:	20001f59 	.word	0x20001f59
100054d8:	1000782c 	.word	0x1000782c
100054dc:	200014b8 	.word	0x200014b8
100054e0:	200015b4 	.word	0x200015b4
100054e4:	100077d0 	.word	0x100077d0
100054e8:	9b05      	ldr	r3, [sp, #20]
100054ea:	016a      	lsls	r2, r5, #5
100054ec:	681b      	ldr	r3, [r3, #0]
100054ee:	189b      	adds	r3, r3, r2
100054f0:	2b00      	cmp	r3, #0
100054f2:	d04c      	beq.n	1000558e <tud_task_ext+0x75a>
100054f4:	68db      	ldr	r3, [r3, #12]
100054f6:	4658      	mov	r0, fp
100054f8:	4798      	blx	r3
100054fa:	4643      	mov	r3, r8
100054fc:	781a      	ldrb	r2, [r3, #0]
100054fe:	3501      	adds	r5, #1
10005500:	b2ed      	uxtb	r5, r5
10005502:	1c51      	adds	r1, r2, #1
10005504:	002b      	movs	r3, r5
10005506:	428d      	cmp	r5, r1
10005508:	dc2d      	bgt.n	10005566 <tud_task_ext+0x732>
1000550a:	4295      	cmp	r5, r2
1000550c:	d3ec      	bcc.n	100054e8 <tud_task_ext+0x6b4>
1000550e:	1a9b      	subs	r3, r3, r2
10005510:	9a04      	ldr	r2, [sp, #16]
10005512:	015b      	lsls	r3, r3, #5
10005514:	18d3      	adds	r3, r2, r3
10005516:	e7ed      	b.n	100054f4 <tud_task_ext+0x6c0>
10005518:	ab0c      	add	r3, sp, #48	@ 0x30
1000551a:	1c9a      	adds	r2, r3, #2
1000551c:	4658      	mov	r0, fp
1000551e:	2301      	movs	r3, #1
10005520:	a90e      	add	r1, sp, #56	@ 0x38
10005522:	7015      	strb	r5, [r2, #0]
10005524:	f000 f950 	bl	100057c8 <tud_control_xfer>
10005528:	e499      	b.n	10004e5e <tud_task_ext+0x2a>
1000552a:	9a0b      	ldr	r2, [sp, #44]	@ 0x2c
1000552c:	2a01      	cmp	r2, #1
1000552e:	d04e      	beq.n	100055ce <tud_task_ext+0x79a>
10005530:	2a00      	cmp	r2, #0
10005532:	d03c      	beq.n	100055ae <tud_task_ext+0x77a>
10005534:	2300      	movs	r3, #0
10005536:	78b0      	ldrb	r0, [r6, #2]
10005538:	e004      	b.n	10005544 <tud_task_ext+0x710>
1000553a:	3301      	adds	r3, #1
1000553c:	b2db      	uxtb	r3, r3
1000553e:	710f      	strb	r7, [r1, #4]
10005540:	4293      	cmp	r3, r2
10005542:	d234      	bcs.n	100055ae <tud_task_ext+0x77a>
10005544:	18c1      	adds	r1, r0, r3
10005546:	b2c9      	uxtb	r1, r1
10005548:	4441      	add	r1, r8
1000554a:	790d      	ldrb	r5, [r1, #4]
1000554c:	2dff      	cmp	r5, #255	@ 0xff
1000554e:	d0f4      	beq.n	1000553a <tud_task_ext+0x706>
10005550:	464e      	mov	r6, r9
10005552:	4645      	mov	r5, r8
10005554:	4657      	mov	r7, sl
10005556:	2300      	movs	r3, #0
10005558:	706b      	strb	r3, [r5, #1]
1000555a:	e5ea      	b.n	10005132 <tud_task_ext+0x2fe>
1000555c:	464e      	mov	r6, r9
1000555e:	4657      	mov	r7, sl
10005560:	f7ff fbd8 	bl	10004d14 <tud_mount_cb>
10005564:	e63e      	b.n	100051e4 <tud_task_ext+0x3b0>
10005566:	4655      	mov	r5, sl
10005568:	2254      	movs	r2, #84	@ 0x54
1000556a:	2100      	movs	r1, #0
1000556c:	0028      	movs	r0, r5
1000556e:	f7fd f88d 	bl	1000268c <__wrap_memset>
10005572:	2210      	movs	r2, #16
10005574:	21ff      	movs	r1, #255	@ 0xff
10005576:	1d28      	adds	r0, r5, #4
10005578:	f7fd f888 	bl	1000268c <__wrap_memset>
1000557c:	0028      	movs	r0, r5
1000557e:	2220      	movs	r2, #32
10005580:	21ff      	movs	r1, #255	@ 0xff
10005582:	3014      	adds	r0, #20
10005584:	f7fd f882 	bl	1000268c <__wrap_memset>
10005588:	9b03      	ldr	r3, [sp, #12]
1000558a:	70ab      	strb	r3, [r5, #2]
1000558c:	e657      	b.n	1000523e <tud_task_ext+0x40a>
1000558e:	4655      	mov	r5, sl
10005590:	e7fa      	b.n	10005588 <tud_task_ext+0x754>
10005592:	f7fe fe9b 	bl	100042cc <tud_descriptor_bos_cb>
10005596:	1e02      	subs	r2, r0, #0
10005598:	d100      	bne.n	1000559c <tud_task_ext+0x768>
1000559a:	e5ca      	b.n	10005132 <tud_task_ext+0x2fe>
1000559c:	78d3      	ldrb	r3, [r2, #3]
1000559e:	7891      	ldrb	r1, [r2, #2]
100055a0:	021b      	lsls	r3, r3, #8
100055a2:	430b      	orrs	r3, r1
100055a4:	4658      	mov	r0, fp
100055a6:	a90e      	add	r1, sp, #56	@ 0x38
100055a8:	f000 f90e 	bl	100057c8 <tud_control_xfer>
100055ac:	e5d2      	b.n	10005154 <tud_task_ext+0x320>
100055ae:	4665      	mov	r5, ip
100055b0:	003b      	movs	r3, r7
100055b2:	002a      	movs	r2, r5
100055b4:	0031      	movs	r1, r6
100055b6:	980a      	ldr	r0, [sp, #40]	@ 0x28
100055b8:	f000 fe6a 	bl	10006290 <tu_edpt_bind_driver>
100055bc:	9b04      	ldr	r3, [sp, #16]
100055be:	9a03      	ldr	r2, [sp, #12]
100055c0:	781b      	ldrb	r3, [r3, #0]
100055c2:	1976      	adds	r6, r6, r5
100055c4:	3301      	adds	r3, #1
100055c6:	4293      	cmp	r3, r2
100055c8:	db00      	blt.n	100055cc <tud_task_ext+0x798>
100055ca:	e66d      	b.n	100052a8 <tud_task_ext+0x474>
100055cc:	e7c0      	b.n	10005550 <tud_task_ext+0x71c>
100055ce:	4b17      	ldr	r3, [pc, #92]	@ (1000562c <tud_task_ext+0x7f8>)
100055d0:	6929      	ldr	r1, [r5, #16]
100055d2:	4299      	cmp	r1, r3
100055d4:	d1ae      	bne.n	10005534 <tud_task_ext+0x700>
100055d6:	9a07      	ldr	r2, [sp, #28]
100055d8:	e7ac      	b.n	10005534 <tud_task_ext+0x700>
100055da:	f7ff fb97 	bl	10004d0c <tud_descriptor_device_qualifier_cb>
100055de:	1e02      	subs	r2, r0, #0
100055e0:	d100      	bne.n	100055e4 <tud_task_ext+0x7b0>
100055e2:	e5a6      	b.n	10005132 <tud_task_ext+0x2fe>
100055e4:	4658      	mov	r0, fp
100055e6:	7813      	ldrb	r3, [r2, #0]
100055e8:	a90e      	add	r1, sp, #56	@ 0x38
100055ea:	f000 f8ed 	bl	100057c8 <tud_control_xfer>
100055ee:	e5b1      	b.n	10005154 <tud_task_ext+0x320>
100055f0:	8921      	ldrh	r1, [r4, #8]
100055f2:	f7ff f8af 	bl	10004754 <tud_descriptor_string_cb>
100055f6:	1e02      	subs	r2, r0, #0
100055f8:	d1f4      	bne.n	100055e4 <tud_task_ext+0x7b0>
100055fa:	e59a      	b.n	10005132 <tud_task_ext+0x2fe>
100055fc:	2b02      	cmp	r3, #2
100055fe:	d00f      	beq.n	10005620 <tud_task_ext+0x7ec>
10005600:	f7ff fb86 	bl	10004d10 <tud_descriptor_other_speed_configuration_cb>
10005604:	1e02      	subs	r2, r0, #0
10005606:	d1c9      	bne.n	1000559c <tud_task_ext+0x768>
10005608:	e593      	b.n	10005132 <tud_task_ext+0x2fe>
1000560a:	f7ff f89b 	bl	10004744 <tud_descriptor_device_cb>
1000560e:	1e02      	subs	r2, r0, #0
10005610:	d100      	bne.n	10005614 <tud_task_ext+0x7e0>
10005612:	e58e      	b.n	10005132 <tud_task_ext+0x2fe>
10005614:	2312      	movs	r3, #18
10005616:	4658      	mov	r0, fp
10005618:	a90e      	add	r1, sp, #56	@ 0x38
1000561a:	f000 f8d5 	bl	100057c8 <tud_control_xfer>
1000561e:	e599      	b.n	10005154 <tud_task_ext+0x320>
10005620:	f7ff f894 	bl	1000474c <tud_descriptor_configuration_cb>
10005624:	1e02      	subs	r2, r0, #0
10005626:	d1b9      	bne.n	1000559c <tud_task_ext+0x768>
10005628:	e583      	b.n	10005132 <tud_task_ext+0x2fe>
1000562a:	46c0      	nop			@ (mov r8, r8)
1000562c:	10005c75 	.word	0x10005c75

10005630 <usbd_open_edpt_pair>:
10005630:	b5f0      	push	{r4, r5, r6, r7, lr}
10005632:	464f      	mov	r7, r9
10005634:	4646      	mov	r6, r8
10005636:	46d6      	mov	lr, sl
10005638:	b5c0      	push	{r6, r7, lr}
1000563a:	000c      	movs	r4, r1
1000563c:	0016      	movs	r6, r2
1000563e:	001f      	movs	r7, r3
10005640:	b082      	sub	sp, #8
10005642:	2a00      	cmp	r2, #0
10005644:	d03a      	beq.n	100056bc <usbd_open_edpt_pair+0x8c>
10005646:	2370      	movs	r3, #112	@ 0x70
10005648:	4698      	mov	r8, r3
1000564a:	4b1d      	ldr	r3, [pc, #116]	@ (100056c0 <usbd_open_edpt_pair+0x90>)
1000564c:	2500      	movs	r5, #0
1000564e:	4699      	mov	r9, r3
10005650:	4b1c      	ldr	r3, [pc, #112]	@ (100056c4 <usbd_open_edpt_pair+0x94>)
10005652:	469a      	mov	sl, r3
10005654:	e01a      	b.n	1000568c <usbd_open_edpt_pair+0x5c>
10005656:	464b      	mov	r3, r9
10005658:	781b      	ldrb	r3, [r3, #0]
1000565a:	0020      	movs	r0, r4
1000565c:	9301      	str	r3, [sp, #4]
1000565e:	4653      	mov	r3, sl
10005660:	7899      	ldrb	r1, [r3, #2]
10005662:	f000 fddb 	bl	1000621c <tu_edpt_validate>
10005666:	2800      	cmp	r0, #0
10005668:	d01c      	beq.n	100056a4 <usbd_open_edpt_pair+0x74>
1000566a:	0021      	movs	r1, r4
1000566c:	9801      	ldr	r0, [sp, #4]
1000566e:	f7ff fa33 	bl	10004ad8 <dcd_edpt_open>
10005672:	2800      	cmp	r0, #0
10005674:	d016      	beq.n	100056a4 <usbd_open_edpt_pair+0x74>
10005676:	78a3      	ldrb	r3, [r4, #2]
10005678:	09da      	lsrs	r2, r3, #7
1000567a:	2a01      	cmp	r2, #1
1000567c:	d019      	beq.n	100056b2 <usbd_open_edpt_pair+0x82>
1000567e:	9a0a      	ldr	r2, [sp, #40]	@ 0x28
10005680:	3501      	adds	r5, #1
10005682:	7013      	strb	r3, [r2, #0]
10005684:	42b5      	cmp	r5, r6
10005686:	da19      	bge.n	100056bc <usbd_open_edpt_pair+0x8c>
10005688:	7823      	ldrb	r3, [r4, #0]
1000568a:	18e4      	adds	r4, r4, r3
1000568c:	7863      	ldrb	r3, [r4, #1]
1000568e:	2b05      	cmp	r3, #5
10005690:	d108      	bne.n	100056a4 <usbd_open_edpt_pair+0x74>
10005692:	78e3      	ldrb	r3, [r4, #3]
10005694:	079b      	lsls	r3, r3, #30
10005696:	0f9b      	lsrs	r3, r3, #30
10005698:	42bb      	cmp	r3, r7
1000569a:	d103      	bne.n	100056a4 <usbd_open_edpt_pair+0x74>
1000569c:	4642      	mov	r2, r8
1000569e:	78a3      	ldrb	r3, [r4, #2]
100056a0:	421a      	tst	r2, r3
100056a2:	d0d8      	beq.n	10005656 <usbd_open_edpt_pair+0x26>
100056a4:	2000      	movs	r0, #0
100056a6:	b002      	add	sp, #8
100056a8:	bce0      	pop	{r5, r6, r7}
100056aa:	46ba      	mov	sl, r7
100056ac:	46b1      	mov	r9, r6
100056ae:	46a8      	mov	r8, r5
100056b0:	bdf0      	pop	{r4, r5, r6, r7, pc}
100056b2:	9a0b      	ldr	r2, [sp, #44]	@ 0x2c
100056b4:	3501      	adds	r5, #1
100056b6:	7013      	strb	r3, [r2, #0]
100056b8:	42b5      	cmp	r5, r6
100056ba:	dbe5      	blt.n	10005688 <usbd_open_edpt_pair+0x58>
100056bc:	2001      	movs	r0, #1
100056be:	e7f2      	b.n	100056a6 <usbd_open_edpt_pair+0x76>
100056c0:	20001054 	.word	0x20001054
100056c4:	200015a0 	.word	0x200015a0

100056c8 <usbd_edpt_open>:
100056c8:	2270      	movs	r2, #112	@ 0x70
100056ca:	b570      	push	{r4, r5, r6, lr}
100056cc:	788b      	ldrb	r3, [r1, #2]
100056ce:	000c      	movs	r4, r1
100056d0:	421a      	tst	r2, r3
100056d2:	d001      	beq.n	100056d8 <usbd_edpt_open+0x10>
100056d4:	2000      	movs	r0, #0
100056d6:	bd70      	pop	{r4, r5, r6, pc}
100056d8:	4b06      	ldr	r3, [pc, #24]	@ (100056f4 <usbd_edpt_open+0x2c>)
100056da:	0020      	movs	r0, r4
100056dc:	781d      	ldrb	r5, [r3, #0]
100056de:	4b06      	ldr	r3, [pc, #24]	@ (100056f8 <usbd_edpt_open+0x30>)
100056e0:	7899      	ldrb	r1, [r3, #2]
100056e2:	f000 fd9b 	bl	1000621c <tu_edpt_validate>
100056e6:	2800      	cmp	r0, #0
100056e8:	d0f4      	beq.n	100056d4 <usbd_edpt_open+0xc>
100056ea:	0021      	movs	r1, r4
100056ec:	0028      	movs	r0, r5
100056ee:	f7ff f9f3 	bl	10004ad8 <dcd_edpt_open>
100056f2:	e7f0      	b.n	100056d6 <usbd_edpt_open+0xe>
100056f4:	20001054 	.word	0x20001054
100056f8:	200015a0 	.word	0x200015a0

100056fc <usbd_edpt_claim>:
100056fc:	207f      	movs	r0, #127	@ 0x7f
100056fe:	4b07      	ldr	r3, [pc, #28]	@ (1000571c <usbd_edpt_claim+0x20>)
10005700:	b510      	push	{r4, lr}
10005702:	681a      	ldr	r2, [r3, #0]
10005704:	4008      	ands	r0, r1
10005706:	09cb      	lsrs	r3, r1, #7
10005708:	3334      	adds	r3, #52	@ 0x34
1000570a:	0040      	lsls	r0, r0, #1
1000570c:	18c0      	adds	r0, r0, r3
1000570e:	4b04      	ldr	r3, [pc, #16]	@ (10005720 <usbd_edpt_claim+0x24>)
10005710:	0011      	movs	r1, r2
10005712:	18c0      	adds	r0, r0, r3
10005714:	f000 fd3e 	bl	10006194 <tu_edpt_claim>
10005718:	bd10      	pop	{r4, pc}
1000571a:	46c0      	nop			@ (mov r8, r8)
1000571c:	200015f4 	.word	0x200015f4
10005720:	200015a0 	.word	0x200015a0

10005724 <usbd_edpt_release>:
10005724:	207f      	movs	r0, #127	@ 0x7f
10005726:	4b07      	ldr	r3, [pc, #28]	@ (10005744 <usbd_edpt_release+0x20>)
10005728:	b510      	push	{r4, lr}
1000572a:	681a      	ldr	r2, [r3, #0]
1000572c:	4008      	ands	r0, r1
1000572e:	09cb      	lsrs	r3, r1, #7
10005730:	3334      	adds	r3, #52	@ 0x34
10005732:	0040      	lsls	r0, r0, #1
10005734:	18c0      	adds	r0, r0, r3
10005736:	4b04      	ldr	r3, [pc, #16]	@ (10005748 <usbd_edpt_release+0x24>)
10005738:	0011      	movs	r1, r2
1000573a:	18c0      	adds	r0, r0, r3
1000573c:	f000 fd52 	bl	100061e4 <tu_edpt_release>
10005740:	bd10      	pop	{r4, pc}
10005742:	46c0      	nop			@ (mov r8, r8)
10005744:	200015f4 	.word	0x200015f4
10005748:	200015a0 	.word	0x200015a0

1000574c <usbd_edpt_xfer>:
1000574c:	b570      	push	{r4, r5, r6, lr}
1000574e:	247f      	movs	r4, #127	@ 0x7f
10005750:	09c8      	lsrs	r0, r1, #7
10005752:	4684      	mov	ip, r0
10005754:	400c      	ands	r4, r1
10005756:	480f      	ldr	r0, [pc, #60]	@ (10005794 <usbd_edpt_xfer+0x48>)
10005758:	0064      	lsls	r4, r4, #1
1000575a:	1904      	adds	r4, r0, r4
1000575c:	4464      	add	r4, ip
1000575e:	3430      	adds	r4, #48	@ 0x30
10005760:	7920      	ldrb	r0, [r4, #4]
10005762:	07c0      	lsls	r0, r0, #31
10005764:	d501      	bpl.n	1000576a <usbd_edpt_xfer+0x1e>
10005766:	2000      	movs	r0, #0
10005768:	bd70      	pop	{r4, r5, r6, pc}
1000576a:	480b      	ldr	r0, [pc, #44]	@ (10005798 <usbd_edpt_xfer+0x4c>)
1000576c:	2501      	movs	r5, #1
1000576e:	7800      	ldrb	r0, [r0, #0]
10005770:	4684      	mov	ip, r0
10005772:	7920      	ldrb	r0, [r4, #4]
10005774:	4328      	orrs	r0, r5
10005776:	7120      	strb	r0, [r4, #4]
10005778:	4660      	mov	r0, ip
1000577a:	f7ff fa3b 	bl	10004bf4 <dcd_edpt_xfer>
1000577e:	2800      	cmp	r0, #0
10005780:	d1f2      	bne.n	10005768 <usbd_edpt_xfer+0x1c>
10005782:	2201      	movs	r2, #1
10005784:	7923      	ldrb	r3, [r4, #4]
10005786:	4393      	bics	r3, r2
10005788:	7123      	strb	r3, [r4, #4]
1000578a:	7923      	ldrb	r3, [r4, #4]
1000578c:	3203      	adds	r2, #3
1000578e:	4393      	bics	r3, r2
10005790:	7123      	strb	r3, [r4, #4]
10005792:	e7e8      	b.n	10005766 <usbd_edpt_xfer+0x1a>
10005794:	200015a0 	.word	0x200015a0
10005798:	20001054 	.word	0x20001054

1000579c <tud_control_status>:
1000579c:	b570      	push	{r4, r5, r6, lr}
1000579e:	4c09      	ldr	r4, [pc, #36]	@ (100057c4 <tud_control_status+0x28>)
100057a0:	0006      	movs	r6, r0
100057a2:	2208      	movs	r2, #8
100057a4:	0020      	movs	r0, r4
100057a6:	000d      	movs	r5, r1
100057a8:	f7fc ff76 	bl	10002698 <__wrap___aeabi_memcpy>
100057ac:	2300      	movs	r3, #0
100057ae:	2180      	movs	r1, #128	@ 0x80
100057b0:	60e3      	str	r3, [r4, #12]
100057b2:	60a3      	str	r3, [r4, #8]
100057b4:	782b      	ldrb	r3, [r5, #0]
100057b6:	0030      	movs	r0, r6
100057b8:	4399      	bics	r1, r3
100057ba:	2200      	movs	r2, #0
100057bc:	2300      	movs	r3, #0
100057be:	f7ff ffc5 	bl	1000574c <usbd_edpt_xfer>
100057c2:	bd70      	pop	{r4, r5, r6, pc}
100057c4:	20001580 	.word	0x20001580

100057c8 <tud_control_xfer>:
100057c8:	b5f0      	push	{r4, r5, r6, r7, lr}
100057ca:	46c6      	mov	lr, r8
100057cc:	4c24      	ldr	r4, [pc, #144]	@ (10005860 <tud_control_xfer+0x98>)
100057ce:	0017      	movs	r7, r2
100057d0:	4680      	mov	r8, r0
100057d2:	2208      	movs	r2, #8
100057d4:	0020      	movs	r0, r4
100057d6:	b500      	push	{lr}
100057d8:	000d      	movs	r5, r1
100057da:	001e      	movs	r6, r3
100057dc:	f7fc ff5c 	bl	10002698 <__wrap___aeabi_memcpy>
100057e0:	2300      	movs	r3, #0
100057e2:	60a7      	str	r7, [r4, #8]
100057e4:	81e3      	strh	r3, [r4, #14]
100057e6:	79eb      	ldrb	r3, [r5, #7]
100057e8:	79aa      	ldrb	r2, [r5, #6]
100057ea:	021b      	lsls	r3, r3, #8
100057ec:	4313      	orrs	r3, r2
100057ee:	1c1a      	adds	r2, r3, #0
100057f0:	42b3      	cmp	r3, r6
100057f2:	d900      	bls.n	100057f6 <tud_control_xfer+0x2e>
100057f4:	1c32      	adds	r2, r6, #0
100057f6:	b296      	uxth	r6, r2
100057f8:	81a2      	strh	r2, [r4, #12]
100057fa:	2b00      	cmp	r3, #0
100057fc:	d00c      	beq.n	10005818 <tud_control_xfer+0x50>
100057fe:	2e00      	cmp	r6, #0
10005800:	d015      	beq.n	1000582e <tud_control_xfer+0x66>
10005802:	2f00      	cmp	r7, #0
10005804:	d02a      	beq.n	1000585c <tud_control_xfer+0x94>
10005806:	2e40      	cmp	r6, #64	@ 0x40
10005808:	d81a      	bhi.n	10005840 <tud_control_xfer+0x78>
1000580a:	7823      	ldrb	r3, [r4, #0]
1000580c:	b296      	uxth	r6, r2
1000580e:	2b7f      	cmp	r3, #127	@ 0x7f
10005810:	d81b      	bhi.n	1000584a <tud_control_xfer+0x82>
10005812:	2100      	movs	r1, #0
10005814:	4a13      	ldr	r2, [pc, #76]	@ (10005864 <tud_control_xfer+0x9c>)
10005816:	e00e      	b.n	10005836 <tud_control_xfer+0x6e>
10005818:	2180      	movs	r1, #128	@ 0x80
1000581a:	782b      	ldrb	r3, [r5, #0]
1000581c:	2200      	movs	r2, #0
1000581e:	4399      	bics	r1, r3
10005820:	4640      	mov	r0, r8
10005822:	2300      	movs	r3, #0
10005824:	f7ff ff92 	bl	1000574c <usbd_edpt_xfer>
10005828:	bc80      	pop	{r7}
1000582a:	46b8      	mov	r8, r7
1000582c:	bdf0      	pop	{r4, r5, r6, r7, pc}
1000582e:	237f      	movs	r3, #127	@ 0x7f
10005830:	2200      	movs	r2, #0
10005832:	7821      	ldrb	r1, [r4, #0]
10005834:	4399      	bics	r1, r3
10005836:	0033      	movs	r3, r6
10005838:	4640      	mov	r0, r8
1000583a:	f7ff ff87 	bl	1000574c <usbd_edpt_xfer>
1000583e:	e7f3      	b.n	10005828 <tud_control_xfer+0x60>
10005840:	2240      	movs	r2, #64	@ 0x40
10005842:	7823      	ldrb	r3, [r4, #0]
10005844:	b296      	uxth	r6, r2
10005846:	2b7f      	cmp	r3, #127	@ 0x7f
10005848:	d9e3      	bls.n	10005812 <tud_control_xfer+0x4a>
1000584a:	4c06      	ldr	r4, [pc, #24]	@ (10005864 <tud_control_xfer+0x9c>)
1000584c:	0032      	movs	r2, r6
1000584e:	0039      	movs	r1, r7
10005850:	0020      	movs	r0, r4
10005852:	f7fc ff21 	bl	10002698 <__wrap___aeabi_memcpy>
10005856:	2180      	movs	r1, #128	@ 0x80
10005858:	0022      	movs	r2, r4
1000585a:	e7ec      	b.n	10005836 <tud_control_xfer+0x6e>
1000585c:	2000      	movs	r0, #0
1000585e:	e7e3      	b.n	10005828 <tud_control_xfer+0x60>
10005860:	20001580 	.word	0x20001580
10005864:	20001540 	.word	0x20001540

10005868 <usbd_control_reset>:
10005868:	b510      	push	{r4, lr}
1000586a:	2214      	movs	r2, #20
1000586c:	2100      	movs	r1, #0
1000586e:	4802      	ldr	r0, [pc, #8]	@ (10005878 <usbd_control_reset+0x10>)
10005870:	f7fc ff0c 	bl	1000268c <__wrap_memset>
10005874:	bd10      	pop	{r4, pc}
10005876:	46c0      	nop			@ (mov r8, r8)
10005878:	20001580 	.word	0x20001580

1000587c <usbd_control_set_complete_callback>:
1000587c:	4b01      	ldr	r3, [pc, #4]	@ (10005884 <usbd_control_set_complete_callback+0x8>)
1000587e:	6118      	str	r0, [r3, #16]
10005880:	4770      	bx	lr
10005882:	46c0      	nop			@ (mov r8, r8)
10005884:	20001580 	.word	0x20001580

10005888 <usbd_control_set_request>:
10005888:	b510      	push	{r4, lr}
1000588a:	4c05      	ldr	r4, [pc, #20]	@ (100058a0 <usbd_control_set_request+0x18>)
1000588c:	0001      	movs	r1, r0
1000588e:	2208      	movs	r2, #8
10005890:	0020      	movs	r0, r4
10005892:	f7fc ff01 	bl	10002698 <__wrap___aeabi_memcpy>
10005896:	2300      	movs	r3, #0
10005898:	60a3      	str	r3, [r4, #8]
1000589a:	60e3      	str	r3, [r4, #12]
1000589c:	bd10      	pop	{r4, pc}
1000589e:	46c0      	nop			@ (mov r8, r8)
100058a0:	20001580 	.word	0x20001580

100058a4 <usbd_control_xfer_cb>:
100058a4:	b570      	push	{r4, r5, r6, lr}
100058a6:	4c37      	ldr	r4, [pc, #220]	@ (10005984 <usbd_control_xfer_cb+0xe0>)
100058a8:	001d      	movs	r5, r3
100058aa:	7823      	ldrb	r3, [r4, #0]
100058ac:	0006      	movs	r6, r0
100058ae:	09da      	lsrs	r2, r3, #7
100058b0:	09c9      	lsrs	r1, r1, #7
100058b2:	428a      	cmp	r2, r1
100058b4:	d010      	beq.n	100058d8 <usbd_control_xfer_cb+0x34>
100058b6:	2000      	movs	r0, #0
100058b8:	2d00      	cmp	r5, #0
100058ba:	d000      	beq.n	100058be <usbd_control_xfer_cb+0x1a>
100058bc:	bd70      	pop	{r4, r5, r6, pc}
100058be:	0021      	movs	r1, r4
100058c0:	0030      	movs	r0, r6
100058c2:	f7ff f8fb 	bl	10004abc <dcd_edpt0_status_complete>
100058c6:	6923      	ldr	r3, [r4, #16]
100058c8:	2b00      	cmp	r3, #0
100058ca:	d003      	beq.n	100058d4 <usbd_control_xfer_cb+0x30>
100058cc:	0022      	movs	r2, r4
100058ce:	2103      	movs	r1, #3
100058d0:	0030      	movs	r0, r6
100058d2:	4798      	blx	r3
100058d4:	2001      	movs	r0, #1
100058d6:	e7f1      	b.n	100058bc <usbd_control_xfer_cb+0x18>
100058d8:	2b7f      	cmp	r3, #127	@ 0x7f
100058da:	d806      	bhi.n	100058ea <usbd_control_xfer_cb+0x46>
100058dc:	68a0      	ldr	r0, [r4, #8]
100058de:	2800      	cmp	r0, #0
100058e0:	d0ec      	beq.n	100058bc <usbd_control_xfer_cb+0x18>
100058e2:	002a      	movs	r2, r5
100058e4:	4928      	ldr	r1, [pc, #160]	@ (10005988 <usbd_control_xfer_cb+0xe4>)
100058e6:	f7fc fed7 	bl	10002698 <__wrap___aeabi_memcpy>
100058ea:	89e2      	ldrh	r2, [r4, #14]
100058ec:	68a1      	ldr	r1, [r4, #8]
100058ee:	1952      	adds	r2, r2, r5
100058f0:	88e3      	ldrh	r3, [r4, #6]
100058f2:	b292      	uxth	r2, r2
100058f4:	1949      	adds	r1, r1, r5
100058f6:	81e2      	strh	r2, [r4, #14]
100058f8:	60a1      	str	r1, [r4, #8]
100058fa:	4293      	cmp	r3, r2
100058fc:	d014      	beq.n	10005928 <usbd_control_xfer_cb+0x84>
100058fe:	2d3f      	cmp	r5, #63	@ 0x3f
10005900:	d912      	bls.n	10005928 <usbd_control_xfer_cb+0x84>
10005902:	89a3      	ldrh	r3, [r4, #12]
10005904:	1a98      	subs	r0, r3, r2
10005906:	1c05      	adds	r5, r0, #0
10005908:	b280      	uxth	r0, r0
1000590a:	2840      	cmp	r0, #64	@ 0x40
1000590c:	d828      	bhi.n	10005960 <usbd_control_xfer_cb+0xbc>
1000590e:	7820      	ldrb	r0, [r4, #0]
10005910:	b2ad      	uxth	r5, r5
10005912:	287f      	cmp	r0, #127	@ 0x7f
10005914:	d826      	bhi.n	10005964 <usbd_control_xfer_cb+0xc0>
10005916:	2100      	movs	r1, #0
10005918:	429a      	cmp	r2, r3
1000591a:	d030      	beq.n	1000597e <usbd_control_xfer_cb+0xda>
1000591c:	4a1a      	ldr	r2, [pc, #104]	@ (10005988 <usbd_control_xfer_cb+0xe4>)
1000591e:	002b      	movs	r3, r5
10005920:	0030      	movs	r0, r6
10005922:	f7ff ff13 	bl	1000574c <usbd_edpt_xfer>
10005926:	e7c9      	b.n	100058bc <usbd_control_xfer_cb+0x18>
10005928:	6923      	ldr	r3, [r4, #16]
1000592a:	2b00      	cmp	r3, #0
1000592c:	d005      	beq.n	1000593a <usbd_control_xfer_cb+0x96>
1000592e:	0022      	movs	r2, r4
10005930:	2102      	movs	r1, #2
10005932:	0030      	movs	r0, r6
10005934:	4798      	blx	r3
10005936:	2800      	cmp	r0, #0
10005938:	d008      	beq.n	1000594c <usbd_control_xfer_cb+0xa8>
1000593a:	2180      	movs	r1, #128	@ 0x80
1000593c:	7823      	ldrb	r3, [r4, #0]
1000593e:	2200      	movs	r2, #0
10005940:	4399      	bics	r1, r3
10005942:	0030      	movs	r0, r6
10005944:	2300      	movs	r3, #0
10005946:	f7ff ff01 	bl	1000574c <usbd_edpt_xfer>
1000594a:	e7b7      	b.n	100058bc <usbd_control_xfer_cb+0x18>
1000594c:	2100      	movs	r1, #0
1000594e:	0030      	movs	r0, r6
10005950:	f7ff f962 	bl	10004c18 <dcd_edpt_stall>
10005954:	0030      	movs	r0, r6
10005956:	2180      	movs	r1, #128	@ 0x80
10005958:	f7ff f95e 	bl	10004c18 <dcd_edpt_stall>
1000595c:	2001      	movs	r0, #1
1000595e:	e7ad      	b.n	100058bc <usbd_control_xfer_cb+0x18>
10005960:	2540      	movs	r5, #64	@ 0x40
10005962:	e7d4      	b.n	1000590e <usbd_control_xfer_cb+0x6a>
10005964:	429a      	cmp	r2, r3
10005966:	d007      	beq.n	10005978 <usbd_control_xfer_cb+0xd4>
10005968:	4c07      	ldr	r4, [pc, #28]	@ (10005988 <usbd_control_xfer_cb+0xe4>)
1000596a:	002a      	movs	r2, r5
1000596c:	0020      	movs	r0, r4
1000596e:	f7fc fe93 	bl	10002698 <__wrap___aeabi_memcpy>
10005972:	2180      	movs	r1, #128	@ 0x80
10005974:	0022      	movs	r2, r4
10005976:	e7d2      	b.n	1000591e <usbd_control_xfer_cb+0x7a>
10005978:	2180      	movs	r1, #128	@ 0x80
1000597a:	2200      	movs	r2, #0
1000597c:	e7cf      	b.n	1000591e <usbd_control_xfer_cb+0x7a>
1000597e:	2200      	movs	r2, #0
10005980:	e7cd      	b.n	1000591e <usbd_control_xfer_cb+0x7a>
10005982:	46c0      	nop			@ (mov r8, r8)
10005984:	20001580 	.word	0x20001580
10005988:	20001540 	.word	0x20001540

1000598c <_prep_out_transaction.isra.0>:
1000598c:	b570      	push	{r4, r5, r6, lr}
1000598e:	0004      	movs	r4, r0
10005990:	f7ff f9c8 	bl	10004d24 <tud_mounted>
10005994:	2800      	cmp	r0, #0
10005996:	d100      	bne.n	1000599a <_prep_out_transaction.isra.0+0xe>
10005998:	bd70      	pop	{r4, r5, r6, pc}
1000599a:	f7ff f9cb 	bl	10004d34 <tud_suspended>
1000599e:	2800      	cmp	r0, #0
100059a0:	d1fa      	bne.n	10005998 <_prep_out_transaction.isra.0+0xc>
100059a2:	23c8      	movs	r3, #200	@ 0xc8
100059a4:	4363      	muls	r3, r4
100059a6:	4a12      	ldr	r2, [pc, #72]	@ (100059f0 <_prep_out_transaction.isra.0+0x64>)
100059a8:	0025      	movs	r5, r4
100059aa:	18d4      	adds	r4, r2, r3
100059ac:	78e1      	ldrb	r1, [r4, #3]
100059ae:	2900      	cmp	r1, #0
100059b0:	d0f2      	beq.n	10005998 <_prep_out_transaction.isra.0+0xc>
100059b2:	3310      	adds	r3, #16
100059b4:	189e      	adds	r6, r3, r2
100059b6:	0030      	movs	r0, r6
100059b8:	f000 fde2 	bl	10006580 <tu_fifo_remaining>
100059bc:	283f      	cmp	r0, #63	@ 0x3f
100059be:	d9eb      	bls.n	10005998 <_prep_out_transaction.isra.0+0xc>
100059c0:	2000      	movs	r0, #0
100059c2:	78e1      	ldrb	r1, [r4, #3]
100059c4:	f7ff fe9a 	bl	100056fc <usbd_edpt_claim>
100059c8:	2800      	cmp	r0, #0
100059ca:	d0e5      	beq.n	10005998 <_prep_out_transaction.isra.0+0xc>
100059cc:	0030      	movs	r0, r6
100059ce:	f000 fdd7 	bl	10006580 <tu_fifo_remaining>
100059d2:	78e1      	ldrb	r1, [r4, #3]
100059d4:	283f      	cmp	r0, #63	@ 0x3f
100059d6:	d907      	bls.n	100059e8 <_prep_out_transaction.isra.0+0x5c>
100059d8:	4b06      	ldr	r3, [pc, #24]	@ (100059f4 <_prep_out_transaction.isra.0+0x68>)
100059da:	01ea      	lsls	r2, r5, #7
100059dc:	18d2      	adds	r2, r2, r3
100059de:	2000      	movs	r0, #0
100059e0:	2340      	movs	r3, #64	@ 0x40
100059e2:	f7ff feb3 	bl	1000574c <usbd_edpt_xfer>
100059e6:	e7d7      	b.n	10005998 <_prep_out_transaction.isra.0+0xc>
100059e8:	2000      	movs	r0, #0
100059ea:	f7ff fe9b 	bl	10005724 <usbd_edpt_release>
100059ee:	e7d3      	b.n	10005998 <_prep_out_transaction.isra.0+0xc>
100059f0:	20001068 	.word	0x20001068
100059f4:	200014bc 	.word	0x200014bc

100059f8 <tud_cdc_n_connected>:
100059f8:	b510      	push	{r4, lr}
100059fa:	0004      	movs	r4, r0
100059fc:	f7ff f992 	bl	10004d24 <tud_mounted>
10005a00:	2800      	cmp	r0, #0
10005a02:	d101      	bne.n	10005a08 <tud_cdc_n_connected+0x10>
10005a04:	2000      	movs	r0, #0
10005a06:	bd10      	pop	{r4, pc}
10005a08:	f7ff f994 	bl	10004d34 <tud_suspended>
10005a0c:	2800      	cmp	r0, #0
10005a0e:	d1f9      	bne.n	10005a04 <tud_cdc_n_connected+0xc>
10005a10:	22c8      	movs	r2, #200	@ 0xc8
10005a12:	4362      	muls	r2, r4
10005a14:	4b02      	ldr	r3, [pc, #8]	@ (10005a20 <tud_cdc_n_connected+0x28>)
10005a16:	3001      	adds	r0, #1
10005a18:	189b      	adds	r3, r3, r2
10005a1a:	791b      	ldrb	r3, [r3, #4]
10005a1c:	4018      	ands	r0, r3
10005a1e:	e7f2      	b.n	10005a06 <tud_cdc_n_connected+0xe>
10005a20:	20001068 	.word	0x20001068

10005a24 <tud_cdc_n_available>:
10005a24:	23c8      	movs	r3, #200	@ 0xc8
10005a26:	b510      	push	{r4, lr}
10005a28:	4343      	muls	r3, r0
10005a2a:	4802      	ldr	r0, [pc, #8]	@ (10005a34 <tud_cdc_n_available+0x10>)
10005a2c:	1818      	adds	r0, r3, r0
10005a2e:	f000 fd89 	bl	10006544 <tu_fifo_count>
10005a32:	bd10      	pop	{r4, pc}
10005a34:	20001078 	.word	0x20001078

10005a38 <tud_cdc_n_read>:
10005a38:	b5f8      	push	{r3, r4, r5, r6, r7, lr}
10005a3a:	23c8      	movs	r3, #200	@ 0xc8
10005a3c:	4343      	muls	r3, r0
10005a3e:	4d1d      	ldr	r5, [pc, #116]	@ (10005ab4 <tud_cdc_n_read+0x7c>)
10005a40:	3310      	adds	r3, #16
10005a42:	18ee      	adds	r6, r5, r3
10005a44:	2380      	movs	r3, #128	@ 0x80
10005a46:	0004      	movs	r4, r0
10005a48:	025b      	lsls	r3, r3, #9
10005a4a:	429a      	cmp	r2, r3
10005a4c:	d300      	bcc.n	10005a50 <tud_cdc_n_read+0x18>
10005a4e:	4a1a      	ldr	r2, [pc, #104]	@ (10005ab8 <tud_cdc_n_read+0x80>)
10005a50:	0030      	movs	r0, r6
10005a52:	b292      	uxth	r2, r2
10005a54:	f000 fdf8 	bl	10006648 <tu_fifo_read_n>
10005a58:	0007      	movs	r7, r0
10005a5a:	f7ff f963 	bl	10004d24 <tud_mounted>
10005a5e:	2800      	cmp	r0, #0
10005a60:	d101      	bne.n	10005a66 <tud_cdc_n_read+0x2e>
10005a62:	0038      	movs	r0, r7
10005a64:	bdf8      	pop	{r3, r4, r5, r6, r7, pc}
10005a66:	f7ff f965 	bl	10004d34 <tud_suspended>
10005a6a:	2800      	cmp	r0, #0
10005a6c:	d1f9      	bne.n	10005a62 <tud_cdc_n_read+0x2a>
10005a6e:	23c8      	movs	r3, #200	@ 0xc8
10005a70:	4363      	muls	r3, r4
10005a72:	18ed      	adds	r5, r5, r3
10005a74:	78eb      	ldrb	r3, [r5, #3]
10005a76:	2b00      	cmp	r3, #0
10005a78:	d0f3      	beq.n	10005a62 <tud_cdc_n_read+0x2a>
10005a7a:	0030      	movs	r0, r6
10005a7c:	f000 fd80 	bl	10006580 <tu_fifo_remaining>
10005a80:	283f      	cmp	r0, #63	@ 0x3f
10005a82:	d9ee      	bls.n	10005a62 <tud_cdc_n_read+0x2a>
10005a84:	2000      	movs	r0, #0
10005a86:	78e9      	ldrb	r1, [r5, #3]
10005a88:	f7ff fe38 	bl	100056fc <usbd_edpt_claim>
10005a8c:	2800      	cmp	r0, #0
10005a8e:	d0e8      	beq.n	10005a62 <tud_cdc_n_read+0x2a>
10005a90:	0030      	movs	r0, r6
10005a92:	f000 fd75 	bl	10006580 <tu_fifo_remaining>
10005a96:	78e9      	ldrb	r1, [r5, #3]
10005a98:	283f      	cmp	r0, #63	@ 0x3f
10005a9a:	d907      	bls.n	10005aac <tud_cdc_n_read+0x74>
10005a9c:	4b07      	ldr	r3, [pc, #28]	@ (10005abc <tud_cdc_n_read+0x84>)
10005a9e:	01e2      	lsls	r2, r4, #7
10005aa0:	18d2      	adds	r2, r2, r3
10005aa2:	2000      	movs	r0, #0
10005aa4:	2340      	movs	r3, #64	@ 0x40
10005aa6:	f7ff fe51 	bl	1000574c <usbd_edpt_xfer>
10005aaa:	e7da      	b.n	10005a62 <tud_cdc_n_read+0x2a>
10005aac:	2000      	movs	r0, #0
10005aae:	f7ff fe39 	bl	10005724 <usbd_edpt_release>
10005ab2:	e7d6      	b.n	10005a62 <tud_cdc_n_read+0x2a>
10005ab4:	20001068 	.word	0x20001068
10005ab8:	0000ffff 	.word	0x0000ffff
10005abc:	200014bc 	.word	0x200014bc

10005ac0 <tud_cdc_n_write_flush>:
10005ac0:	b5f8      	push	{r3, r4, r5, r6, r7, lr}
10005ac2:	0004      	movs	r4, r0
10005ac4:	f7ff f92e 	bl	10004d24 <tud_mounted>
10005ac8:	2800      	cmp	r0, #0
10005aca:	d101      	bne.n	10005ad0 <tud_cdc_n_write_flush+0x10>
10005acc:	2000      	movs	r0, #0
10005ace:	bdf8      	pop	{r3, r4, r5, r6, r7, pc}
10005ad0:	f7ff f930 	bl	10004d34 <tud_suspended>
10005ad4:	2800      	cmp	r0, #0
10005ad6:	d1f9      	bne.n	10005acc <tud_cdc_n_write_flush+0xc>
10005ad8:	23c8      	movs	r3, #200	@ 0xc8
10005ada:	0025      	movs	r5, r4
10005adc:	435d      	muls	r5, r3
10005ade:	002b      	movs	r3, r5
10005ae0:	4e13      	ldr	r6, [pc, #76]	@ (10005b30 <tud_cdc_n_write_flush+0x70>)
10005ae2:	3324      	adds	r3, #36	@ 0x24
10005ae4:	18f7      	adds	r7, r6, r3
10005ae6:	0038      	movs	r0, r7
10005ae8:	f000 fd2c 	bl	10006544 <tu_fifo_count>
10005aec:	2800      	cmp	r0, #0
10005aee:	d0ed      	beq.n	10005acc <tud_cdc_n_write_flush+0xc>
10005af0:	1975      	adds	r5, r6, r5
10005af2:	2000      	movs	r0, #0
10005af4:	78a9      	ldrb	r1, [r5, #2]
10005af6:	f7ff fe01 	bl	100056fc <usbd_edpt_claim>
10005afa:	2800      	cmp	r0, #0
10005afc:	d0e6      	beq.n	10005acc <tud_cdc_n_write_flush+0xc>
10005afe:	4a0d      	ldr	r2, [pc, #52]	@ (10005b34 <tud_cdc_n_write_flush+0x74>)
10005b00:	01e3      	lsls	r3, r4, #7
10005b02:	189c      	adds	r4, r3, r2
10005b04:	0021      	movs	r1, r4
10005b06:	2240      	movs	r2, #64	@ 0x40
10005b08:	0038      	movs	r0, r7
10005b0a:	f000 fd9d 	bl	10006648 <tu_fifo_read_n>
10005b0e:	78a9      	ldrb	r1, [r5, #2]
10005b10:	0003      	movs	r3, r0
10005b12:	1e05      	subs	r5, r0, #0
10005b14:	d007      	beq.n	10005b26 <tud_cdc_n_write_flush+0x66>
10005b16:	0022      	movs	r2, r4
10005b18:	2000      	movs	r0, #0
10005b1a:	f7ff fe17 	bl	1000574c <usbd_edpt_xfer>
10005b1e:	2800      	cmp	r0, #0
10005b20:	d0d4      	beq.n	10005acc <tud_cdc_n_write_flush+0xc>
10005b22:	0028      	movs	r0, r5
10005b24:	e7d3      	b.n	10005ace <tud_cdc_n_write_flush+0xe>
10005b26:	2000      	movs	r0, #0
10005b28:	f7ff fdfc 	bl	10005724 <usbd_edpt_release>
10005b2c:	e7ce      	b.n	10005acc <tud_cdc_n_write_flush+0xc>
10005b2e:	46c0      	nop			@ (mov r8, r8)
10005b30:	20001068 	.word	0x20001068
10005b34:	200014fc 	.word	0x200014fc

10005b38 <tud_cdc_n_write>:
10005b38:	b570      	push	{r4, r5, r6, lr}
10005b3a:	24c8      	movs	r4, #200	@ 0xc8
10005b3c:	4344      	muls	r4, r0
10005b3e:	4b0c      	ldr	r3, [pc, #48]	@ (10005b70 <tud_cdc_n_write+0x38>)
10005b40:	0005      	movs	r5, r0
10005b42:	18e4      	adds	r4, r4, r3
10005b44:	2380      	movs	r3, #128	@ 0x80
10005b46:	025b      	lsls	r3, r3, #9
10005b48:	429a      	cmp	r2, r3
10005b4a:	d300      	bcc.n	10005b4e <tud_cdc_n_write+0x16>
10005b4c:	4a09      	ldr	r2, [pc, #36]	@ (10005b74 <tud_cdc_n_write+0x3c>)
10005b4e:	0020      	movs	r0, r4
10005b50:	b292      	uxth	r2, r2
10005b52:	f000 fe41 	bl	100067d8 <tu_fifo_write_n>
10005b56:	0006      	movs	r6, r0
10005b58:	0020      	movs	r0, r4
10005b5a:	f000 fcf3 	bl	10006544 <tu_fifo_count>
10005b5e:	283f      	cmp	r0, #63	@ 0x3f
10005b60:	d801      	bhi.n	10005b66 <tud_cdc_n_write+0x2e>
10005b62:	0030      	movs	r0, r6
10005b64:	bd70      	pop	{r4, r5, r6, pc}
10005b66:	0028      	movs	r0, r5
10005b68:	f7ff ffaa 	bl	10005ac0 <tud_cdc_n_write_flush>
10005b6c:	e7f9      	b.n	10005b62 <tud_cdc_n_write+0x2a>
10005b6e:	46c0      	nop			@ (mov r8, r8)
10005b70:	2000108c 	.word	0x2000108c
10005b74:	0000ffff 	.word	0x0000ffff

10005b78 <tud_cdc_n_write_available>:
10005b78:	23c8      	movs	r3, #200	@ 0xc8
10005b7a:	b510      	push	{r4, lr}
10005b7c:	4343      	muls	r3, r0
10005b7e:	4802      	ldr	r0, [pc, #8]	@ (10005b88 <tud_cdc_n_write_available+0x10>)
10005b80:	1818      	adds	r0, r3, r0
10005b82:	f000 fcfd 	bl	10006580 <tu_fifo_remaining>
10005b86:	bd10      	pop	{r4, pc}
10005b88:	2000108c 	.word	0x2000108c

10005b8c <cdcd_init>:
10005b8c:	b5f0      	push	{r4, r5, r6, r7, lr}
10005b8e:	2500      	movs	r5, #0
10005b90:	4c18      	ldr	r4, [pc, #96]	@ (10005bf4 <cdcd_init+0x68>)
10005b92:	b083      	sub	sp, #12
10005b94:	22c8      	movs	r2, #200	@ 0xc8
10005b96:	2100      	movs	r1, #0
10005b98:	0020      	movs	r0, r4
10005b9a:	f7fc fd77 	bl	1000268c <__wrap_memset>
10005b9e:	4b16      	ldr	r3, [pc, #88]	@ (10005bf8 <cdcd_init+0x6c>)
10005ba0:	0021      	movs	r1, r4
10005ba2:	701d      	strb	r5, [r3, #0]
10005ba4:	23ff      	movs	r3, #255	@ 0xff
10005ba6:	7163      	strb	r3, [r4, #5]
10005ba8:	23e1      	movs	r3, #225	@ 0xe1
10005baa:	025b      	lsls	r3, r3, #9
10005bac:	60a3      	str	r3, [r4, #8]
10005bae:	0020      	movs	r0, r4
10005bb0:	2308      	movs	r3, #8
10005bb2:	2240      	movs	r2, #64	@ 0x40
10005bb4:	73a3      	strb	r3, [r4, #14]
10005bb6:	3138      	adds	r1, #56	@ 0x38
10005bb8:	9500      	str	r5, [sp, #0]
10005bba:	3b07      	subs	r3, #7
10005bbc:	3010      	adds	r0, #16
10005bbe:	f000 fc8b 	bl	100064d8 <tu_fifo_config>
10005bc2:	0027      	movs	r7, r4
10005bc4:	2301      	movs	r3, #1
10005bc6:	0021      	movs	r1, r4
10005bc8:	0020      	movs	r0, r4
10005bca:	0026      	movs	r6, r4
10005bcc:	2240      	movs	r2, #64	@ 0x40
10005bce:	3178      	adds	r1, #120	@ 0x78
10005bd0:	9300      	str	r3, [sp, #0]
10005bd2:	37b8      	adds	r7, #184	@ 0xb8
10005bd4:	3024      	adds	r0, #36	@ 0x24
10005bd6:	f000 fc7f 	bl	100064d8 <tu_fifo_config>
10005bda:	36c0      	adds	r6, #192	@ 0xc0
10005bdc:	0038      	movs	r0, r7
10005bde:	f7fa ff2b 	bl	10000a38 <mutex_init>
10005be2:	0030      	movs	r0, r6
10005be4:	f7fa ff28 	bl	10000a38 <mutex_init>
10005be8:	61e5      	str	r5, [r4, #28]
10005bea:	6227      	str	r7, [r4, #32]
10005bec:	6326      	str	r6, [r4, #48]	@ 0x30
10005bee:	6365      	str	r5, [r4, #52]	@ 0x34
10005bf0:	b003      	add	sp, #12
10005bf2:	bdf0      	pop	{r4, r5, r6, r7, pc}
10005bf4:	20001068 	.word	0x20001068
10005bf8:	2000153c 	.word	0x2000153c

10005bfc <cdcd_deinit>:
10005bfc:	4b0a      	ldr	r3, [pc, #40]	@ (10005c28 <cdcd_deinit+0x2c>)
10005bfe:	6b19      	ldr	r1, [r3, #48]	@ 0x30
10005c00:	6a1a      	ldr	r2, [r3, #32]
10005c02:	2900      	cmp	r1, #0
10005c04:	d00c      	beq.n	10005c20 <cdcd_deinit+0x24>
10005c06:	2a00      	cmp	r2, #0
10005c08:	d007      	beq.n	10005c1a <cdcd_deinit+0x1e>
10005c0a:	2200      	movs	r2, #0
10005c0c:	61da      	str	r2, [r3, #28]
10005c0e:	635a      	str	r2, [r3, #52]	@ 0x34
10005c10:	631a      	str	r2, [r3, #48]	@ 0x30
10005c12:	2200      	movs	r2, #0
10005c14:	621a      	str	r2, [r3, #32]
10005c16:	2001      	movs	r0, #1
10005c18:	4770      	bx	lr
10005c1a:	635a      	str	r2, [r3, #52]	@ 0x34
10005c1c:	631a      	str	r2, [r3, #48]	@ 0x30
10005c1e:	e7fa      	b.n	10005c16 <cdcd_deinit+0x1a>
10005c20:	2a00      	cmp	r2, #0
10005c22:	d0f8      	beq.n	10005c16 <cdcd_deinit+0x1a>
10005c24:	61d9      	str	r1, [r3, #28]
10005c26:	e7f4      	b.n	10005c12 <cdcd_deinit+0x16>
10005c28:	20001068 	.word	0x20001068

10005c2c <cdcd_reset>:
10005c2c:	b570      	push	{r4, r5, r6, lr}
10005c2e:	2205      	movs	r2, #5
10005c30:	2100      	movs	r1, #0
10005c32:	480d      	ldr	r0, [pc, #52]	@ (10005c68 <cdcd_reset+0x3c>)
10005c34:	f7fc fd2a 	bl	1000268c <__wrap_memset>
10005c38:	4d0c      	ldr	r5, [pc, #48]	@ (10005c6c <cdcd_reset+0x40>)
10005c3a:	782b      	ldrb	r3, [r5, #0]
10005c3c:	07da      	lsls	r2, r3, #31
10005c3e:	d507      	bpl.n	10005c50 <cdcd_reset+0x24>
10005c40:	4c0b      	ldr	r4, [pc, #44]	@ (10005c70 <cdcd_reset+0x44>)
10005c42:	079b      	lsls	r3, r3, #30
10005c44:	d50c      	bpl.n	10005c60 <cdcd_reset+0x34>
10005c46:	2101      	movs	r1, #1
10005c48:	0020      	movs	r0, r4
10005c4a:	f000 fe99 	bl	10006980 <tu_fifo_set_overwritable>
10005c4e:	bd70      	pop	{r4, r5, r6, pc}
10005c50:	4805      	ldr	r0, [pc, #20]	@ (10005c68 <cdcd_reset+0x3c>)
10005c52:	3010      	adds	r0, #16
10005c54:	f000 fe74 	bl	10006940 <tu_fifo_clear>
10005c58:	782b      	ldrb	r3, [r5, #0]
10005c5a:	4c05      	ldr	r4, [pc, #20]	@ (10005c70 <cdcd_reset+0x44>)
10005c5c:	079b      	lsls	r3, r3, #30
10005c5e:	d4f2      	bmi.n	10005c46 <cdcd_reset+0x1a>
10005c60:	0020      	movs	r0, r4
10005c62:	f000 fe6d 	bl	10006940 <tu_fifo_clear>
10005c66:	e7ee      	b.n	10005c46 <cdcd_reset+0x1a>
10005c68:	20001068 	.word	0x20001068
10005c6c:	2000153c 	.word	0x2000153c
10005c70:	2000108c 	.word	0x2000108c

10005c74 <cdcd_open>:
10005c74:	b5f0      	push	{r4, r5, r6, r7, lr}
10005c76:	794b      	ldrb	r3, [r1, #5]
10005c78:	0007      	movs	r7, r0
10005c7a:	b083      	sub	sp, #12
10005c7c:	2b02      	cmp	r3, #2
10005c7e:	d102      	bne.n	10005c86 <cdcd_open+0x12>
10005c80:	798b      	ldrb	r3, [r1, #6]
10005c82:	2b02      	cmp	r3, #2
10005c84:	d003      	beq.n	10005c8e <cdcd_open+0x1a>
10005c86:	2400      	movs	r4, #0
10005c88:	0020      	movs	r0, r4
10005c8a:	b003      	add	sp, #12
10005c8c:	bdf0      	pop	{r4, r5, r6, r7, pc}
10005c8e:	4b21      	ldr	r3, [pc, #132]	@ (10005d14 <cdcd_open+0xa0>)
10005c90:	001e      	movs	r6, r3
10005c92:	789b      	ldrb	r3, [r3, #2]
10005c94:	2b00      	cmp	r3, #0
10005c96:	d1f6      	bne.n	10005c86 <cdcd_open+0x12>
10005c98:	788b      	ldrb	r3, [r1, #2]
10005c9a:	2409      	movs	r4, #9
10005c9c:	7033      	strb	r3, [r6, #0]
10005c9e:	780d      	ldrb	r5, [r1, #0]
10005ca0:	194d      	adds	r5, r1, r5
10005ca2:	786b      	ldrb	r3, [r5, #1]
10005ca4:	2b24      	cmp	r3, #36	@ 0x24
10005ca6:	d007      	beq.n	10005cb8 <cdcd_open+0x44>
10005ca8:	e00c      	b.n	10005cc4 <cdcd_open+0x50>
10005caa:	782b      	ldrb	r3, [r5, #0]
10005cac:	18ed      	adds	r5, r5, r3
10005cae:	191c      	adds	r4, r3, r4
10005cb0:	786b      	ldrb	r3, [r5, #1]
10005cb2:	b2a4      	uxth	r4, r4
10005cb4:	2b24      	cmp	r3, #36	@ 0x24
10005cb6:	d105      	bne.n	10005cc4 <cdcd_open+0x50>
10005cb8:	42a2      	cmp	r2, r4
10005cba:	d2f6      	bcs.n	10005caa <cdcd_open+0x36>
10005cbc:	2000      	movs	r0, #0
10005cbe:	f7ff fe65 	bl	1000598c <_prep_out_transaction.isra.0>
10005cc2:	e7e1      	b.n	10005c88 <cdcd_open+0x14>
10005cc4:	001a      	movs	r2, r3
10005cc6:	2b05      	cmp	r3, #5
10005cc8:	d015      	beq.n	10005cf6 <cdcd_open+0x82>
10005cca:	2a04      	cmp	r2, #4
10005ccc:	d1f6      	bne.n	10005cbc <cdcd_open+0x48>
10005cce:	796b      	ldrb	r3, [r5, #5]
10005cd0:	2b0a      	cmp	r3, #10
10005cd2:	d1f3      	bne.n	10005cbc <cdcd_open+0x48>
10005cd4:	4b10      	ldr	r3, [pc, #64]	@ (10005d18 <cdcd_open+0xa4>)
10005cd6:	782e      	ldrb	r6, [r5, #0]
10005cd8:	9301      	str	r3, [sp, #4]
10005cda:	3301      	adds	r3, #1
10005cdc:	9300      	str	r3, [sp, #0]
10005cde:	0038      	movs	r0, r7
10005ce0:	2302      	movs	r3, #2
10005ce2:	19a9      	adds	r1, r5, r6
10005ce4:	3a02      	subs	r2, #2
10005ce6:	f7ff fca3 	bl	10005630 <usbd_open_edpt_pair>
10005cea:	2800      	cmp	r0, #0
10005cec:	d0cb      	beq.n	10005c86 <cdcd_open+0x12>
10005cee:	340e      	adds	r4, #14
10005cf0:	19a4      	adds	r4, r4, r6
10005cf2:	b2a4      	uxth	r4, r4
10005cf4:	e7e2      	b.n	10005cbc <cdcd_open+0x48>
10005cf6:	0029      	movs	r1, r5
10005cf8:	0038      	movs	r0, r7
10005cfa:	f7ff fce5 	bl	100056c8 <usbd_edpt_open>
10005cfe:	2800      	cmp	r0, #0
10005d00:	d0c1      	beq.n	10005c86 <cdcd_open+0x12>
10005d02:	78ab      	ldrb	r3, [r5, #2]
10005d04:	7073      	strb	r3, [r6, #1]
10005d06:	782b      	ldrb	r3, [r5, #0]
10005d08:	191c      	adds	r4, r3, r4
10005d0a:	18ed      	adds	r5, r5, r3
10005d0c:	786a      	ldrb	r2, [r5, #1]
10005d0e:	b2a4      	uxth	r4, r4
10005d10:	e7db      	b.n	10005cca <cdcd_open+0x56>
10005d12:	46c0      	nop			@ (mov r8, r8)
10005d14:	20001068 	.word	0x20001068
10005d18:	2000106a 	.word	0x2000106a

10005d1c <cdcd_control_xfer_cb>:
10005d1c:	2360      	movs	r3, #96	@ 0x60
10005d1e:	468c      	mov	ip, r1
10005d20:	0011      	movs	r1, r2
10005d22:	7812      	ldrb	r2, [r2, #0]
10005d24:	b570      	push	{r4, r5, r6, lr}
10005d26:	4013      	ands	r3, r2
10005d28:	2200      	movs	r2, #0
10005d2a:	2b20      	cmp	r3, #32
10005d2c:	d108      	bne.n	10005d40 <cdcd_control_xfer_cb+0x24>
10005d2e:	4c32      	ldr	r4, [pc, #200]	@ (10005df8 <cdcd_control_xfer_cb+0xdc>)
10005d30:	794b      	ldrb	r3, [r1, #5]
10005d32:	0026      	movs	r6, r4
10005d34:	790d      	ldrb	r5, [r1, #4]
10005d36:	7824      	ldrb	r4, [r4, #0]
10005d38:	021b      	lsls	r3, r3, #8
10005d3a:	432b      	orrs	r3, r5
10005d3c:	429c      	cmp	r4, r3
10005d3e:	d001      	beq.n	10005d44 <cdcd_control_xfer_cb+0x28>
10005d40:	0010      	movs	r0, r2
10005d42:	bd70      	pop	{r4, r5, r6, pc}
10005d44:	784b      	ldrb	r3, [r1, #1]
10005d46:	2b22      	cmp	r3, #34	@ 0x22
10005d48:	d01c      	beq.n	10005d84 <cdcd_control_xfer_cb+0x68>
10005d4a:	d808      	bhi.n	10005d5e <cdcd_control_xfer_cb+0x42>
10005d4c:	2b20      	cmp	r3, #32
10005d4e:	d039      	beq.n	10005dc4 <cdcd_control_xfer_cb+0xa8>
10005d50:	2b21      	cmp	r3, #33	@ 0x21
10005d52:	d1f5      	bne.n	10005d40 <cdcd_control_xfer_cb+0x24>
10005d54:	4663      	mov	r3, ip
10005d56:	2b01      	cmp	r3, #1
10005d58:	d043      	beq.n	10005de2 <cdcd_control_xfer_cb+0xc6>
10005d5a:	2201      	movs	r2, #1
10005d5c:	e7f0      	b.n	10005d40 <cdcd_control_xfer_cb+0x24>
10005d5e:	2b23      	cmp	r3, #35	@ 0x23
10005d60:	d1ee      	bne.n	10005d40 <cdcd_control_xfer_cb+0x24>
10005d62:	4663      	mov	r3, ip
10005d64:	2b01      	cmp	r3, #1
10005d66:	d042      	beq.n	10005dee <cdcd_control_xfer_cb+0xd2>
10005d68:	2b03      	cmp	r3, #3
10005d6a:	d1f6      	bne.n	10005d5a <cdcd_control_xfer_cb+0x3e>
10005d6c:	4b23      	ldr	r3, [pc, #140]	@ (10005dfc <cdcd_control_xfer_cb+0xe0>)
10005d6e:	2b00      	cmp	r3, #0
10005d70:	d0f3      	beq.n	10005d5a <cdcd_control_xfer_cb+0x3e>
10005d72:	788b      	ldrb	r3, [r1, #2]
10005d74:	78c9      	ldrb	r1, [r1, #3]
10005d76:	2000      	movs	r0, #0
10005d78:	0209      	lsls	r1, r1, #8
10005d7a:	4319      	orrs	r1, r3
10005d7c:	e000      	b.n	10005d80 <cdcd_control_xfer_cb+0x64>
10005d7e:	bf00      	nop
10005d80:	2201      	movs	r2, #1
10005d82:	e7dd      	b.n	10005d40 <cdcd_control_xfer_cb+0x24>
10005d84:	4663      	mov	r3, ip
10005d86:	2b01      	cmp	r3, #1
10005d88:	d031      	beq.n	10005dee <cdcd_control_xfer_cb+0xd2>
10005d8a:	2b03      	cmp	r3, #3
10005d8c:	d1e5      	bne.n	10005d5a <cdcd_control_xfer_cb+0x3e>
10005d8e:	2501      	movs	r5, #1
10005d90:	78cb      	ldrb	r3, [r1, #3]
10005d92:	788a      	ldrb	r2, [r1, #2]
10005d94:	021b      	lsls	r3, r3, #8
10005d96:	4313      	orrs	r3, r2
10005d98:	001c      	movs	r4, r3
10005d9a:	401d      	ands	r5, r3
10005d9c:	0033      	movs	r3, r6
10005d9e:	2101      	movs	r1, #1
10005da0:	3324      	adds	r3, #36	@ 0x24
10005da2:	0018      	movs	r0, r3
10005da4:	4069      	eors	r1, r5
10005da6:	7134      	strb	r4, [r6, #4]
10005da8:	f000 fdea 	bl	10006980 <tu_fifo_set_overwritable>
10005dac:	4b14      	ldr	r3, [pc, #80]	@ (10005e00 <cdcd_control_xfer_cb+0xe4>)
10005dae:	2b00      	cmp	r3, #0
10005db0:	d0d3      	beq.n	10005d5a <cdcd_control_xfer_cb+0x3e>
10005db2:	2301      	movs	r3, #1
10005db4:	0862      	lsrs	r2, r4, #1
10005db6:	401a      	ands	r2, r3
10005db8:	0029      	movs	r1, r5
10005dba:	2000      	movs	r0, #0
10005dbc:	e000      	b.n	10005dc0 <cdcd_control_xfer_cb+0xa4>
10005dbe:	bf00      	nop
10005dc0:	2201      	movs	r2, #1
10005dc2:	e7bd      	b.n	10005d40 <cdcd_control_xfer_cb+0x24>
10005dc4:	4663      	mov	r3, ip
10005dc6:	2b01      	cmp	r3, #1
10005dc8:	d00b      	beq.n	10005de2 <cdcd_control_xfer_cb+0xc6>
10005dca:	2b03      	cmp	r3, #3
10005dcc:	d1c5      	bne.n	10005d5a <cdcd_control_xfer_cb+0x3e>
10005dce:	4b0d      	ldr	r3, [pc, #52]	@ (10005e04 <cdcd_control_xfer_cb+0xe8>)
10005dd0:	2b00      	cmp	r3, #0
10005dd2:	d0c2      	beq.n	10005d5a <cdcd_control_xfer_cb+0x3e>
10005dd4:	0031      	movs	r1, r6
10005dd6:	2000      	movs	r0, #0
10005dd8:	3108      	adds	r1, #8
10005dda:	f7fe fa9d 	bl	10004318 <tud_cdc_line_coding_cb>
10005dde:	2201      	movs	r2, #1
10005de0:	e7ae      	b.n	10005d40 <cdcd_control_xfer_cb+0x24>
10005de2:	4a09      	ldr	r2, [pc, #36]	@ (10005e08 <cdcd_control_xfer_cb+0xec>)
10005de4:	2307      	movs	r3, #7
10005de6:	f7ff fcef 	bl	100057c8 <tud_control_xfer>
10005dea:	2201      	movs	r2, #1
10005dec:	e7a8      	b.n	10005d40 <cdcd_control_xfer_cb+0x24>
10005dee:	f7ff fcd5 	bl	1000579c <tud_control_status>
10005df2:	2201      	movs	r2, #1
10005df4:	e7a4      	b.n	10005d40 <cdcd_control_xfer_cb+0x24>
10005df6:	46c0      	nop			@ (mov r8, r8)
10005df8:	20001068 	.word	0x20001068
	...
10005e04:	10004319 	.word	0x10004319
10005e08:	20001070 	.word	0x20001070

10005e0c <cdcd_xfer_cb>:
10005e0c:	b5f8      	push	{r3, r4, r5, r6, r7, lr}
10005e0e:	4647      	mov	r7, r8
10005e10:	46ce      	mov	lr, r9
10005e12:	b580      	push	{r7, lr}
10005e14:	4c34      	ldr	r4, [pc, #208]	@ (10005ee8 <cdcd_xfer_cb+0xdc>)
10005e16:	001f      	movs	r7, r3
10005e18:	78e3      	ldrb	r3, [r4, #3]
10005e1a:	4680      	mov	r8, r0
10005e1c:	000d      	movs	r5, r1
10005e1e:	428b      	cmp	r3, r1
10005e20:	d03b      	beq.n	10005e9a <cdcd_xfer_cb+0x8e>
10005e22:	78a3      	ldrb	r3, [r4, #2]
10005e24:	2000      	movs	r0, #0
10005e26:	428b      	cmp	r3, r1
10005e28:	d011      	beq.n	10005e4e <cdcd_xfer_cb+0x42>
10005e2a:	bcc0      	pop	{r6, r7}
10005e2c:	46b9      	mov	r9, r7
10005e2e:	46b0      	mov	r8, r6
10005e30:	bdf8      	pop	{r3, r4, r5, r6, r7, pc}
10005e32:	4b2e      	ldr	r3, [pc, #184]	@ (10005eec <cdcd_xfer_cb+0xe0>)
10005e34:	2b00      	cmp	r3, #0
10005e36:	d004      	beq.n	10005e42 <cdcd_xfer_cb+0x36>
10005e38:	482d      	ldr	r0, [pc, #180]	@ (10005ef0 <cdcd_xfer_cb+0xe4>)
10005e3a:	f000 fb99 	bl	10006570 <tu_fifo_empty>
10005e3e:	2800      	cmp	r0, #0
10005e40:	d04f      	beq.n	10005ee2 <cdcd_xfer_cb+0xd6>
10005e42:	2000      	movs	r0, #0
10005e44:	f7ff fda2 	bl	1000598c <_prep_out_transaction.isra.0>
10005e48:	78a3      	ldrb	r3, [r4, #2]
10005e4a:	42ab      	cmp	r3, r5
10005e4c:	d10a      	bne.n	10005e64 <cdcd_xfer_cb+0x58>
10005e4e:	4b29      	ldr	r3, [pc, #164]	@ (10005ef4 <cdcd_xfer_cb+0xe8>)
10005e50:	2b00      	cmp	r3, #0
10005e52:	d002      	beq.n	10005e5a <cdcd_xfer_cb+0x4e>
10005e54:	2000      	movs	r0, #0
10005e56:	e000      	b.n	10005e5a <cdcd_xfer_cb+0x4e>
10005e58:	bf00      	nop
10005e5a:	2000      	movs	r0, #0
10005e5c:	f7ff fe30 	bl	10005ac0 <tud_cdc_n_write_flush>
10005e60:	2800      	cmp	r0, #0
10005e62:	d001      	beq.n	10005e68 <cdcd_xfer_cb+0x5c>
10005e64:	2001      	movs	r0, #1
10005e66:	e7e0      	b.n	10005e2a <cdcd_xfer_cb+0x1e>
10005e68:	4c23      	ldr	r4, [pc, #140]	@ (10005ef8 <cdcd_xfer_cb+0xec>)
10005e6a:	0020      	movs	r0, r4
10005e6c:	f000 fb6a 	bl	10006544 <tu_fifo_count>
10005e70:	2800      	cmp	r0, #0
10005e72:	d1f7      	bne.n	10005e64 <cdcd_xfer_cb+0x58>
10005e74:	2f00      	cmp	r7, #0
10005e76:	d0f5      	beq.n	10005e64 <cdcd_xfer_cb+0x58>
10005e78:	06bb      	lsls	r3, r7, #26
10005e7a:	d1f3      	bne.n	10005e64 <cdcd_xfer_cb+0x58>
10005e7c:	3c24      	subs	r4, #36	@ 0x24
10005e7e:	4640      	mov	r0, r8
10005e80:	78a1      	ldrb	r1, [r4, #2]
10005e82:	f7ff fc3b 	bl	100056fc <usbd_edpt_claim>
10005e86:	2800      	cmp	r0, #0
10005e88:	d0ec      	beq.n	10005e64 <cdcd_xfer_cb+0x58>
10005e8a:	2300      	movs	r3, #0
10005e8c:	2200      	movs	r2, #0
10005e8e:	4640      	mov	r0, r8
10005e90:	78a1      	ldrb	r1, [r4, #2]
10005e92:	f7ff fc5b 	bl	1000574c <usbd_edpt_xfer>
10005e96:	2001      	movs	r0, #1
10005e98:	e7c7      	b.n	10005e2a <cdcd_xfer_cb+0x1e>
10005e9a:	4e18      	ldr	r6, [pc, #96]	@ (10005efc <cdcd_xfer_cb+0xf0>)
10005e9c:	4814      	ldr	r0, [pc, #80]	@ (10005ef0 <cdcd_xfer_cb+0xe4>)
10005e9e:	0031      	movs	r1, r6
10005ea0:	b2ba      	uxth	r2, r7
10005ea2:	f000 fc99 	bl	100067d8 <tu_fifo_write_n>
10005ea6:	4b16      	ldr	r3, [pc, #88]	@ (10005f00 <cdcd_xfer_cb+0xf4>)
10005ea8:	2b00      	cmp	r3, #0
10005eaa:	d0c2      	beq.n	10005e32 <cdcd_xfer_cb+0x26>
10005eac:	7963      	ldrb	r3, [r4, #5]
10005eae:	2bff      	cmp	r3, #255	@ 0xff
10005eb0:	d0bf      	beq.n	10005e32 <cdcd_xfer_cb+0x26>
10005eb2:	2f00      	cmp	r7, #0
10005eb4:	d0bd      	beq.n	10005e32 <cdcd_xfer_cb+0x26>
10005eb6:	46bc      	mov	ip, r7
10005eb8:	44b4      	add	ip, r6
10005eba:	46e1      	mov	r9, ip
10005ebc:	e003      	b.n	10005ec6 <cdcd_xfer_cb+0xba>
10005ebe:	3601      	adds	r6, #1
10005ec0:	454e      	cmp	r6, r9
10005ec2:	d0b6      	beq.n	10005e32 <cdcd_xfer_cb+0x26>
10005ec4:	7963      	ldrb	r3, [r4, #5]
10005ec6:	7832      	ldrb	r2, [r6, #0]
10005ec8:	429a      	cmp	r2, r3
10005eca:	d1f8      	bne.n	10005ebe <cdcd_xfer_cb+0xb2>
10005ecc:	4808      	ldr	r0, [pc, #32]	@ (10005ef0 <cdcd_xfer_cb+0xe4>)
10005ece:	f000 fb4f 	bl	10006570 <tu_fifo_empty>
10005ed2:	2800      	cmp	r0, #0
10005ed4:	d1f3      	bne.n	10005ebe <cdcd_xfer_cb+0xb2>
10005ed6:	4b06      	ldr	r3, [pc, #24]	@ (10005ef0 <cdcd_xfer_cb+0xe4>)
10005ed8:	3b10      	subs	r3, #16
10005eda:	7959      	ldrb	r1, [r3, #5]
10005edc:	e000      	b.n	10005ee0 <cdcd_xfer_cb+0xd4>
10005ede:	bf00      	nop
10005ee0:	e7ed      	b.n	10005ebe <cdcd_xfer_cb+0xb2>
10005ee2:	e000      	b.n	10005ee6 <cdcd_xfer_cb+0xda>
10005ee4:	bf00      	nop
10005ee6:	e7ac      	b.n	10005e42 <cdcd_xfer_cb+0x36>
10005ee8:	20001068 	.word	0x20001068
10005eec:	00000000 	.word	0x00000000
10005ef0:	20001078 	.word	0x20001078
10005ef4:	00000000 	.word	0x00000000
10005ef8:	2000108c 	.word	0x2000108c
10005efc:	200014bc 	.word	0x200014bc
10005f00:	00000000 	.word	0x00000000

10005f04 <vendord_init>:
10005f04:	2293      	movs	r2, #147	@ 0x93
10005f06:	b5f0      	push	{r4, r5, r6, r7, lr}
10005f08:	4c13      	ldr	r4, [pc, #76]	@ (10005f58 <vendord_init+0x54>)
10005f0a:	b085      	sub	sp, #20
10005f0c:	2100      	movs	r1, #0
10005f0e:	0020      	movs	r0, r4
10005f10:	0092      	lsls	r2, r2, #2
10005f12:	f7fc fbbb 	bl	1000268c <__wrap_memset>
10005f16:	0023      	movs	r3, r4
10005f18:	0020      	movs	r0, r4
10005f1a:	2680      	movs	r6, #128	@ 0x80
10005f1c:	2740      	movs	r7, #64	@ 0x40
10005f1e:	4d0f      	ldr	r5, [pc, #60]	@ (10005f5c <vendord_init+0x58>)
10005f20:	334d      	adds	r3, #77	@ 0x4d
10005f22:	0076      	lsls	r6, r6, #1
10005f24:	33ff      	adds	r3, #255	@ 0xff
10005f26:	3029      	adds	r0, #41	@ 0x29
10005f28:	9502      	str	r5, [sp, #8]
10005f2a:	9300      	str	r3, [sp, #0]
10005f2c:	2200      	movs	r2, #0
10005f2e:	2300      	movs	r3, #0
10005f30:	2100      	movs	r1, #0
10005f32:	9703      	str	r7, [sp, #12]
10005f34:	9601      	str	r6, [sp, #4]
10005f36:	30ff      	adds	r0, #255	@ 0xff
10005f38:	f000 f9c4 	bl	100062c4 <tu_edpt_stream_init>
10005f3c:	3540      	adds	r5, #64	@ 0x40
10005f3e:	1d20      	adds	r0, r4, #4
10005f40:	3428      	adds	r4, #40	@ 0x28
10005f42:	2300      	movs	r3, #0
10005f44:	2201      	movs	r2, #1
10005f46:	2100      	movs	r1, #0
10005f48:	9703      	str	r7, [sp, #12]
10005f4a:	9502      	str	r5, [sp, #8]
10005f4c:	9601      	str	r6, [sp, #4]
10005f4e:	9400      	str	r4, [sp, #0]
10005f50:	f000 f9b8 	bl	100062c4 <tu_edpt_stream_init>
10005f54:	b005      	add	sp, #20
10005f56:	bdf0      	pop	{r4, r5, r6, r7, pc}
10005f58:	2000173c 	.word	0x2000173c
10005f5c:	200016bc 	.word	0x200016bc

10005f60 <vendord_deinit>:
10005f60:	b510      	push	{r4, lr}
10005f62:	4c05      	ldr	r4, [pc, #20]	@ (10005f78 <vendord_deinit+0x18>)
10005f64:	0020      	movs	r0, r4
10005f66:	f000 f9e1 	bl	1000632c <tu_edpt_stream_deinit>
10005f6a:	0020      	movs	r0, r4
10005f6c:	3825      	subs	r0, #37	@ 0x25
10005f6e:	38ff      	subs	r0, #255	@ 0xff
10005f70:	f000 f9dc 	bl	1000632c <tu_edpt_stream_deinit>
10005f74:	2001      	movs	r0, #1
10005f76:	bd10      	pop	{r4, pc}
10005f78:	20001864 	.word	0x20001864

10005f7c <vendord_reset>:
10005f7c:	b570      	push	{r4, r5, r6, lr}
10005f7e:	4c08      	ldr	r4, [pc, #32]	@ (10005fa0 <vendord_reset+0x24>)
10005f80:	2500      	movs	r5, #0
10005f82:	0020      	movs	r0, r4
10005f84:	3031      	adds	r0, #49	@ 0x31
10005f86:	30ff      	adds	r0, #255	@ 0xff
10005f88:	7025      	strb	r5, [r4, #0]
10005f8a:	f000 fcd9 	bl	10006940 <tu_fifo_clear>
10005f8e:	0020      	movs	r0, r4
10005f90:	300c      	adds	r0, #12
10005f92:	f000 fcd5 	bl	10006940 <tu_fifo_clear>
10005f96:	232a      	movs	r3, #42	@ 0x2a
10005f98:	33ff      	adds	r3, #255	@ 0xff
10005f9a:	54e5      	strb	r5, [r4, r3]
10005f9c:	7165      	strb	r5, [r4, #5]
10005f9e:	bd70      	pop	{r4, r5, r6, pc}
10005fa0:	2000173c 	.word	0x2000173c

10005fa4 <vendord_open>:
10005fa4:	b5f8      	push	{r3, r4, r5, r6, r7, lr}
10005fa6:	46ce      	mov	lr, r9
10005fa8:	4647      	mov	r7, r8
10005faa:	b580      	push	{r7, lr}
10005fac:	794b      	ldrb	r3, [r1, #5]
10005fae:	4680      	mov	r8, r0
10005fb0:	4689      	mov	r9, r1
10005fb2:	2bff      	cmp	r3, #255	@ 0xff
10005fb4:	d106      	bne.n	10005fc4 <vendord_open+0x20>
10005fb6:	232a      	movs	r3, #42	@ 0x2a
10005fb8:	4f37      	ldr	r7, [pc, #220]	@ (10006098 <vendord_open+0xf4>)
10005fba:	33ff      	adds	r3, #255	@ 0xff
10005fbc:	797e      	ldrb	r6, [r7, #5]
10005fbe:	5cfb      	ldrb	r3, [r7, r3]
10005fc0:	431e      	orrs	r6, r3
10005fc2:	d004      	beq.n	10005fce <vendord_open+0x2a>
10005fc4:	2000      	movs	r0, #0
10005fc6:	bcc0      	pop	{r6, r7}
10005fc8:	46b9      	mov	r9, r7
10005fca:	46b0      	mov	r8, r6
10005fcc:	bdf8      	pop	{r3, r4, r5, r6, r7, pc}
10005fce:	788b      	ldrb	r3, [r1, #2]
10005fd0:	780c      	ldrb	r4, [r1, #0]
10005fd2:	703b      	strb	r3, [r7, #0]
10005fd4:	790b      	ldrb	r3, [r1, #4]
10005fd6:	190c      	adds	r4, r1, r4
10005fd8:	2b00      	cmp	r3, #0
10005fda:	d03c      	beq.n	10006056 <vendord_open+0xb2>
10005fdc:	18a5      	adds	r5, r4, r2
10005fde:	e003      	b.n	10005fe8 <vendord_open+0x44>
10005fe0:	42ac      	cmp	r4, r5
10005fe2:	d238      	bcs.n	10006056 <vendord_open+0xb2>
10005fe4:	7823      	ldrb	r3, [r4, #0]
10005fe6:	18e4      	adds	r4, r4, r3
10005fe8:	7863      	ldrb	r3, [r4, #1]
10005fea:	2b05      	cmp	r3, #5
10005fec:	d1f8      	bne.n	10005fe0 <vendord_open+0x3c>
10005fee:	42ac      	cmp	r4, r5
10005ff0:	d231      	bcs.n	10006056 <vendord_open+0xb2>
10005ff2:	0021      	movs	r1, r4
10005ff4:	4640      	mov	r0, r8
10005ff6:	f7ff fb67 	bl	100056c8 <usbd_edpt_open>
10005ffa:	2800      	cmp	r0, #0
10005ffc:	d0e2      	beq.n	10005fc4 <vendord_open+0x20>
10005ffe:	78a3      	ldrb	r3, [r4, #2]
10006000:	09db      	lsrs	r3, r3, #7
10006002:	2b01      	cmp	r3, #1
10006004:	d02b      	beq.n	1000605e <vendord_open+0xba>
10006006:	4825      	ldr	r0, [pc, #148]	@ (1000609c <vendord_open+0xf8>)
10006008:	f000 fc9a 	bl	10006940 <tu_fifo_clear>
1000600c:	232a      	movs	r3, #42	@ 0x2a
1000600e:	78a2      	ldrb	r2, [r4, #2]
10006010:	33ff      	adds	r3, #255	@ 0xff
10006012:	54fa      	strb	r2, [r7, r3]
10006014:	7963      	ldrb	r3, [r4, #5]
10006016:	7922      	ldrb	r2, [r4, #4]
10006018:	021b      	lsls	r3, r3, #8
1000601a:	4313      	orrs	r3, r2
1000601c:	2194      	movs	r1, #148	@ 0x94
1000601e:	4a20      	ldr	r2, [pc, #128]	@ (100060a0 <vendord_open+0xfc>)
10006020:	055b      	lsls	r3, r3, #21
10006022:	0d5b      	lsrs	r3, r3, #21
10006024:	189b      	adds	r3, r3, r2
10006026:	425a      	negs	r2, r3
10006028:	4153      	adcs	r3, r2
1000602a:	2002      	movs	r0, #2
1000602c:	0049      	lsls	r1, r1, #1
1000602e:	5c7a      	ldrb	r2, [r7, r1]
10006030:	005b      	lsls	r3, r3, #1
10006032:	4382      	bics	r2, r0
10006034:	4313      	orrs	r3, r2
10006036:	547b      	strb	r3, [r7, r1]
10006038:	4918      	ldr	r1, [pc, #96]	@ (1000609c <vendord_open+0xf8>)
1000603a:	4640      	mov	r0, r8
1000603c:	3908      	subs	r1, #8
1000603e:	f000 f9df 	bl	10006400 <tu_edpt_stream_read_xfer>
10006042:	2800      	cmp	r0, #0
10006044:	d0be      	beq.n	10005fc4 <vendord_open+0x20>
10006046:	7823      	ldrb	r3, [r4, #0]
10006048:	3601      	adds	r6, #1
1000604a:	18e4      	adds	r4, r4, r3
1000604c:	464b      	mov	r3, r9
1000604e:	791b      	ldrb	r3, [r3, #4]
10006050:	b2f6      	uxtb	r6, r6
10006052:	42b3      	cmp	r3, r6
10006054:	d8c8      	bhi.n	10005fe8 <vendord_open+0x44>
10006056:	464b      	mov	r3, r9
10006058:	1ae0      	subs	r0, r4, r3
1000605a:	b280      	uxth	r0, r0
1000605c:	e7b3      	b.n	10005fc6 <vendord_open+0x22>
1000605e:	4811      	ldr	r0, [pc, #68]	@ (100060a4 <vendord_open+0x100>)
10006060:	f000 fc6e 	bl	10006940 <tu_fifo_clear>
10006064:	4a0f      	ldr	r2, [pc, #60]	@ (100060a4 <vendord_open+0x100>)
10006066:	78a3      	ldrb	r3, [r4, #2]
10006068:	3a0c      	subs	r2, #12
1000606a:	7153      	strb	r3, [r2, #5]
1000606c:	7963      	ldrb	r3, [r4, #5]
1000606e:	7921      	ldrb	r1, [r4, #4]
10006070:	021b      	lsls	r3, r3, #8
10006072:	430b      	orrs	r3, r1
10006074:	055b      	lsls	r3, r3, #21
10006076:	490a      	ldr	r1, [pc, #40]	@ (100060a0 <vendord_open+0xfc>)
10006078:	0d5b      	lsrs	r3, r3, #21
1000607a:	185b      	adds	r3, r3, r1
1000607c:	4259      	negs	r1, r3
1000607e:	414b      	adcs	r3, r1
10006080:	2002      	movs	r0, #2
10006082:	7911      	ldrb	r1, [r2, #4]
10006084:	005b      	lsls	r3, r3, #1
10006086:	4381      	bics	r1, r0
10006088:	430b      	orrs	r3, r1
1000608a:	4906      	ldr	r1, [pc, #24]	@ (100060a4 <vendord_open+0x100>)
1000608c:	2000      	movs	r0, #0
1000608e:	3908      	subs	r1, #8
10006090:	7113      	strb	r3, [r2, #4]
10006092:	f000 f97f 	bl	10006394 <tu_edpt_stream_write_xfer>
10006096:	e7d6      	b.n	10006046 <vendord_open+0xa2>
10006098:	2000173c 	.word	0x2000173c
1000609c:	2000186c 	.word	0x2000186c
100060a0:	fffffe00 	.word	0xfffffe00
100060a4:	20001748 	.word	0x20001748

100060a8 <vendord_xfer_cb>:
100060a8:	b570      	push	{r4, r5, r6, lr}
100060aa:	001d      	movs	r5, r3
100060ac:	232a      	movs	r3, #42	@ 0x2a
100060ae:	0004      	movs	r4, r0
100060b0:	481f      	ldr	r0, [pc, #124]	@ (10006130 <vendord_xfer_cb+0x88>)
100060b2:	33ff      	adds	r3, #255	@ 0xff
100060b4:	5cc3      	ldrb	r3, [r0, r3]
100060b6:	428b      	cmp	r3, r1
100060b8:	d016      	beq.n	100060e8 <vendord_xfer_cb+0x40>
100060ba:	7940      	ldrb	r0, [r0, #5]
100060bc:	4288      	cmp	r0, r1
100060be:	d001      	beq.n	100060c4 <vendord_xfer_cb+0x1c>
100060c0:	2000      	movs	r0, #0
100060c2:	bd70      	pop	{r4, r5, r6, pc}
100060c4:	4b1b      	ldr	r3, [pc, #108]	@ (10006134 <vendord_xfer_cb+0x8c>)
100060c6:	2b00      	cmp	r3, #0
100060c8:	d004      	beq.n	100060d4 <vendord_xfer_cb+0x2c>
100060ca:	0429      	lsls	r1, r5, #16
100060cc:	2000      	movs	r0, #0
100060ce:	0c09      	lsrs	r1, r1, #16
100060d0:	e000      	b.n	100060d4 <vendord_xfer_cb+0x2c>
100060d2:	bf00      	nop
100060d4:	4b18      	ldr	r3, [pc, #96]	@ (10006138 <vendord_xfer_cb+0x90>)
100060d6:	0020      	movs	r0, r4
100060d8:	0019      	movs	r1, r3
100060da:	001e      	movs	r6, r3
100060dc:	f000 f95a 	bl	10006394 <tu_edpt_stream_write_xfer>
100060e0:	2800      	cmp	r0, #0
100060e2:	d01d      	beq.n	10006120 <vendord_xfer_cb+0x78>
100060e4:	2001      	movs	r0, #1
100060e6:	e7ec      	b.n	100060c2 <vendord_xfer_cb+0x1a>
100060e8:	239a      	movs	r3, #154	@ 0x9a
100060ea:	005b      	lsls	r3, r3, #1
100060ec:	5ac3      	ldrh	r3, [r0, r3]
100060ee:	2b00      	cmp	r3, #0
100060f0:	d10d      	bne.n	1000610e <vendord_xfer_cb+0x66>
100060f2:	4b12      	ldr	r3, [pc, #72]	@ (1000613c <vendord_xfer_cb+0x94>)
100060f4:	2b00      	cmp	r3, #0
100060f6:	d004      	beq.n	10006102 <vendord_xfer_cb+0x5a>
100060f8:	2000      	movs	r0, #0
100060fa:	4911      	ldr	r1, [pc, #68]	@ (10006140 <vendord_xfer_cb+0x98>)
100060fc:	b2aa      	uxth	r2, r5
100060fe:	e000      	b.n	10006102 <vendord_xfer_cb+0x5a>
10006100:	bf00      	nop
10006102:	0020      	movs	r0, r4
10006104:	490f      	ldr	r1, [pc, #60]	@ (10006144 <vendord_xfer_cb+0x9c>)
10006106:	f000 f97b 	bl	10006400 <tu_edpt_stream_read_xfer>
1000610a:	2001      	movs	r0, #1
1000610c:	e7d9      	b.n	100060c2 <vendord_xfer_cb+0x1a>
1000610e:	2396      	movs	r3, #150	@ 0x96
10006110:	005b      	lsls	r3, r3, #1
10006112:	58c1      	ldr	r1, [r0, r3]
10006114:	3031      	adds	r0, #49	@ 0x31
10006116:	b2aa      	uxth	r2, r5
10006118:	30ff      	adds	r0, #255	@ 0xff
1000611a:	f000 fb5d 	bl	100067d8 <tu_fifo_write_n>
1000611e:	e7e8      	b.n	100060f2 <vendord_xfer_cb+0x4a>
10006120:	002a      	movs	r2, r5
10006122:	0031      	movs	r1, r6
10006124:	0020      	movs	r0, r4
10006126:	f000 f903 	bl	10006330 <tu_edpt_stream_write_zlp_if_needed>
1000612a:	2001      	movs	r0, #1
1000612c:	e7c9      	b.n	100060c2 <vendord_xfer_cb+0x1a>
1000612e:	46c0      	nop			@ (mov r8, r8)
10006130:	2000173c 	.word	0x2000173c
10006134:	00000000 	.word	0x00000000
10006138:	20001740 	.word	0x20001740
1000613c:	00000000 	.word	0x00000000
10006140:	200016bc 	.word	0x200016bc
10006144:	20001864 	.word	0x20001864

10006148 <tusb_rhport_init>:
10006148:	b500      	push	{lr}
1000614a:	0003      	movs	r3, r0
1000614c:	b083      	sub	sp, #12
1000614e:	2900      	cmp	r1, #0
10006150:	d010      	beq.n	10006174 <tusb_rhport_init+0x2c>
10006152:	2000      	movs	r0, #0
10006154:	2b01      	cmp	r3, #1
10006156:	d807      	bhi.n	10006168 <tusb_rhport_init+0x20>
10006158:	780a      	ldrb	r2, [r1, #0]
1000615a:	2a00      	cmp	r2, #0
1000615c:	d004      	beq.n	10006168 <tusb_rhport_init+0x20>
1000615e:	480c      	ldr	r0, [pc, #48]	@ (10006190 <tusb_rhport_init+0x48>)
10006160:	54c2      	strb	r2, [r0, r3]
10006162:	2001      	movs	r0, #1
10006164:	2a01      	cmp	r2, #1
10006166:	d001      	beq.n	1000616c <tusb_rhport_init+0x24>
10006168:	b003      	add	sp, #12
1000616a:	bd00      	pop	{pc}
1000616c:	0018      	movs	r0, r3
1000616e:	f7fe fde9 	bl	10004d44 <tud_rhport_init>
10006172:	e7f9      	b.n	10006168 <tusb_rhport_init+0x20>
10006174:	2301      	movs	r3, #1
10006176:	466a      	mov	r2, sp
10006178:	2000      	movs	r0, #0
1000617a:	a901      	add	r1, sp, #4
1000617c:	8093      	strh	r3, [r2, #4]
1000617e:	f7fe fde1 	bl	10004d44 <tud_rhport_init>
10006182:	2800      	cmp	r0, #0
10006184:	d0f0      	beq.n	10006168 <tusb_rhport_init+0x20>
10006186:	2201      	movs	r2, #1
10006188:	4b01      	ldr	r3, [pc, #4]	@ (10006190 <tusb_rhport_init+0x48>)
1000618a:	701a      	strb	r2, [r3, #0]
1000618c:	e7ec      	b.n	10006168 <tusb_rhport_init+0x20>
1000618e:	46c0      	nop			@ (mov r8, r8)
10006190:	20001594 	.word	0x20001594

10006194 <tu_edpt_claim>:
10006194:	b570      	push	{r4, r5, r6, lr}
10006196:	0004      	movs	r4, r0
10006198:	7823      	ldrb	r3, [r4, #0]
1000619a:	0008      	movs	r0, r1
1000619c:	07db      	lsls	r3, r3, #31
1000619e:	000e      	movs	r6, r1
100061a0:	0fdd      	lsrs	r5, r3, #31
100061a2:	2b00      	cmp	r3, #0
100061a4:	d116      	bne.n	100061d4 <tu_edpt_claim+0x40>
100061a6:	7823      	ldrb	r3, [r4, #0]
100061a8:	075b      	lsls	r3, r3, #29
100061aa:	d501      	bpl.n	100061b0 <tu_edpt_claim+0x1c>
100061ac:	0028      	movs	r0, r5
100061ae:	bd70      	pop	{r4, r5, r6, pc}
100061b0:	2101      	movs	r1, #1
100061b2:	4249      	negs	r1, r1
100061b4:	f000 fdc0 	bl	10006d38 <__mutex_enter_timeout_ms_veneer>
100061b8:	7823      	ldrb	r3, [r4, #0]
100061ba:	07db      	lsls	r3, r3, #31
100061bc:	0fdd      	lsrs	r5, r3, #31
100061be:	2b00      	cmp	r3, #0
100061c0:	d10a      	bne.n	100061d8 <tu_edpt_claim+0x44>
100061c2:	7823      	ldrb	r3, [r4, #0]
100061c4:	075b      	lsls	r3, r3, #29
100061c6:	d408      	bmi.n	100061da <tu_edpt_claim+0x46>
100061c8:	2204      	movs	r2, #4
100061ca:	7823      	ldrb	r3, [r4, #0]
100061cc:	2501      	movs	r5, #1
100061ce:	4313      	orrs	r3, r2
100061d0:	7023      	strb	r3, [r4, #0]
100061d2:	e002      	b.n	100061da <tu_edpt_claim+0x46>
100061d4:	2500      	movs	r5, #0
100061d6:	e7e9      	b.n	100061ac <tu_edpt_claim+0x18>
100061d8:	2500      	movs	r5, #0
100061da:	0030      	movs	r0, r6
100061dc:	f000 fd84 	bl	10006ce8 <__mutex_exit_veneer>
100061e0:	e7e4      	b.n	100061ac <tu_edpt_claim+0x18>
100061e2:	46c0      	nop			@ (mov r8, r8)

100061e4 <tu_edpt_release>:
100061e4:	b570      	push	{r4, r5, r6, lr}
100061e6:	000d      	movs	r5, r1
100061e8:	2101      	movs	r1, #1
100061ea:	0004      	movs	r4, r0
100061ec:	4249      	negs	r1, r1
100061ee:	0028      	movs	r0, r5
100061f0:	f000 fda2 	bl	10006d38 <__mutex_enter_timeout_ms_veneer>
100061f4:	7823      	ldrb	r3, [r4, #0]
100061f6:	075b      	lsls	r3, r3, #29
100061f8:	0fde      	lsrs	r6, r3, #31
100061fa:	2b00      	cmp	r3, #0
100061fc:	db04      	blt.n	10006208 <tu_edpt_release+0x24>
100061fe:	0028      	movs	r0, r5
10006200:	f000 fd72 	bl	10006ce8 <__mutex_exit_veneer>
10006204:	0030      	movs	r0, r6
10006206:	bd70      	pop	{r4, r5, r6, pc}
10006208:	7823      	ldrb	r3, [r4, #0]
1000620a:	07db      	lsls	r3, r3, #31
1000620c:	d404      	bmi.n	10006218 <tu_edpt_release+0x34>
1000620e:	2204      	movs	r2, #4
10006210:	7823      	ldrb	r3, [r4, #0]
10006212:	4393      	bics	r3, r2
10006214:	7023      	strb	r3, [r4, #0]
10006216:	e7f2      	b.n	100061fe <tu_edpt_release+0x1a>
10006218:	2600      	movs	r6, #0
1000621a:	e7f0      	b.n	100061fe <tu_edpt_release+0x1a>

1000621c <tu_edpt_validate>:
1000621c:	7943      	ldrb	r3, [r0, #5]
1000621e:	7902      	ldrb	r2, [r0, #4]
10006220:	021b      	lsls	r3, r3, #8
10006222:	4313      	orrs	r3, r2
10006224:	78c2      	ldrb	r2, [r0, #3]
10006226:	055b      	lsls	r3, r3, #21
10006228:	0792      	lsls	r2, r2, #30
1000622a:	0d5b      	lsrs	r3, r3, #21
1000622c:	0f92      	lsrs	r2, r2, #30
1000622e:	2a02      	cmp	r2, #2
10006230:	d01a      	beq.n	10006268 <tu_edpt_validate+0x4c>
10006232:	2a03      	cmp	r2, #3
10006234:	d00b      	beq.n	1000624e <tu_edpt_validate+0x32>
10006236:	2000      	movs	r0, #0
10006238:	2a01      	cmp	r2, #1
1000623a:	d107      	bne.n	1000624c <tu_edpt_validate+0x30>
1000623c:	3902      	subs	r1, #2
1000623e:	424a      	negs	r2, r1
10006240:	4151      	adcs	r1, r2
10006242:	4a10      	ldr	r2, [pc, #64]	@ (10006284 <tu_edpt_validate+0x68>)
10006244:	1889      	adds	r1, r1, r2
10006246:	4299      	cmp	r1, r3
10006248:	4140      	adcs	r0, r0
1000624a:	b2c0      	uxtb	r0, r0
1000624c:	4770      	bx	lr
1000624e:	3902      	subs	r1, #2
10006250:	1e4a      	subs	r2, r1, #1
10006252:	4191      	sbcs	r1, r2
10006254:	4a0c      	ldr	r2, [pc, #48]	@ (10006288 <tu_edpt_validate+0x6c>)
10006256:	4249      	negs	r1, r1
10006258:	4011      	ands	r1, r2
1000625a:	2280      	movs	r2, #128	@ 0x80
1000625c:	2000      	movs	r0, #0
1000625e:	00d2      	lsls	r2, r2, #3
10006260:	1889      	adds	r1, r1, r2
10006262:	4299      	cmp	r1, r3
10006264:	4140      	adcs	r0, r0
10006266:	e7f1      	b.n	1000624c <tu_edpt_validate+0x30>
10006268:	2902      	cmp	r1, #2
1000626a:	d004      	beq.n	10006276 <tu_edpt_validate+0x5a>
1000626c:	2000      	movs	r0, #0
1000626e:	2240      	movs	r2, #64	@ 0x40
10006270:	429a      	cmp	r2, r3
10006272:	4140      	adcs	r0, r0
10006274:	e7ea      	b.n	1000624c <tu_edpt_validate+0x30>
10006276:	4a05      	ldr	r2, [pc, #20]	@ (1000628c <tu_edpt_validate+0x70>)
10006278:	1898      	adds	r0, r3, r2
1000627a:	4243      	negs	r3, r0
1000627c:	4158      	adcs	r0, r3
1000627e:	b2c0      	uxtb	r0, r0
10006280:	e7e4      	b.n	1000624c <tu_edpt_validate+0x30>
10006282:	46c0      	nop			@ (mov r8, r8)
10006284:	000003ff 	.word	0x000003ff
10006288:	fffffc40 	.word	0xfffffc40
1000628c:	fffffe00 	.word	0xfffffe00

10006290 <tu_edpt_bind_driver>:
10006290:	4684      	mov	ip, r0
10006292:	1888      	adds	r0, r1, r2
10006294:	b530      	push	{r4, r5, lr}
10006296:	001c      	movs	r4, r3
10006298:	4281      	cmp	r1, r0
1000629a:	d206      	bcs.n	100062aa <tu_edpt_bind_driver+0x1a>
1000629c:	784a      	ldrb	r2, [r1, #1]
1000629e:	2a05      	cmp	r2, #5
100062a0:	d004      	beq.n	100062ac <tu_edpt_bind_driver+0x1c>
100062a2:	780a      	ldrb	r2, [r1, #0]
100062a4:	1889      	adds	r1, r1, r2
100062a6:	4288      	cmp	r0, r1
100062a8:	d8f8      	bhi.n	1000629c <tu_edpt_bind_driver+0xc>
100062aa:	bd30      	pop	{r4, r5, pc}
100062ac:	227f      	movs	r2, #127	@ 0x7f
100062ae:	788b      	ldrb	r3, [r1, #2]
100062b0:	401a      	ands	r2, r3
100062b2:	0052      	lsls	r2, r2, #1
100062b4:	4462      	add	r2, ip
100062b6:	09db      	lsrs	r3, r3, #7
100062b8:	54d4      	strb	r4, [r2, r3]
100062ba:	780a      	ldrb	r2, [r1, #0]
100062bc:	1889      	adds	r1, r1, r2
100062be:	4288      	cmp	r0, r1
100062c0:	d8ec      	bhi.n	1000629c <tu_edpt_bind_driver+0xc>
100062c2:	e7f2      	b.n	100062aa <tu_edpt_bind_driver+0x1a>

100062c4 <tu_edpt_stream_init>:
100062c4:	b5f0      	push	{r4, r5, r6, r7, lr}
100062c6:	46c6      	mov	lr, r8
100062c8:	b500      	push	{lr}
100062ca:	b082      	sub	sp, #8
100062cc:	4690      	mov	r8, r2
100062ce:	aa08      	add	r2, sp, #32
100062d0:	ca20      	ldmia	r2!, {r5}
100062d2:	0004      	movs	r4, r0
100062d4:	8816      	ldrh	r6, [r2, #0]
100062d6:	466a      	mov	r2, sp
100062d8:	2001      	movs	r0, #1
100062da:	8d97      	ldrh	r7, [r2, #44]	@ 0x2c
100062dc:	000a      	movs	r2, r1
100062de:	7821      	ldrb	r1, [r4, #0]
100062e0:	4002      	ands	r2, r0
100062e2:	4381      	bics	r1, r0
100062e4:	0020      	movs	r0, r4
100062e6:	4311      	orrs	r1, r2
100062e8:	7021      	strb	r1, [r4, #0]
100062ea:	0032      	movs	r2, r6
100062ec:	9300      	str	r3, [sp, #0]
100062ee:	0029      	movs	r1, r5
100062f0:	2301      	movs	r3, #1
100062f2:	3008      	adds	r0, #8
100062f4:	f000 f8f0 	bl	100064d8 <tu_fifo_config>
100062f8:	2d00      	cmp	r5, #0
100062fa:	d001      	beq.n	10006300 <tu_edpt_stream_init+0x3c>
100062fc:	2e00      	cmp	r6, #0
100062fe:	d107      	bne.n	10006310 <tu_edpt_stream_init+0x4c>
10006300:	2001      	movs	r0, #1
10006302:	9b0a      	ldr	r3, [sp, #40]	@ 0x28
10006304:	8067      	strh	r7, [r4, #2]
10006306:	6063      	str	r3, [r4, #4]
10006308:	b002      	add	sp, #8
1000630a:	bc80      	pop	{r7}
1000630c:	46b8      	mov	r8, r7
1000630e:	bdf0      	pop	{r4, r5, r6, r7, pc}
10006310:	0025      	movs	r5, r4
10006312:	351c      	adds	r5, #28
10006314:	0028      	movs	r0, r5
10006316:	f7fa fb8f 	bl	10000a38 <mutex_init>
1000631a:	4642      	mov	r2, r8
1000631c:	2300      	movs	r3, #0
1000631e:	2a00      	cmp	r2, #0
10006320:	d001      	beq.n	10006326 <tu_edpt_stream_init+0x62>
10006322:	002b      	movs	r3, r5
10006324:	2500      	movs	r5, #0
10006326:	6163      	str	r3, [r4, #20]
10006328:	61a5      	str	r5, [r4, #24]
1000632a:	e7e9      	b.n	10006300 <tu_edpt_stream_init+0x3c>

1000632c <tu_edpt_stream_deinit>:
1000632c:	2001      	movs	r0, #1
1000632e:	4770      	bx	lr

10006330 <tu_edpt_stream_write_zlp_if_needed>:
10006330:	b5f8      	push	{r3, r4, r5, r6, r7, lr}
10006332:	2402      	movs	r4, #2
10006334:	780b      	ldrb	r3, [r1, #0]
10006336:	0007      	movs	r7, r0
10006338:	401c      	ands	r4, r3
1000633a:	4263      	negs	r3, r4
1000633c:	415c      	adcs	r4, r3
1000633e:	0008      	movs	r0, r1
10006340:	4b12      	ldr	r3, [pc, #72]	@ (1000638c <tu_edpt_stream_write_zlp_if_needed+0x5c>)
10006342:	4264      	negs	r4, r4
10006344:	401c      	ands	r4, r3
10006346:	4b12      	ldr	r3, [pc, #72]	@ (10006390 <tu_edpt_stream_write_zlp_if_needed+0x60>)
10006348:	3008      	adds	r0, #8
1000634a:	000d      	movs	r5, r1
1000634c:	0016      	movs	r6, r2
1000634e:	18e4      	adds	r4, r4, r3
10006350:	f000 f8f8 	bl	10006544 <tu_fifo_count>
10006354:	2800      	cmp	r0, #0
10006356:	d107      	bne.n	10006368 <tu_edpt_stream_write_zlp_if_needed+0x38>
10006358:	2e00      	cmp	r6, #0
1000635a:	d005      	beq.n	10006368 <tu_edpt_stream_write_zlp_if_needed+0x38>
1000635c:	4234      	tst	r4, r6
1000635e:	d103      	bne.n	10006368 <tu_edpt_stream_write_zlp_if_needed+0x38>
10006360:	2401      	movs	r4, #1
10006362:	782b      	ldrb	r3, [r5, #0]
10006364:	421c      	tst	r4, r3
10006366:	d001      	beq.n	1000636c <tu_edpt_stream_write_zlp_if_needed+0x3c>
10006368:	2000      	movs	r0, #0
1000636a:	bdf8      	pop	{r3, r4, r5, r6, r7, pc}
1000636c:	0038      	movs	r0, r7
1000636e:	7869      	ldrb	r1, [r5, #1]
10006370:	f7ff f9c4 	bl	100056fc <usbd_edpt_claim>
10006374:	2800      	cmp	r0, #0
10006376:	d0f7      	beq.n	10006368 <tu_edpt_stream_write_zlp_if_needed+0x38>
10006378:	782b      	ldrb	r3, [r5, #0]
1000637a:	421c      	tst	r4, r3
1000637c:	d1f4      	bne.n	10006368 <tu_edpt_stream_write_zlp_if_needed+0x38>
1000637e:	2300      	movs	r3, #0
10006380:	2200      	movs	r2, #0
10006382:	0038      	movs	r0, r7
10006384:	7869      	ldrb	r1, [r5, #1]
10006386:	f7ff f9e1 	bl	1000574c <usbd_edpt_xfer>
1000638a:	e7ee      	b.n	1000636a <tu_edpt_stream_write_zlp_if_needed+0x3a>
1000638c:	fffffe40 	.word	0xfffffe40
10006390:	000001ff 	.word	0x000001ff

10006394 <tu_edpt_stream_write_xfer>:
10006394:	2308      	movs	r3, #8
10006396:	469c      	mov	ip, r3
10006398:	448c      	add	ip, r1
1000639a:	b570      	push	{r4, r5, r6, lr}
1000639c:	0005      	movs	r5, r0
1000639e:	4660      	mov	r0, ip
100063a0:	000c      	movs	r4, r1
100063a2:	4666      	mov	r6, ip
100063a4:	f000 f8ce 	bl	10006544 <tu_fifo_count>
100063a8:	2800      	cmp	r0, #0
100063aa:	d003      	beq.n	100063b4 <tu_edpt_stream_write_xfer+0x20>
100063ac:	2201      	movs	r2, #1
100063ae:	7823      	ldrb	r3, [r4, #0]
100063b0:	421a      	tst	r2, r3
100063b2:	d001      	beq.n	100063b8 <tu_edpt_stream_write_xfer+0x24>
100063b4:	2000      	movs	r0, #0
100063b6:	bd70      	pop	{r4, r5, r6, pc}
100063b8:	0028      	movs	r0, r5
100063ba:	7861      	ldrb	r1, [r4, #1]
100063bc:	f7ff f99e 	bl	100056fc <usbd_edpt_claim>
100063c0:	2800      	cmp	r0, #0
100063c2:	d0f7      	beq.n	100063b4 <tu_edpt_stream_write_xfer+0x20>
100063c4:	8862      	ldrh	r2, [r4, #2]
100063c6:	0030      	movs	r0, r6
100063c8:	6861      	ldr	r1, [r4, #4]
100063ca:	f000 f93d 	bl	10006648 <tu_fifo_read_n>
100063ce:	2201      	movs	r2, #1
100063d0:	7823      	ldrb	r3, [r4, #0]
100063d2:	4013      	ands	r3, r2
100063d4:	2800      	cmp	r0, #0
100063d6:	d00c      	beq.n	100063f2 <tu_edpt_stream_write_xfer+0x5e>
100063d8:	2b00      	cmp	r3, #0
100063da:	d1eb      	bne.n	100063b4 <tu_edpt_stream_write_xfer+0x20>
100063dc:	0003      	movs	r3, r0
100063de:	6862      	ldr	r2, [r4, #4]
100063e0:	7861      	ldrb	r1, [r4, #1]
100063e2:	0004      	movs	r4, r0
100063e4:	0028      	movs	r0, r5
100063e6:	f7ff f9b1 	bl	1000574c <usbd_edpt_xfer>
100063ea:	2800      	cmp	r0, #0
100063ec:	d0e2      	beq.n	100063b4 <tu_edpt_stream_write_xfer+0x20>
100063ee:	0020      	movs	r0, r4
100063f0:	e7e1      	b.n	100063b6 <tu_edpt_stream_write_xfer+0x22>
100063f2:	2b00      	cmp	r3, #0
100063f4:	d1de      	bne.n	100063b4 <tu_edpt_stream_write_xfer+0x20>
100063f6:	0028      	movs	r0, r5
100063f8:	7861      	ldrb	r1, [r4, #1]
100063fa:	f7ff f993 	bl	10005724 <usbd_edpt_release>
100063fe:	e7d9      	b.n	100063b4 <tu_edpt_stream_write_xfer+0x20>

10006400 <tu_edpt_stream_read_xfer>:
10006400:	b5f0      	push	{r4, r5, r6, r7, lr}
10006402:	46c6      	mov	lr, r8
10006404:	b500      	push	{lr}
10006406:	898a      	ldrh	r2, [r1, #12]
10006408:	0006      	movs	r6, r0
1000640a:	000c      	movs	r4, r1
1000640c:	780b      	ldrb	r3, [r1, #0]
1000640e:	2a00      	cmp	r2, #0
10006410:	d106      	bne.n	10006420 <tu_edpt_stream_read_xfer+0x20>
10006412:	3201      	adds	r2, #1
10006414:	421a      	tst	r2, r3
10006416:	d040      	beq.n	1000649a <tu_edpt_stream_read_xfer+0x9a>
10006418:	2000      	movs	r0, #0
1000641a:	bc80      	pop	{r7}
1000641c:	46b8      	mov	r8, r7
1000641e:	bdf0      	pop	{r4, r5, r6, r7, pc}
10006420:	079b      	lsls	r3, r3, #30
10006422:	d434      	bmi.n	1000648e <tu_edpt_stream_read_xfer+0x8e>
10006424:	4b2b      	ldr	r3, [pc, #172]	@ (100064d4 <tu_edpt_stream_read_xfer+0xd4>)
10006426:	2540      	movs	r5, #64	@ 0x40
10006428:	4698      	mov	r8, r3
1000642a:	2308      	movs	r3, #8
1000642c:	469c      	mov	ip, r3
1000642e:	44a4      	add	ip, r4
10006430:	4660      	mov	r0, ip
10006432:	4667      	mov	r7, ip
10006434:	f000 f8a4 	bl	10006580 <tu_fifo_remaining>
10006438:	4285      	cmp	r5, r0
1000643a:	d8ed      	bhi.n	10006418 <tu_edpt_stream_read_xfer+0x18>
1000643c:	2201      	movs	r2, #1
1000643e:	7823      	ldrb	r3, [r4, #0]
10006440:	421a      	tst	r2, r3
10006442:	d1e9      	bne.n	10006418 <tu_edpt_stream_read_xfer+0x18>
10006444:	0030      	movs	r0, r6
10006446:	7861      	ldrb	r1, [r4, #1]
10006448:	f7ff f958 	bl	100056fc <usbd_edpt_claim>
1000644c:	2800      	cmp	r0, #0
1000644e:	d0e3      	beq.n	10006418 <tu_edpt_stream_read_xfer+0x18>
10006450:	0038      	movs	r0, r7
10006452:	f000 f895 	bl	10006580 <tu_fifo_remaining>
10006456:	2201      	movs	r2, #1
10006458:	7823      	ldrb	r3, [r4, #0]
1000645a:	4013      	ands	r3, r2
1000645c:	4285      	cmp	r5, r0
1000645e:	d832      	bhi.n	100064c6 <tu_edpt_stream_read_xfer+0xc6>
10006460:	2b00      	cmp	r3, #0
10006462:	d1d9      	bne.n	10006418 <tu_edpt_stream_read_xfer+0x18>
10006464:	4641      	mov	r1, r8
10006466:	8862      	ldrh	r2, [r4, #2]
10006468:	4001      	ands	r1, r0
1000646a:	1c13      	adds	r3, r2, #0
1000646c:	428a      	cmp	r2, r1
1000646e:	d900      	bls.n	10006472 <tu_edpt_stream_read_xfer+0x72>
10006470:	1c0b      	adds	r3, r1, #0
10006472:	b29b      	uxth	r3, r3
10006474:	2200      	movs	r2, #0
10006476:	7861      	ldrb	r1, [r4, #1]
10006478:	2b00      	cmp	r3, #0
1000647a:	d000      	beq.n	1000647e <tu_edpt_stream_read_xfer+0x7e>
1000647c:	6862      	ldr	r2, [r4, #4]
1000647e:	0030      	movs	r0, r6
10006480:	001c      	movs	r4, r3
10006482:	f7ff f963 	bl	1000574c <usbd_edpt_xfer>
10006486:	2800      	cmp	r0, #0
10006488:	d0c6      	beq.n	10006418 <tu_edpt_stream_read_xfer+0x18>
1000648a:	0020      	movs	r0, r4
1000648c:	e7c5      	b.n	1000641a <tu_edpt_stream_read_xfer+0x1a>
1000648e:	23fe      	movs	r3, #254	@ 0xfe
10006490:	2580      	movs	r5, #128	@ 0x80
10006492:	021b      	lsls	r3, r3, #8
10006494:	4698      	mov	r8, r3
10006496:	00ad      	lsls	r5, r5, #2
10006498:	e7c7      	b.n	1000642a <tu_edpt_stream_read_xfer+0x2a>
1000649a:	7849      	ldrb	r1, [r1, #1]
1000649c:	f7ff f92e 	bl	100056fc <usbd_edpt_claim>
100064a0:	2800      	cmp	r0, #0
100064a2:	d0b9      	beq.n	10006418 <tu_edpt_stream_read_xfer+0x18>
100064a4:	2201      	movs	r2, #1
100064a6:	7823      	ldrb	r3, [r4, #0]
100064a8:	421a      	tst	r2, r3
100064aa:	d1b5      	bne.n	10006418 <tu_edpt_stream_read_xfer+0x18>
100064ac:	8863      	ldrh	r3, [r4, #2]
100064ae:	2200      	movs	r2, #0
100064b0:	7861      	ldrb	r1, [r4, #1]
100064b2:	2b00      	cmp	r3, #0
100064b4:	d000      	beq.n	100064b8 <tu_edpt_stream_read_xfer+0xb8>
100064b6:	6862      	ldr	r2, [r4, #4]
100064b8:	0030      	movs	r0, r6
100064ba:	f7ff f947 	bl	1000574c <usbd_edpt_xfer>
100064be:	2800      	cmp	r0, #0
100064c0:	d0aa      	beq.n	10006418 <tu_edpt_stream_read_xfer+0x18>
100064c2:	8860      	ldrh	r0, [r4, #2]
100064c4:	e7a9      	b.n	1000641a <tu_edpt_stream_read_xfer+0x1a>
100064c6:	2b00      	cmp	r3, #0
100064c8:	d1a6      	bne.n	10006418 <tu_edpt_stream_read_xfer+0x18>
100064ca:	0030      	movs	r0, r6
100064cc:	7861      	ldrb	r1, [r4, #1]
100064ce:	f7ff f929 	bl	10005724 <usbd_edpt_release>
100064d2:	e7a1      	b.n	10006418 <tu_edpt_stream_read_xfer+0x18>
100064d4:	0000ffc0 	.word	0x0000ffc0

100064d8 <tu_fifo_config>:
100064d8:	b5f0      	push	{r4, r5, r6, r7, lr}
100064da:	46c6      	mov	lr, r8
100064dc:	b500      	push	{lr}
100064de:	4698      	mov	r8, r3
100064e0:	466b      	mov	r3, sp
100064e2:	7e1e      	ldrb	r6, [r3, #24]
100064e4:	2380      	movs	r3, #128	@ 0x80
100064e6:	0004      	movs	r4, r0
100064e8:	000f      	movs	r7, r1
100064ea:	0015      	movs	r5, r2
100064ec:	021b      	lsls	r3, r3, #8
100064ee:	429a      	cmp	r2, r3
100064f0:	d826      	bhi.n	10006540 <tu_fifo_config+0x68>
100064f2:	68c0      	ldr	r0, [r0, #12]
100064f4:	2800      	cmp	r0, #0
100064f6:	d003      	beq.n	10006500 <tu_fifo_config+0x28>
100064f8:	2101      	movs	r1, #1
100064fa:	4249      	negs	r1, r1
100064fc:	f000 fc1c 	bl	10006d38 <__mutex_enter_timeout_ms_veneer>
10006500:	6920      	ldr	r0, [r4, #16]
10006502:	2800      	cmp	r0, #0
10006504:	d003      	beq.n	1000650e <tu_fifo_config+0x36>
10006506:	2101      	movs	r1, #1
10006508:	4249      	negs	r1, r1
1000650a:	f000 fc15 	bl	10006d38 <__mutex_enter_timeout_ms_veneer>
1000650e:	4642      	mov	r2, r8
10006510:	0452      	lsls	r2, r2, #17
10006512:	03f3      	lsls	r3, r6, #15
10006514:	0c52      	lsrs	r2, r2, #17
10006516:	4313      	orrs	r3, r2
10006518:	80e3      	strh	r3, [r4, #6]
1000651a:	2300      	movs	r3, #0
1000651c:	68e0      	ldr	r0, [r4, #12]
1000651e:	8163      	strh	r3, [r4, #10]
10006520:	6027      	str	r7, [r4, #0]
10006522:	80a5      	strh	r5, [r4, #4]
10006524:	8123      	strh	r3, [r4, #8]
10006526:	2800      	cmp	r0, #0
10006528:	d001      	beq.n	1000652e <tu_fifo_config+0x56>
1000652a:	f000 fbdd 	bl	10006ce8 <__mutex_exit_veneer>
1000652e:	6920      	ldr	r0, [r4, #16]
10006530:	2800      	cmp	r0, #0
10006532:	d001      	beq.n	10006538 <tu_fifo_config+0x60>
10006534:	f000 fbd8 	bl	10006ce8 <__mutex_exit_veneer>
10006538:	2001      	movs	r0, #1
1000653a:	bc80      	pop	{r7}
1000653c:	46b8      	mov	r8, r7
1000653e:	bdf0      	pop	{r4, r5, r6, r7, pc}
10006540:	2000      	movs	r0, #0
10006542:	e7fa      	b.n	1000653a <tu_fifo_config+0x62>

10006544 <tu_fifo_count>:
10006544:	8903      	ldrh	r3, [r0, #8]
10006546:	8941      	ldrh	r1, [r0, #10]
10006548:	469c      	mov	ip, r3
1000654a:	8882      	ldrh	r2, [r0, #4]
1000654c:	b29b      	uxth	r3, r3
1000654e:	b288      	uxth	r0, r1
10006550:	458c      	cmp	ip, r1
10006552:	d307      	bcc.n	10006564 <tu_fifo_count+0x20>
10006554:	1a1b      	subs	r3, r3, r0
10006556:	b29b      	uxth	r3, r3
10006558:	1c10      	adds	r0, r2, #0
1000655a:	429a      	cmp	r2, r3
1000655c:	d900      	bls.n	10006560 <tu_fifo_count+0x1c>
1000655e:	1c18      	adds	r0, r3, #0
10006560:	b280      	uxth	r0, r0
10006562:	4770      	bx	lr
10006564:	0051      	lsls	r1, r2, #1
10006566:	1a09      	subs	r1, r1, r0
10006568:	185b      	adds	r3, r3, r1
1000656a:	b29b      	uxth	r3, r3
1000656c:	e7f4      	b.n	10006558 <tu_fifo_count+0x14>
1000656e:	46c0      	nop			@ (mov r8, r8)

10006570 <tu_fifo_empty>:
10006570:	8903      	ldrh	r3, [r0, #8]
10006572:	8940      	ldrh	r0, [r0, #10]
10006574:	1a18      	subs	r0, r3, r0
10006576:	4243      	negs	r3, r0
10006578:	4158      	adcs	r0, r3
1000657a:	b2c0      	uxtb	r0, r0
1000657c:	4770      	bx	lr
1000657e:	46c0      	nop			@ (mov r8, r8)

10006580 <tu_fifo_remaining>:
10006580:	8903      	ldrh	r3, [r0, #8]
10006582:	8941      	ldrh	r1, [r0, #10]
10006584:	469c      	mov	ip, r3
10006586:	8882      	ldrh	r2, [r0, #4]
10006588:	b29b      	uxth	r3, r3
1000658a:	b288      	uxth	r0, r1
1000658c:	458c      	cmp	ip, r1
1000658e:	d307      	bcc.n	100065a0 <tu_fifo_remaining+0x20>
10006590:	1a1b      	subs	r3, r3, r0
10006592:	b29b      	uxth	r3, r3
10006594:	2000      	movs	r0, #0
10006596:	429a      	cmp	r2, r3
10006598:	d901      	bls.n	1000659e <tu_fifo_remaining+0x1e>
1000659a:	1ad2      	subs	r2, r2, r3
1000659c:	b290      	uxth	r0, r2
1000659e:	4770      	bx	lr
100065a0:	0051      	lsls	r1, r2, #1
100065a2:	1a09      	subs	r1, r1, r0
100065a4:	185b      	adds	r3, r3, r1
100065a6:	b29b      	uxth	r3, r3
100065a8:	e7f4      	b.n	10006594 <tu_fifo_remaining+0x14>
100065aa:	46c0      	nop			@ (mov r8, r8)

100065ac <tu_fifo_read>:
100065ac:	b570      	push	{r4, r5, r6, lr}
100065ae:	0004      	movs	r4, r0
100065b0:	6900      	ldr	r0, [r0, #16]
100065b2:	000d      	movs	r5, r1
100065b4:	2800      	cmp	r0, #0
100065b6:	d003      	beq.n	100065c0 <tu_fifo_read+0x14>
100065b8:	2101      	movs	r1, #1
100065ba:	4249      	negs	r1, r1
100065bc:	f000 fbbc 	bl	10006d38 <__mutex_enter_timeout_ms_veneer>
100065c0:	8923      	ldrh	r3, [r4, #8]
100065c2:	8962      	ldrh	r2, [r4, #10]
100065c4:	469c      	mov	ip, r3
100065c6:	b298      	uxth	r0, r3
100065c8:	b291      	uxth	r1, r2
100065ca:	88a3      	ldrh	r3, [r4, #4]
100065cc:	4594      	cmp	ip, r2
100065ce:	d332      	bcc.n	10006636 <tu_fifo_read+0x8a>
100065d0:	1a42      	subs	r2, r0, r1
100065d2:	b292      	uxth	r2, r2
100065d4:	2a00      	cmp	r2, #0
100065d6:	d027      	beq.n	10006628 <tu_fifo_read+0x7c>
100065d8:	4293      	cmp	r3, r2
100065da:	d208      	bcs.n	100065ee <tu_fifo_read+0x42>
100065dc:	4298      	cmp	r0, r3
100065de:	d32f      	bcc.n	10006640 <tu_fifo_read+0x94>
100065e0:	1ac0      	subs	r0, r0, r3
100065e2:	b281      	uxth	r1, r0
100065e4:	8161      	strh	r1, [r4, #10]
100065e6:	428b      	cmp	r3, r1
100065e8:	d803      	bhi.n	100065f2 <tu_fifo_read+0x46>
100065ea:	1ac9      	subs	r1, r1, r3
100065ec:	b289      	uxth	r1, r1
100065ee:	428b      	cmp	r3, r1
100065f0:	d9fb      	bls.n	100065ea <tu_fifo_read+0x3e>
100065f2:	88e2      	ldrh	r2, [r4, #6]
100065f4:	6823      	ldr	r3, [r4, #0]
100065f6:	0452      	lsls	r2, r2, #17
100065f8:	0c52      	lsrs	r2, r2, #17
100065fa:	4351      	muls	r1, r2
100065fc:	0028      	movs	r0, r5
100065fe:	1859      	adds	r1, r3, r1
10006600:	f7fc f84a 	bl	10002698 <__wrap___aeabi_memcpy>
10006604:	8961      	ldrh	r1, [r4, #10]
10006606:	2501      	movs	r5, #1
10006608:	1c4a      	adds	r2, r1, #1
1000660a:	b292      	uxth	r2, r2
1000660c:	88a3      	ldrh	r3, [r4, #4]
1000660e:	4291      	cmp	r1, r2
10006610:	d90d      	bls.n	1000662e <tu_fifo_read+0x82>
10006612:	2200      	movs	r2, #0
10006614:	005b      	lsls	r3, r3, #1
10006616:	1ad2      	subs	r2, r2, r3
10006618:	6920      	ldr	r0, [r4, #16]
1000661a:	8162      	strh	r2, [r4, #10]
1000661c:	2800      	cmp	r0, #0
1000661e:	d001      	beq.n	10006624 <tu_fifo_read+0x78>
10006620:	f000 fb62 	bl	10006ce8 <__mutex_exit_veneer>
10006624:	0028      	movs	r0, r5
10006626:	bd70      	pop	{r4, r5, r6, pc}
10006628:	2500      	movs	r5, #0
1000662a:	8962      	ldrh	r2, [r4, #10]
1000662c:	b292      	uxth	r2, r2
1000662e:	005b      	lsls	r3, r3, #1
10006630:	429a      	cmp	r2, r3
10006632:	dbf1      	blt.n	10006618 <tu_fifo_read+0x6c>
10006634:	e7ef      	b.n	10006616 <tu_fifo_read+0x6a>
10006636:	005a      	lsls	r2, r3, #1
10006638:	1a52      	subs	r2, r2, r1
1000663a:	1882      	adds	r2, r0, r2
1000663c:	b292      	uxth	r2, r2
1000663e:	e7c9      	b.n	100065d4 <tu_fifo_read+0x28>
10006640:	18c0      	adds	r0, r0, r3
10006642:	b281      	uxth	r1, r0
10006644:	8161      	strh	r1, [r4, #10]
10006646:	e7ce      	b.n	100065e6 <tu_fifo_read+0x3a>

10006648 <tu_fifo_read_n>:
10006648:	b5f0      	push	{r4, r5, r6, r7, lr}
1000664a:	4646      	mov	r6, r8
1000664c:	46d6      	mov	lr, sl
1000664e:	464f      	mov	r7, r9
10006650:	b5c0      	push	{r6, r7, lr}
10006652:	0006      	movs	r6, r0
10006654:	6900      	ldr	r0, [r0, #16]
10006656:	468a      	mov	sl, r1
10006658:	4690      	mov	r8, r2
1000665a:	b082      	sub	sp, #8
1000665c:	2800      	cmp	r0, #0
1000665e:	d003      	beq.n	10006668 <tu_fifo_read_n+0x20>
10006660:	2101      	movs	r1, #1
10006662:	4249      	negs	r1, r1
10006664:	f000 fb68 	bl	10006d38 <__mutex_enter_timeout_ms_veneer>
10006668:	8931      	ldrh	r1, [r6, #8]
1000666a:	8972      	ldrh	r2, [r6, #10]
1000666c:	88b5      	ldrh	r5, [r6, #4]
1000666e:	b28b      	uxth	r3, r1
10006670:	b294      	uxth	r4, r2
10006672:	4291      	cmp	r1, r2
10006674:	d355      	bcc.n	10006722 <tu_fifo_read_n+0xda>
10006676:	1b1f      	subs	r7, r3, r4
10006678:	b2bf      	uxth	r7, r7
1000667a:	2f00      	cmp	r7, #0
1000667c:	d04b      	beq.n	10006716 <tu_fifo_read_n+0xce>
1000667e:	42bd      	cmp	r5, r7
10006680:	d205      	bcs.n	1000668e <tu_fifo_read_n+0x46>
10006682:	42ab      	cmp	r3, r5
10006684:	d252      	bcs.n	1000672c <tu_fifo_read_n+0xe4>
10006686:	195b      	adds	r3, r3, r5
10006688:	b29c      	uxth	r4, r3
1000668a:	002f      	movs	r7, r5
1000668c:	8174      	strh	r4, [r6, #10]
1000668e:	4643      	mov	r3, r8
10006690:	45b8      	cmp	r8, r7
10006692:	d83e      	bhi.n	10006712 <tu_fifo_read_n+0xca>
10006694:	b29f      	uxth	r7, r3
10006696:	42a5      	cmp	r5, r4
10006698:	d803      	bhi.n	100066a2 <tu_fifo_read_n+0x5a>
1000669a:	1b64      	subs	r4, r4, r5
1000669c:	b2a4      	uxth	r4, r4
1000669e:	42a5      	cmp	r5, r4
100066a0:	d9fb      	bls.n	1000669a <tu_fifo_read_n+0x52>
100066a2:	88f2      	ldrh	r2, [r6, #6]
100066a4:	6831      	ldr	r1, [r6, #0]
100066a6:	0452      	lsls	r2, r2, #17
100066a8:	0c50      	lsrs	r0, r2, #17
100066aa:	0002      	movs	r2, r0
100066ac:	4362      	muls	r2, r4
100066ae:	1b2b      	subs	r3, r5, r4
100066b0:	b29b      	uxth	r3, r3
100066b2:	1889      	adds	r1, r1, r2
100066b4:	9001      	str	r0, [sp, #4]
100066b6:	0002      	movs	r2, r0
100066b8:	429f      	cmp	r7, r3
100066ba:	d925      	bls.n	10006708 <tu_fifo_read_n+0xc0>
100066bc:	4343      	muls	r3, r0
100066be:	b29b      	uxth	r3, r3
100066c0:	001a      	movs	r2, r3
100066c2:	4650      	mov	r0, sl
100066c4:	4699      	mov	r9, r3
100066c6:	f7fb ffe7 	bl	10002698 <__wrap___aeabi_memcpy>
100066ca:	4650      	mov	r0, sl
100066cc:	9a01      	ldr	r2, [sp, #4]
100066ce:	1b7d      	subs	r5, r7, r5
100066d0:	1964      	adds	r4, r4, r5
100066d2:	4354      	muls	r4, r2
100066d4:	6831      	ldr	r1, [r6, #0]
100066d6:	4448      	add	r0, r9
100066d8:	b2a2      	uxth	r2, r4
100066da:	f7fb ffdd 	bl	10002698 <__wrap___aeabi_memcpy>
100066de:	8971      	ldrh	r1, [r6, #10]
100066e0:	88b5      	ldrh	r5, [r6, #4]
100066e2:	19cb      	adds	r3, r1, r7
100066e4:	b29b      	uxth	r3, r3
100066e6:	006a      	lsls	r2, r5, #1
100066e8:	4299      	cmp	r1, r3
100066ea:	d916      	bls.n	1000671a <tu_fifo_read_n+0xd2>
100066ec:	1a9b      	subs	r3, r3, r2
100066ee:	6930      	ldr	r0, [r6, #16]
100066f0:	8173      	strh	r3, [r6, #10]
100066f2:	2800      	cmp	r0, #0
100066f4:	d001      	beq.n	100066fa <tu_fifo_read_n+0xb2>
100066f6:	f000 faf7 	bl	10006ce8 <__mutex_exit_veneer>
100066fa:	0038      	movs	r0, r7
100066fc:	b002      	add	sp, #8
100066fe:	bce0      	pop	{r5, r6, r7}
10006700:	46ba      	mov	sl, r7
10006702:	46b1      	mov	r9, r6
10006704:	46a8      	mov	r8, r5
10006706:	bdf0      	pop	{r4, r5, r6, r7, pc}
10006708:	4650      	mov	r0, sl
1000670a:	437a      	muls	r2, r7
1000670c:	f7fb ffc4 	bl	10002698 <__wrap___aeabi_memcpy>
10006710:	e7e5      	b.n	100066de <tu_fifo_read_n+0x96>
10006712:	1c3b      	adds	r3, r7, #0
10006714:	e7be      	b.n	10006694 <tu_fifo_read_n+0x4c>
10006716:	8973      	ldrh	r3, [r6, #10]
10006718:	b29b      	uxth	r3, r3
1000671a:	006a      	lsls	r2, r5, #1
1000671c:	4293      	cmp	r3, r2
1000671e:	dbe6      	blt.n	100066ee <tu_fifo_read_n+0xa6>
10006720:	e7e4      	b.n	100066ec <tu_fifo_read_n+0xa4>
10006722:	006f      	lsls	r7, r5, #1
10006724:	1b3f      	subs	r7, r7, r4
10006726:	19df      	adds	r7, r3, r7
10006728:	b2bf      	uxth	r7, r7
1000672a:	e7a6      	b.n	1000667a <tu_fifo_read_n+0x32>
1000672c:	1b5b      	subs	r3, r3, r5
1000672e:	b29c      	uxth	r4, r3
10006730:	e7ab      	b.n	1000668a <tu_fifo_read_n+0x42>
10006732:	46c0      	nop			@ (mov r8, r8)

10006734 <tu_fifo_write>:
10006734:	b5f8      	push	{r3, r4, r5, r6, r7, lr}
10006736:	0004      	movs	r4, r0
10006738:	68c0      	ldr	r0, [r0, #12]
1000673a:	000f      	movs	r7, r1
1000673c:	2800      	cmp	r0, #0
1000673e:	d003      	beq.n	10006748 <tu_fifo_write+0x14>
10006740:	2101      	movs	r1, #1
10006742:	4249      	negs	r1, r1
10006744:	f000 faf8 	bl	10006d38 <__mutex_enter_timeout_ms_veneer>
10006748:	8925      	ldrh	r5, [r4, #8]
1000674a:	8920      	ldrh	r0, [r4, #8]
1000674c:	8961      	ldrh	r1, [r4, #10]
1000674e:	88a2      	ldrh	r2, [r4, #4]
10006750:	b2ad      	uxth	r5, r5
10006752:	b283      	uxth	r3, r0
10006754:	b28e      	uxth	r6, r1
10006756:	4288      	cmp	r0, r1
10006758:	d328      	bcc.n	100067ac <tu_fifo_write+0x78>
1000675a:	1b9b      	subs	r3, r3, r6
1000675c:	b29b      	uxth	r3, r3
1000675e:	429a      	cmp	r2, r3
10006760:	d809      	bhi.n	10006776 <tu_fifo_write+0x42>
10006762:	79e6      	ldrb	r6, [r4, #7]
10006764:	09f6      	lsrs	r6, r6, #7
10006766:	d106      	bne.n	10006776 <tu_fifo_write+0x42>
10006768:	68e0      	ldr	r0, [r4, #12]
1000676a:	2800      	cmp	r0, #0
1000676c:	d001      	beq.n	10006772 <tu_fifo_write+0x3e>
1000676e:	f000 fabb 	bl	10006ce8 <__mutex_exit_veneer>
10006772:	0030      	movs	r0, r6
10006774:	bdf8      	pop	{r3, r4, r5, r6, r7, pc}
10006776:	002b      	movs	r3, r5
10006778:	4295      	cmp	r5, r2
1000677a:	d31c      	bcc.n	100067b6 <tu_fifo_write+0x82>
1000677c:	1a9b      	subs	r3, r3, r2
1000677e:	b29b      	uxth	r3, r3
10006780:	4293      	cmp	r3, r2
10006782:	d2fb      	bcs.n	1000677c <tu_fifo_write+0x48>
10006784:	88e2      	ldrh	r2, [r4, #6]
10006786:	6820      	ldr	r0, [r4, #0]
10006788:	0452      	lsls	r2, r2, #17
1000678a:	0c52      	lsrs	r2, r2, #17
1000678c:	4353      	muls	r3, r2
1000678e:	0039      	movs	r1, r7
10006790:	18c0      	adds	r0, r0, r3
10006792:	f7fb ff81 	bl	10002698 <__wrap___aeabi_memcpy>
10006796:	1c6b      	adds	r3, r5, #1
10006798:	b29b      	uxth	r3, r3
1000679a:	88a2      	ldrh	r2, [r4, #4]
1000679c:	429d      	cmp	r5, r3
1000679e:	d916      	bls.n	100067ce <tu_fifo_write+0x9a>
100067a0:	2300      	movs	r3, #0
100067a2:	0052      	lsls	r2, r2, #1
100067a4:	1a9b      	subs	r3, r3, r2
100067a6:	2601      	movs	r6, #1
100067a8:	8123      	strh	r3, [r4, #8]
100067aa:	e7dd      	b.n	10006768 <tu_fifo_write+0x34>
100067ac:	0051      	lsls	r1, r2, #1
100067ae:	1b89      	subs	r1, r1, r6
100067b0:	185b      	adds	r3, r3, r1
100067b2:	b29b      	uxth	r3, r3
100067b4:	e7d3      	b.n	1000675e <tu_fifo_write+0x2a>
100067b6:	88e2      	ldrh	r2, [r4, #6]
100067b8:	6820      	ldr	r0, [r4, #0]
100067ba:	0452      	lsls	r2, r2, #17
100067bc:	0c52      	lsrs	r2, r2, #17
100067be:	4353      	muls	r3, r2
100067c0:	0039      	movs	r1, r7
100067c2:	18c0      	adds	r0, r0, r3
100067c4:	f7fb ff68 	bl	10002698 <__wrap___aeabi_memcpy>
100067c8:	3501      	adds	r5, #1
100067ca:	88a2      	ldrh	r2, [r4, #4]
100067cc:	b2ab      	uxth	r3, r5
100067ce:	0052      	lsls	r2, r2, #1
100067d0:	4293      	cmp	r3, r2
100067d2:	dbe8      	blt.n	100067a6 <tu_fifo_write+0x72>
100067d4:	e7e6      	b.n	100067a4 <tu_fifo_write+0x70>
100067d6:	46c0      	nop			@ (mov r8, r8)

100067d8 <tu_fifo_write_n>:
100067d8:	b5f0      	push	{r4, r5, r6, r7, lr}
100067da:	464e      	mov	r6, r9
100067dc:	4645      	mov	r5, r8
100067de:	46de      	mov	lr, fp
100067e0:	4657      	mov	r7, sl
100067e2:	b5e0      	push	{r5, r6, r7, lr}
100067e4:	4689      	mov	r9, r1
100067e6:	0005      	movs	r5, r0
100067e8:	0016      	movs	r6, r2
100067ea:	b083      	sub	sp, #12
100067ec:	2a00      	cmp	r2, #0
100067ee:	d06b      	beq.n	100068c8 <tu_fifo_write_n+0xf0>
100067f0:	68c0      	ldr	r0, [r0, #12]
100067f2:	2800      	cmp	r0, #0
100067f4:	d003      	beq.n	100067fe <tu_fifo_write_n+0x26>
100067f6:	2101      	movs	r1, #1
100067f8:	4249      	negs	r1, r1
100067fa:	f000 fa9d 	bl	10006d38 <__mutex_enter_timeout_ms_veneer>
100067fe:	892f      	ldrh	r7, [r5, #8]
10006800:	79ea      	ldrb	r2, [r5, #7]
10006802:	b2bb      	uxth	r3, r7
10006804:	4698      	mov	r8, r3
10006806:	896b      	ldrh	r3, [r5, #10]
10006808:	88af      	ldrh	r7, [r5, #4]
1000680a:	b29b      	uxth	r3, r3
1000680c:	09d2      	lsrs	r2, r2, #7
1000680e:	d13d      	bne.n	1000688c <tu_fifo_write_n+0xb4>
10006810:	4598      	cmp	r8, r3
10006812:	d262      	bcs.n	100068da <tu_fifo_write_n+0x102>
10006814:	007a      	lsls	r2, r7, #1
10006816:	1ad3      	subs	r3, r2, r3
10006818:	4443      	add	r3, r8
1000681a:	b29b      	uxth	r3, r3
1000681c:	42bb      	cmp	r3, r7
1000681e:	d261      	bcs.n	100068e4 <tu_fifo_write_n+0x10c>
10006820:	1afb      	subs	r3, r7, r3
10006822:	1c1a      	adds	r2, r3, #0
10006824:	b29b      	uxth	r3, r3
10006826:	42b3      	cmp	r3, r6
10006828:	d900      	bls.n	1000682c <tu_fifo_write_n+0x54>
1000682a:	1c32      	adds	r2, r6, #0
1000682c:	b296      	uxth	r6, r2
1000682e:	1bf3      	subs	r3, r6, r7
10006830:	9301      	str	r3, [sp, #4]
10006832:	4643      	mov	r3, r8
10006834:	18f3      	adds	r3, r6, r3
10006836:	b29b      	uxth	r3, r3
10006838:	469b      	mov	fp, r3
1000683a:	88ea      	ldrh	r2, [r5, #6]
1000683c:	4644      	mov	r4, r8
1000683e:	45b8      	cmp	r8, r7
10006840:	d303      	bcc.n	1000684a <tu_fifo_write_n+0x72>
10006842:	1be4      	subs	r4, r4, r7
10006844:	b2a4      	uxth	r4, r4
10006846:	42bc      	cmp	r4, r7
10006848:	d2fb      	bcs.n	10006842 <tu_fifo_write_n+0x6a>
1000684a:	0452      	lsls	r2, r2, #17
1000684c:	1b3b      	subs	r3, r7, r4
1000684e:	0c57      	lsrs	r7, r2, #17
10006850:	003a      	movs	r2, r7
10006852:	4362      	muls	r2, r4
10006854:	6828      	ldr	r0, [r5, #0]
10006856:	b29b      	uxth	r3, r3
10006858:	1880      	adds	r0, r0, r2
1000685a:	42b3      	cmp	r3, r6
1000685c:	d356      	bcc.n	1000690c <tu_fifo_write_n+0x134>
1000685e:	003a      	movs	r2, r7
10006860:	4649      	mov	r1, r9
10006862:	4372      	muls	r2, r6
10006864:	f7fb ff18 	bl	10002698 <__wrap___aeabi_memcpy>
10006868:	88ab      	ldrh	r3, [r5, #4]
1000686a:	005b      	lsls	r3, r3, #1
1000686c:	45d8      	cmp	r8, fp
1000686e:	d801      	bhi.n	10006874 <tu_fifo_write_n+0x9c>
10006870:	459b      	cmp	fp, r3
10006872:	db02      	blt.n	1000687a <tu_fifo_write_n+0xa2>
10006874:	465a      	mov	r2, fp
10006876:	1ad3      	subs	r3, r2, r3
10006878:	469b      	mov	fp, r3
1000687a:	465b      	mov	r3, fp
1000687c:	0037      	movs	r7, r6
1000687e:	812b      	strh	r3, [r5, #8]
10006880:	68e8      	ldr	r0, [r5, #12]
10006882:	2800      	cmp	r0, #0
10006884:	d021      	beq.n	100068ca <tu_fifo_write_n+0xf2>
10006886:	f000 fa2f 	bl	10006ce8 <__mutex_exit_veneer>
1000688a:	e01e      	b.n	100068ca <tu_fifo_write_n+0xf2>
1000688c:	42be      	cmp	r6, r7
1000688e:	d22b      	bcs.n	100068e8 <tu_fifo_write_n+0x110>
10006890:	4598      	cmp	r8, r3
10006892:	d34c      	bcc.n	1000692e <tu_fifo_write_n+0x156>
10006894:	4642      	mov	r2, r8
10006896:	1ad2      	subs	r2, r2, r3
10006898:	b292      	uxth	r2, r2
1000689a:	0079      	lsls	r1, r7, #1
1000689c:	1bf0      	subs	r0, r6, r7
1000689e:	1992      	adds	r2, r2, r6
100068a0:	9001      	str	r0, [sp, #4]
100068a2:	428a      	cmp	r2, r1
100068a4:	dbc5      	blt.n	10006832 <tu_fifo_write_n+0x5a>
100068a6:	19da      	adds	r2, r3, r7
100068a8:	b292      	uxth	r2, r2
100068aa:	4693      	mov	fp, r2
100068ac:	1b92      	subs	r2, r2, r6
100068ae:	b292      	uxth	r2, r2
100068b0:	4690      	mov	r8, r2
100068b2:	4293      	cmp	r3, r2
100068b4:	d940      	bls.n	10006938 <tu_fifo_write_n+0x160>
100068b6:	4643      	mov	r3, r8
100068b8:	1a59      	subs	r1, r3, r1
100068ba:	b28b      	uxth	r3, r1
100068bc:	4698      	mov	r8, r3
100068be:	18f3      	adds	r3, r6, r3
100068c0:	b29b      	uxth	r3, r3
100068c2:	469b      	mov	fp, r3
100068c4:	88ea      	ldrh	r2, [r5, #6]
100068c6:	e7b9      	b.n	1000683c <tu_fifo_write_n+0x64>
100068c8:	2700      	movs	r7, #0
100068ca:	0038      	movs	r0, r7
100068cc:	b003      	add	sp, #12
100068ce:	bcf0      	pop	{r4, r5, r6, r7}
100068d0:	46bb      	mov	fp, r7
100068d2:	46b2      	mov	sl, r6
100068d4:	46a9      	mov	r9, r5
100068d6:	46a0      	mov	r8, r4
100068d8:	bdf0      	pop	{r4, r5, r6, r7, pc}
100068da:	4642      	mov	r2, r8
100068dc:	1ad3      	subs	r3, r2, r3
100068de:	b29b      	uxth	r3, r3
100068e0:	42bb      	cmp	r3, r7
100068e2:	d39d      	bcc.n	10006820 <tu_fifo_write_n+0x48>
100068e4:	2700      	movs	r7, #0
100068e6:	e7cb      	b.n	10006880 <tu_fifo_write_n+0xa8>
100068e8:	2f00      	cmp	r7, #0
100068ea:	d0c9      	beq.n	10006880 <tu_fifo_write_n+0xa8>
100068ec:	46cc      	mov	ip, r9
100068ee:	88ea      	ldrh	r2, [r5, #6]
100068f0:	1bf6      	subs	r6, r6, r7
100068f2:	0451      	lsls	r1, r2, #17
100068f4:	0c49      	lsrs	r1, r1, #17
100068f6:	4371      	muls	r1, r6
100068f8:	4698      	mov	r8, r3
100068fa:	448c      	add	ip, r1
100068fc:	19d9      	adds	r1, r3, r7
100068fe:	2300      	movs	r3, #0
10006900:	b289      	uxth	r1, r1
10006902:	46e1      	mov	r9, ip
10006904:	468b      	mov	fp, r1
10006906:	003e      	movs	r6, r7
10006908:	9301      	str	r3, [sp, #4]
1000690a:	e797      	b.n	1000683c <tu_fifo_write_n+0x64>
1000690c:	437b      	muls	r3, r7
1000690e:	b29b      	uxth	r3, r3
10006910:	001a      	movs	r2, r3
10006912:	4649      	mov	r1, r9
10006914:	469a      	mov	sl, r3
10006916:	f7fb febf 	bl	10002698 <__wrap___aeabi_memcpy>
1000691a:	4649      	mov	r1, r9
1000691c:	9b01      	ldr	r3, [sp, #4]
1000691e:	6828      	ldr	r0, [r5, #0]
10006920:	18e2      	adds	r2, r4, r3
10006922:	437a      	muls	r2, r7
10006924:	4451      	add	r1, sl
10006926:	b292      	uxth	r2, r2
10006928:	f7fb feb6 	bl	10002698 <__wrap___aeabi_memcpy>
1000692c:	e79c      	b.n	10006868 <tu_fifo_write_n+0x90>
1000692e:	0079      	lsls	r1, r7, #1
10006930:	1aca      	subs	r2, r1, r3
10006932:	4442      	add	r2, r8
10006934:	b292      	uxth	r2, r2
10006936:	e7b1      	b.n	1000689c <tu_fifo_write_n+0xc4>
10006938:	4291      	cmp	r1, r2
1000693a:	ddbc      	ble.n	100068b6 <tu_fifo_write_n+0xde>
1000693c:	e7c2      	b.n	100068c4 <tu_fifo_write_n+0xec>
1000693e:	46c0      	nop			@ (mov r8, r8)

10006940 <tu_fifo_clear>:
10006940:	b510      	push	{r4, lr}
10006942:	0004      	movs	r4, r0
10006944:	68c0      	ldr	r0, [r0, #12]
10006946:	2800      	cmp	r0, #0
10006948:	d003      	beq.n	10006952 <tu_fifo_clear+0x12>
1000694a:	2101      	movs	r1, #1
1000694c:	4249      	negs	r1, r1
1000694e:	f000 f9f3 	bl	10006d38 <__mutex_enter_timeout_ms_veneer>
10006952:	6920      	ldr	r0, [r4, #16]
10006954:	2800      	cmp	r0, #0
10006956:	d003      	beq.n	10006960 <tu_fifo_clear+0x20>
10006958:	2101      	movs	r1, #1
1000695a:	4249      	negs	r1, r1
1000695c:	f000 f9ec 	bl	10006d38 <__mutex_enter_timeout_ms_veneer>
10006960:	2300      	movs	r3, #0
10006962:	68e0      	ldr	r0, [r4, #12]
10006964:	8163      	strh	r3, [r4, #10]
10006966:	8123      	strh	r3, [r4, #8]
10006968:	2800      	cmp	r0, #0
1000696a:	d001      	beq.n	10006970 <tu_fifo_clear+0x30>
1000696c:	f000 f9bc 	bl	10006ce8 <__mutex_exit_veneer>
10006970:	6920      	ldr	r0, [r4, #16]
10006972:	2800      	cmp	r0, #0
10006974:	d001      	beq.n	1000697a <tu_fifo_clear+0x3a>
10006976:	f000 f9b7 	bl	10006ce8 <__mutex_exit_veneer>
1000697a:	2001      	movs	r0, #1
1000697c:	bd10      	pop	{r4, pc}
1000697e:	46c0      	nop			@ (mov r8, r8)

10006980 <tu_fifo_set_overwritable>:
10006980:	b570      	push	{r4, r5, r6, lr}
10006982:	0004      	movs	r4, r0
10006984:	68c0      	ldr	r0, [r0, #12]
10006986:	000d      	movs	r5, r1
10006988:	2800      	cmp	r0, #0
1000698a:	d003      	beq.n	10006994 <tu_fifo_set_overwritable+0x14>
1000698c:	2101      	movs	r1, #1
1000698e:	4249      	negs	r1, r1
10006990:	f000 f9d2 	bl	10006d38 <__mutex_enter_timeout_ms_veneer>
10006994:	6920      	ldr	r0, [r4, #16]
10006996:	2800      	cmp	r0, #0
10006998:	d003      	beq.n	100069a2 <tu_fifo_set_overwritable+0x22>
1000699a:	2101      	movs	r1, #1
1000699c:	4249      	negs	r1, r1
1000699e:	f000 f9cb 	bl	10006d38 <__mutex_enter_timeout_ms_veneer>
100069a2:	217f      	movs	r1, #127	@ 0x7f
100069a4:	79e2      	ldrb	r2, [r4, #7]
100069a6:	01eb      	lsls	r3, r5, #7
100069a8:	4011      	ands	r1, r2
100069aa:	68e0      	ldr	r0, [r4, #12]
100069ac:	4319      	orrs	r1, r3
100069ae:	71e1      	strb	r1, [r4, #7]
100069b0:	2800      	cmp	r0, #0
100069b2:	d001      	beq.n	100069b8 <tu_fifo_set_overwritable+0x38>
100069b4:	f000 f998 	bl	10006ce8 <__mutex_exit_veneer>
100069b8:	6920      	ldr	r0, [r4, #16]
100069ba:	2800      	cmp	r0, #0
100069bc:	d001      	beq.n	100069c2 <tu_fifo_set_overwritable+0x42>
100069be:	f000 f993 	bl	10006ce8 <__mutex_exit_veneer>
100069c2:	2001      	movs	r0, #1
100069c4:	bd70      	pop	{r4, r5, r6, pc}
100069c6:	46c0      	nop			@ (mov r8, r8)

100069c8 <i2c_read_blocking_internal.constprop.0>:
100069c8:	b5f0      	push	{r4, r5, r6, r7, lr}
100069ca:	46de      	mov	lr, fp
100069cc:	4657      	mov	r7, sl
100069ce:	464e      	mov	r6, r9
100069d0:	4645      	mov	r5, r8
100069d2:	b5e0      	push	{r5, r6, r7, lr}
100069d4:	0006      	movs	r6, r0
100069d6:	b083      	sub	sp, #12
100069d8:	001f      	movs	r7, r3
100069da:	ab0c      	add	r3, sp, #48	@ 0x30
100069dc:	0008      	movs	r0, r1
100069de:	7819      	ldrb	r1, [r3, #0]
100069e0:	2300      	movs	r3, #0
100069e2:	4693      	mov	fp, r2
100069e4:	6832      	ldr	r2, [r6, #0]
100069e6:	66d3      	str	r3, [r2, #108]	@ 0x6c
100069e8:	3301      	adds	r3, #1
100069ea:	6050      	str	r0, [r2, #4]
100069ec:	66d3      	str	r3, [r2, #108]	@ 0x6c
100069ee:	2f00      	cmp	r7, #0
100069f0:	dd3b      	ble.n	10006a6a <i2c_read_blocking_internal.constprop.0+0xa2>
100069f2:	1e7b      	subs	r3, r7, #1
100069f4:	4699      	mov	r9, r3
100069f6:	2301      	movs	r3, #1
100069f8:	404b      	eors	r3, r1
100069fa:	469a      	mov	sl, r3
100069fc:	2000      	movs	r0, #0
100069fe:	2480      	movs	r4, #128	@ 0x80
10006a00:	2340      	movs	r3, #64	@ 0x40
10006a02:	4688      	mov	r8, r1
10006a04:	6f55      	ldr	r5, [r2, #116]	@ 0x74
10006a06:	2d10      	cmp	r5, #16
10006a08:	d0fc      	beq.n	10006a04 <i2c_read_blocking_internal.constprop.0+0x3c>
10006a0a:	2500      	movs	r5, #0
10006a0c:	46ac      	mov	ip, r5
10006a0e:	2800      	cmp	r0, #0
10006a10:	d102      	bne.n	10006a18 <i2c_read_blocking_internal.constprop.0+0x50>
10006a12:	7935      	ldrb	r5, [r6, #4]
10006a14:	02a9      	lsls	r1, r5, #10
10006a16:	468c      	mov	ip, r1
10006a18:	464d      	mov	r5, r9
10006a1a:	1b41      	subs	r1, r0, r5
10006a1c:	424d      	negs	r5, r1
10006a1e:	414d      	adcs	r5, r1
10006a20:	4651      	mov	r1, sl
10006a22:	400d      	ands	r5, r1
10006a24:	4661      	mov	r1, ip
10006a26:	026d      	lsls	r5, r5, #9
10006a28:	430d      	orrs	r5, r1
10006a2a:	2180      	movs	r1, #128	@ 0x80
10006a2c:	0049      	lsls	r1, r1, #1
10006a2e:	430d      	orrs	r5, r1
10006a30:	4641      	mov	r1, r8
10006a32:	6115      	str	r5, [r2, #16]
10006a34:	5915      	ldr	r5, [r2, r4]
10006a36:	6b55      	ldr	r5, [r2, #52]	@ 0x34
10006a38:	422b      	tst	r3, r5
10006a3a:	d00a      	beq.n	10006a52 <i2c_read_blocking_internal.constprop.0+0x8a>
10006a3c:	2001      	movs	r0, #1
10006a3e:	6d53      	ldr	r3, [r2, #84]	@ 0x54
10006a40:	4240      	negs	r0, r0
10006a42:	7131      	strb	r1, [r6, #4]
10006a44:	b003      	add	sp, #12
10006a46:	bcf0      	pop	{r4, r5, r6, r7}
10006a48:	46bb      	mov	fp, r7
10006a4a:	46b2      	mov	sl, r6
10006a4c:	46a9      	mov	r9, r5
10006a4e:	46a0      	mov	r8, r4
10006a50:	bdf0      	pop	{r4, r5, r6, r7, pc}
10006a52:	6f95      	ldr	r5, [r2, #120]	@ 0x78
10006a54:	2d00      	cmp	r5, #0
10006a56:	d0ed      	beq.n	10006a34 <i2c_read_blocking_internal.constprop.0+0x6c>
10006a58:	4688      	mov	r8, r1
10006a5a:	4659      	mov	r1, fp
10006a5c:	6912      	ldr	r2, [r2, #16]
10006a5e:	540a      	strb	r2, [r1, r0]
10006a60:	3001      	adds	r0, #1
10006a62:	4287      	cmp	r7, r0
10006a64:	d003      	beq.n	10006a6e <i2c_read_blocking_internal.constprop.0+0xa6>
10006a66:	6832      	ldr	r2, [r6, #0]
10006a68:	e7cc      	b.n	10006a04 <i2c_read_blocking_internal.constprop.0+0x3c>
10006a6a:	2000      	movs	r0, #0
10006a6c:	e7e9      	b.n	10006a42 <i2c_read_blocking_internal.constprop.0+0x7a>
10006a6e:	4641      	mov	r1, r8
10006a70:	e7e7      	b.n	10006a42 <i2c_read_blocking_internal.constprop.0+0x7a>
10006a72:	46c0      	nop			@ (mov r8, r8)

10006a74 <i2c_write_blocking_internal.constprop.0>:
10006a74:	b5f0      	push	{r4, r5, r6, r7, lr}
10006a76:	464e      	mov	r6, r9
10006a78:	4645      	mov	r5, r8
10006a7a:	46de      	mov	lr, fp
10006a7c:	4657      	mov	r7, sl
10006a7e:	4684      	mov	ip, r0
10006a80:	b5e0      	push	{r5, r6, r7, lr}
10006a82:	b085      	sub	sp, #20
10006a84:	4698      	mov	r8, r3
10006a86:	ab0e      	add	r3, sp, #56	@ 0x38
10006a88:	4691      	mov	r9, r2
10006a8a:	781a      	ldrb	r2, [r3, #0]
10006a8c:	4663      	mov	r3, ip
10006a8e:	0008      	movs	r0, r1
10006a90:	6819      	ldr	r1, [r3, #0]
10006a92:	2300      	movs	r3, #0
10006a94:	66cb      	str	r3, [r1, #108]	@ 0x6c
10006a96:	3301      	adds	r3, #1
10006a98:	6048      	str	r0, [r1, #4]
10006a9a:	66cb      	str	r3, [r1, #108]	@ 0x6c
10006a9c:	4643      	mov	r3, r8
10006a9e:	9203      	str	r2, [sp, #12]
10006aa0:	2b00      	cmp	r3, #0
10006aa2:	dd4e      	ble.n	10006b42 <i2c_write_blocking_internal.constprop.0+0xce>
10006aa4:	2701      	movs	r7, #1
10006aa6:	1e5e      	subs	r6, r3, #1
10006aa8:	4663      	mov	r3, ip
10006aaa:	2480      	movs	r4, #128	@ 0x80
10006aac:	4057      	eors	r7, r2
10006aae:	791a      	ldrb	r2, [r3, #4]
10006ab0:	46a2      	mov	sl, r4
10006ab2:	2580      	movs	r5, #128	@ 0x80
10006ab4:	464c      	mov	r4, r9
10006ab6:	0292      	lsls	r2, r2, #10
10006ab8:	2000      	movs	r0, #0
10006aba:	2310      	movs	r3, #16
10006abc:	4691      	mov	r9, r2
10006abe:	00ad      	lsls	r5, r5, #2
10006ac0:	9401      	str	r4, [sp, #4]
10006ac2:	1b84      	subs	r4, r0, r6
10006ac4:	4262      	negs	r2, r4
10006ac6:	4162      	adcs	r2, r4
10006ac8:	9c01      	ldr	r4, [sp, #4]
10006aca:	403a      	ands	r2, r7
10006acc:	5c24      	ldrb	r4, [r4, r0]
10006ace:	0252      	lsls	r2, r2, #9
10006ad0:	4322      	orrs	r2, r4
10006ad2:	464c      	mov	r4, r9
10006ad4:	4322      	orrs	r2, r4
10006ad6:	9c01      	ldr	r4, [sp, #4]
10006ad8:	610a      	str	r2, [r1, #16]
10006ada:	6b4a      	ldr	r2, [r1, #52]	@ 0x34
10006adc:	4213      	tst	r3, r2
10006ade:	d0fc      	beq.n	10006ada <i2c_write_blocking_internal.constprop.0+0x66>
10006ae0:	4652      	mov	r2, sl
10006ae2:	588a      	ldr	r2, [r1, r2]
10006ae4:	9401      	str	r4, [sp, #4]
10006ae6:	4691      	mov	r9, r2
10006ae8:	2a00      	cmp	r2, #0
10006aea:	d110      	bne.n	10006b0e <i2c_write_blocking_internal.constprop.0+0x9a>
10006aec:	42b0      	cmp	r0, r6
10006aee:	d023      	beq.n	10006b38 <i2c_write_blocking_internal.constprop.0+0xc4>
10006af0:	2200      	movs	r2, #0
10006af2:	3001      	adds	r0, #1
10006af4:	4691      	mov	r9, r2
10006af6:	4580      	cmp	r8, r0
10006af8:	d1e3      	bne.n	10006ac2 <i2c_write_blocking_internal.constprop.0+0x4e>
10006afa:	4663      	mov	r3, ip
10006afc:	9a03      	ldr	r2, [sp, #12]
10006afe:	711a      	strb	r2, [r3, #4]
10006b00:	b005      	add	sp, #20
10006b02:	bcf0      	pop	{r4, r5, r6, r7}
10006b04:	46bb      	mov	fp, r7
10006b06:	46b2      	mov	sl, r6
10006b08:	46a9      	mov	r9, r5
10006b0a:	46a0      	mov	r8, r4
10006b0c:	bdf0      	pop	{r4, r5, r6, r7, pc}
10006b0e:	6d4a      	ldr	r2, [r1, #84]	@ 0x54
10006b10:	2201      	movs	r2, #1
10006b12:	4693      	mov	fp, r2
10006b14:	6b4a      	ldr	r2, [r1, #52]	@ 0x34
10006b16:	422a      	tst	r2, r5
10006b18:	d0fc      	beq.n	10006b14 <i2c_write_blocking_internal.constprop.0+0xa0>
10006b1a:	6e0a      	ldr	r2, [r1, #96]	@ 0x60
10006b1c:	465a      	mov	r2, fp
10006b1e:	9401      	str	r4, [sp, #4]
10006b20:	2a00      	cmp	r2, #0
10006b22:	d0e5      	beq.n	10006af0 <i2c_write_blocking_internal.constprop.0+0x7c>
10006b24:	464c      	mov	r4, r9
10006b26:	2c00      	cmp	r4, #0
10006b28:	d003      	beq.n	10006b32 <i2c_write_blocking_internal.constprop.0+0xbe>
10006b2a:	2309      	movs	r3, #9
10006b2c:	4023      	ands	r3, r4
10006b2e:	2b08      	cmp	r3, #8
10006b30:	d0e3      	beq.n	10006afa <i2c_write_blocking_internal.constprop.0+0x86>
10006b32:	2001      	movs	r0, #1
10006b34:	4240      	negs	r0, r0
10006b36:	e7e0      	b.n	10006afa <i2c_write_blocking_internal.constprop.0+0x86>
10006b38:	9a03      	ldr	r2, [sp, #12]
10006b3a:	2a00      	cmp	r2, #0
10006b3c:	d1d8      	bne.n	10006af0 <i2c_write_blocking_internal.constprop.0+0x7c>
10006b3e:	4693      	mov	fp, r2
10006b40:	e7e8      	b.n	10006b14 <i2c_write_blocking_internal.constprop.0+0xa0>
10006b42:	2000      	movs	r0, #0
10006b44:	e7d9      	b.n	10006afa <i2c_write_blocking_internal.constprop.0+0x86>
10006b46:	46c0      	nop			@ (mov r8, r8)

10006b48 <i2c_set_baudrate>:
10006b48:	b5f0      	push	{r4, r5, r6, r7, lr}
10006b4a:	46d6      	mov	lr, sl
10006b4c:	464f      	mov	r7, r9
10006b4e:	4646      	mov	r6, r8
10006b50:	4682      	mov	sl, r0
10006b52:	b5c0      	push	{r6, r7, lr}
10006b54:	2005      	movs	r0, #5
10006b56:	000c      	movs	r4, r1
10006b58:	f7fa fca6 	bl	100014a8 <clock_get_hz>
10006b5c:	0005      	movs	r5, r0
10006b5e:	0860      	lsrs	r0, r4, #1
10006b60:	0021      	movs	r1, r4
10006b62:	1940      	adds	r0, r0, r5
10006b64:	f7fa ff02 	bl	1000196c <__wrap___aeabi_uidiv>
10006b68:	0047      	lsls	r7, r0, #1
10006b6a:	183f      	adds	r7, r7, r0
10006b6c:	0006      	movs	r6, r0
10006b6e:	2105      	movs	r1, #5
10006b70:	0038      	movs	r0, r7
10006b72:	f7fa fefb 	bl	1000196c <__wrap___aeabi_uidiv>
10006b76:	46a0      	mov	r8, r4
10006b78:	4b1c      	ldr	r3, [pc, #112]	@ (10006bec <i2c_set_baudrate+0xa4>)
10006b7a:	1a32      	subs	r2, r6, r0
10006b7c:	0004      	movs	r4, r0
10006b7e:	0068      	lsls	r0, r5, #1
10006b80:	4691      	mov	r9, r2
10006b82:	1940      	adds	r0, r0, r5
10006b84:	4598      	cmp	r8, r3
10006b86:	d82b      	bhi.n	10006be0 <i2c_set_baudrate+0x98>
10006b88:	4919      	ldr	r1, [pc, #100]	@ (10006bf0 <i2c_set_baudrate+0xa8>)
10006b8a:	f7fa feef 	bl	1000196c <__wrap___aeabi_uidiv>
10006b8e:	3001      	adds	r0, #1
10006b90:	4653      	mov	r3, sl
10006b92:	2200      	movs	r2, #0
10006b94:	681b      	ldr	r3, [r3, #0]
10006b96:	66da      	str	r2, [r3, #108]	@ 0x6c
10006b98:	6819      	ldr	r1, [r3, #0]
10006b9a:	3204      	adds	r2, #4
10006b9c:	4051      	eors	r1, r2
10006b9e:	3202      	adds	r2, #2
10006ba0:	400a      	ands	r2, r1
10006ba2:	2180      	movs	r1, #128	@ 0x80
10006ba4:	0149      	lsls	r1, r1, #5
10006ba6:	1859      	adds	r1, r3, r1
10006ba8:	600a      	str	r2, [r1, #0]
10006baa:	464a      	mov	r2, r9
10006bac:	61da      	str	r2, [r3, #28]
10006bae:	2201      	movs	r2, #1
10006bb0:	621c      	str	r4, [r3, #32]
10006bb2:	2f4f      	cmp	r7, #79	@ 0x4f
10006bb4:	d900      	bls.n	10006bb8 <i2c_set_baudrate+0x70>
10006bb6:	0922      	lsrs	r2, r4, #4
10006bb8:	21a0      	movs	r1, #160	@ 0xa0
10006bba:	505a      	str	r2, [r3, r1]
10006bbc:	6fda      	ldr	r2, [r3, #124]	@ 0x7c
10006bbe:	0031      	movs	r1, r6
10006bc0:	4050      	eors	r0, r2
10006bc2:	4a0c      	ldr	r2, [pc, #48]	@ (10006bf4 <i2c_set_baudrate+0xac>)
10006bc4:	0400      	lsls	r0, r0, #16
10006bc6:	189a      	adds	r2, r3, r2
10006bc8:	0c00      	lsrs	r0, r0, #16
10006bca:	6010      	str	r0, [r2, #0]
10006bcc:	2201      	movs	r2, #1
10006bce:	0028      	movs	r0, r5
10006bd0:	66da      	str	r2, [r3, #108]	@ 0x6c
10006bd2:	f7fa fecb 	bl	1000196c <__wrap___aeabi_uidiv>
10006bd6:	bce0      	pop	{r5, r6, r7}
10006bd8:	46ba      	mov	sl, r7
10006bda:	46b1      	mov	r9, r6
10006bdc:	46a8      	mov	r8, r5
10006bde:	bdf0      	pop	{r4, r5, r6, r7, pc}
10006be0:	4905      	ldr	r1, [pc, #20]	@ (10006bf8 <i2c_set_baudrate+0xb0>)
10006be2:	f7fa fec3 	bl	1000196c <__wrap___aeabi_uidiv>
10006be6:	3001      	adds	r0, #1
10006be8:	e7d2      	b.n	10006b90 <i2c_set_baudrate+0x48>
10006bea:	46c0      	nop			@ (mov r8, r8)
10006bec:	000f423f 	.word	0x000f423f
10006bf0:	00989680 	.word	0x00989680
10006bf4:	0000107c 	.word	0x0000107c
10006bf8:	017d7840 	.word	0x017d7840

10006bfc <i2c_init>:
10006bfc:	4a0f      	ldr	r2, [pc, #60]	@ (10006c3c <i2c_init+0x40>)
10006bfe:	b570      	push	{r4, r5, r6, lr}
10006c00:	1a82      	subs	r2, r0, r2
10006c02:	1e53      	subs	r3, r2, #1
10006c04:	419a      	sbcs	r2, r3
10006c06:	4b0e      	ldr	r3, [pc, #56]	@ (10006c40 <i2c_init+0x44>)
10006c08:	00d2      	lsls	r2, r2, #3
10006c0a:	3208      	adds	r2, #8
10006c0c:	601a      	str	r2, [r3, #0]
10006c0e:	4b0d      	ldr	r3, [pc, #52]	@ (10006c44 <i2c_init+0x48>)
10006c10:	4c0d      	ldr	r4, [pc, #52]	@ (10006c48 <i2c_init+0x4c>)
10006c12:	601a      	str	r2, [r3, #0]
10006c14:	0015      	movs	r5, r2
10006c16:	6823      	ldr	r3, [r4, #0]
10006c18:	439d      	bics	r5, r3
10006c1a:	1e2b      	subs	r3, r5, #0
10006c1c:	d1fa      	bne.n	10006c14 <i2c_init+0x18>
10006c1e:	2466      	movs	r4, #102	@ 0x66
10006c20:	6802      	ldr	r2, [r0, #0]
10006c22:	34ff      	adds	r4, #255	@ 0xff
10006c24:	7105      	strb	r5, [r0, #4]
10006c26:	66d5      	str	r5, [r2, #108]	@ 0x6c
10006c28:	6014      	str	r4, [r2, #0]
10006c2a:	3c63      	subs	r4, #99	@ 0x63
10006c2c:	3388      	adds	r3, #136	@ 0x88
10006c2e:	3cff      	subs	r4, #255	@ 0xff
10006c30:	63d5      	str	r5, [r2, #60]	@ 0x3c
10006c32:	6395      	str	r5, [r2, #56]	@ 0x38
10006c34:	50d4      	str	r4, [r2, r3]
10006c36:	f7ff ff87 	bl	10006b48 <i2c_set_baudrate>
10006c3a:	bd70      	pop	{r4, r5, r6, pc}
10006c3c:	20001058 	.word	0x20001058
10006c40:	4000e000 	.word	0x4000e000
10006c44:	4000f000 	.word	0x4000f000
10006c48:	4000c008 	.word	0x4000c008

10006c4c <i2c_write_blocking>:
10006c4c:	b510      	push	{r4, lr}
10006c4e:	b082      	sub	sp, #8
10006c50:	466c      	mov	r4, sp
10006c52:	7c24      	ldrb	r4, [r4, #16]
10006c54:	9400      	str	r4, [sp, #0]
10006c56:	f7ff ff0d 	bl	10006a74 <i2c_write_blocking_internal.constprop.0>
10006c5a:	b002      	add	sp, #8
10006c5c:	bd10      	pop	{r4, pc}
10006c5e:	46c0      	nop			@ (mov r8, r8)

10006c60 <i2c_read_blocking>:
10006c60:	b510      	push	{r4, lr}
10006c62:	b082      	sub	sp, #8
10006c64:	466c      	mov	r4, sp
10006c66:	7c24      	ldrb	r4, [r4, #16]
10006c68:	9400      	str	r4, [sp, #0]
10006c6a:	f7ff fead 	bl	100069c8 <i2c_read_blocking_internal.constprop.0>
10006c6e:	b002      	add	sp, #8
10006c70:	bd10      	pop	{r4, pc}
10006c72:	46c0      	nop			@ (mov r8, r8)

10006c74 <strlen>:
10006c74:	0003      	movs	r3, r0
10006c76:	4684      	mov	ip, r0
10006c78:	079b      	lsls	r3, r3, #30
10006c7a:	d00b      	beq.n	10006c94 <strlen+0x20>
10006c7c:	0003      	movs	r3, r0
10006c7e:	2103      	movs	r1, #3
10006c80:	e002      	b.n	10006c88 <strlen+0x14>
10006c82:	3301      	adds	r3, #1
10006c84:	420b      	tst	r3, r1
10006c86:	d006      	beq.n	10006c96 <strlen+0x22>
10006c88:	781a      	ldrb	r2, [r3, #0]
10006c8a:	2a00      	cmp	r2, #0
10006c8c:	d1f9      	bne.n	10006c82 <strlen+0xe>
10006c8e:	4662      	mov	r2, ip
10006c90:	1a98      	subs	r0, r3, r2
10006c92:	4770      	bx	lr
10006c94:	0003      	movs	r3, r0
10006c96:	6819      	ldr	r1, [r3, #0]
10006c98:	4a0c      	ldr	r2, [pc, #48]	@ (10006ccc <strlen+0x58>)
10006c9a:	480d      	ldr	r0, [pc, #52]	@ (10006cd0 <strlen+0x5c>)
10006c9c:	188a      	adds	r2, r1, r2
10006c9e:	438a      	bics	r2, r1
10006ca0:	4202      	tst	r2, r0
10006ca2:	d10f      	bne.n	10006cc4 <strlen+0x50>
10006ca4:	6859      	ldr	r1, [r3, #4]
10006ca6:	4a09      	ldr	r2, [pc, #36]	@ (10006ccc <strlen+0x58>)
10006ca8:	3304      	adds	r3, #4
10006caa:	188a      	adds	r2, r1, r2
10006cac:	438a      	bics	r2, r1
10006cae:	4202      	tst	r2, r0
10006cb0:	d108      	bne.n	10006cc4 <strlen+0x50>
10006cb2:	6859      	ldr	r1, [r3, #4]
10006cb4:	4a05      	ldr	r2, [pc, #20]	@ (10006ccc <strlen+0x58>)
10006cb6:	3304      	adds	r3, #4
10006cb8:	188a      	adds	r2, r1, r2
10006cba:	438a      	bics	r2, r1
10006cbc:	4202      	tst	r2, r0
10006cbe:	d0f1      	beq.n	10006ca4 <strlen+0x30>
10006cc0:	e000      	b.n	10006cc4 <strlen+0x50>
10006cc2:	3301      	adds	r3, #1
10006cc4:	781a      	ldrb	r2, [r3, #0]
10006cc6:	2a00      	cmp	r2, #0
10006cc8:	d1fb      	bne.n	10006cc2 <strlen+0x4e>
10006cca:	e7e0      	b.n	10006c8e <strlen+0x1a>
10006ccc:	fefefeff 	.word	0xfefefeff
10006cd0:	80808080 	.word	0x80808080

10006cd4 <_fini>:
10006cd4:	b5f8      	push	{r3, r4, r5, r6, r7, lr}
10006cd6:	46c0      	nop			@ (mov r8, r8)

10006cd8 <__flash_do_cmd_veneer>:
10006cd8:	b401      	push	{r0}
10006cda:	4802      	ldr	r0, [pc, #8]	@ (10006ce4 <__flash_do_cmd_veneer+0xc>)
10006cdc:	4684      	mov	ip, r0
10006cde:	bc01      	pop	{r0}
10006ce0:	4760      	bx	ip
10006ce2:	bf00      	nop
10006ce4:	20000301 	.word	0x20000301

10006ce8 <__mutex_exit_veneer>:
10006ce8:	b401      	push	{r0}
10006cea:	4802      	ldr	r0, [pc, #8]	@ (10006cf4 <__mutex_exit_veneer+0xc>)
10006cec:	4684      	mov	ip, r0
10006cee:	bc01      	pop	{r0}
10006cf0:	4760      	bx	ip
10006cf2:	bf00      	nop
10006cf4:	20000225 	.word	0x20000225

10006cf8 <____aeabi_ldiv0_veneer>:
10006cf8:	b401      	push	{r0}
10006cfa:	4802      	ldr	r0, [pc, #8]	@ (10006d04 <____aeabi_ldiv0_veneer+0xc>)
10006cfc:	4684      	mov	ip, r0
10006cfe:	bc01      	pop	{r0}
10006d00:	4760      	bx	ip
10006d02:	bf00      	nop
10006d04:	20000f11 	.word	0x20000f11

10006d08 <__e15_is_critical_frame_period_veneer>:
10006d08:	b401      	push	{r0}
10006d0a:	4802      	ldr	r0, [pc, #8]	@ (10006d14 <__e15_is_critical_frame_period_veneer+0xc>)
10006d0c:	4684      	mov	ip, r0
10006d0e:	bc01      	pop	{r0}
10006d10:	4760      	bx	ip
10006d12:	bf00      	nop
10006d14:	20000c05 	.word	0x20000c05

10006d18 <____aeabi_idiv0_veneer>:
10006d18:	b401      	push	{r0}
10006d1a:	4802      	ldr	r0, [pc, #8]	@ (10006d24 <____aeabi_idiv0_veneer+0xc>)
10006d1c:	4684      	mov	ip, r0
10006d1e:	bc01      	pop	{r0}
10006d20:	4760      	bx	ip
10006d22:	bf00      	nop
10006d24:	20000f11 	.word	0x20000f11

10006d28 <__mutex_try_enter_veneer>:
10006d28:	b401      	push	{r0}
10006d2a:	4802      	ldr	r0, [pc, #8]	@ (10006d34 <__mutex_try_enter_veneer+0xc>)
10006d2c:	4684      	mov	ip, r0
10006d2e:	bc01      	pop	{r0}
10006d30:	4760      	bx	ip
10006d32:	bf00      	nop
10006d34:	200000c1 	.word	0x200000c1

10006d38 <__mutex_enter_timeout_ms_veneer>:
10006d38:	b401      	push	{r0}
10006d3a:	4802      	ldr	r0, [pc, #8]	@ (10006d44 <__mutex_enter_timeout_ms_veneer+0xc>)
10006d3c:	4684      	mov	ip, r0
10006d3e:	bc01      	pop	{r0}
10006d40:	4760      	bx	ip
10006d42:	bf00      	nop
10006d44:	20000199 	.word	0x20000199

10006d48 <__reset_non_control_endpoints_veneer>:
10006d48:	b401      	push	{r0}
10006d4a:	4802      	ldr	r0, [pc, #8]	@ (10006d54 <__reset_non_control_endpoints_veneer+0xc>)
10006d4c:	4684      	mov	ip, r0
10006d4e:	bc01      	pop	{r0}
10006d50:	4760      	bx	ip
10006d52:	bf00      	nop
10006d54:	20000425 	.word	0x20000425

10006d58 <__e15_is_bulkin_ep_veneer>:
10006d58:	b401      	push	{r0}
10006d5a:	4802      	ldr	r0, [pc, #8]	@ (10006d64 <__e15_is_bulkin_ep_veneer+0xc>)
10006d5c:	4684      	mov	ip, r0
10006d5e:	bc01      	pop	{r0}
10006d60:	4760      	bx	ip
10006d62:	bf00      	nop
10006d64:	20000bdd 	.word	0x20000bdd

10006d68 <__mutex_try_enter_block_until_veneer>:
10006d68:	b401      	push	{r0}
10006d6a:	4802      	ldr	r0, [pc, #8]	@ (10006d74 <__mutex_try_enter_block_until_veneer+0xc>)
10006d6c:	4684      	mov	ip, r0
10006d6e:	bc01      	pop	{r0}
10006d70:	4760      	bx	ip
10006d72:	bf00      	nop
10006d74:	20000101 	.word	0x20000101

10006d78 <__hw_endpoint_start_next_buffer_veneer>:
10006d78:	b401      	push	{r0}
10006d7a:	4802      	ldr	r0, [pc, #8]	@ (10006d84 <__hw_endpoint_start_next_buffer_veneer+0xc>)
10006d7c:	4684      	mov	ip, r0
10006d7e:	bc01      	pop	{r0}
10006d80:	4760      	bx	ip
10006d82:	bf00      	nop
10006d84:	20000c91 	.word	0x20000c91

10006d88 <___hw_endpoint_buffer_control_update32_veneer>:
10006d88:	b401      	push	{r0}
10006d8a:	4802      	ldr	r0, [pc, #8]	@ (10006d94 <___hw_endpoint_buffer_control_update32_veneer+0xc>)
10006d8c:	4684      	mov	ip, r0
10006d8e:	bc01      	pop	{r0}
10006d90:	4760      	bx	ip
10006d92:	bf00      	nop
10006d94:	20000c41 	.word	0x20000c41

10006d98 <__pre_init_runtime_init_early_resets>:
10006d98:	100016f9                                ....

10006d9c <__pre_init_runtime_init_usb_power_down>:
10006d9c:	10001725 1000190d 1000267d 10001fb1     %.......}&......
10006dac:	100025e9                                .%..

10006db0 <__pre_init_runtime_init_clocks>:
10006db0:	10001835                                5...

10006db4 <__pre_init_runtime_init_post_clock_resets>:
10006db4:	10001741                                A...

10006db8 <__pre_init_runtime_init_rp2040_gpio_ie_disable>:
10006db8:	10001761                                a...

10006dbc <__pre_init_runtime_init_spin_locks_reset>:
10006dbc:	10001775                                u...

10006dc0 <__pre_init_runtime_init_mutex>:
10006dc0:	100009e9                                ....

10006dc4 <__pre_init_runtime_init_install_ram_vector_table>:
10006dc4:	1000177d                                }...

10006dc8 <__pre_init_runtime_init_default_alarm_pool>:
10006dc8:	10000da9                                ....

10006dcc <__pre_init_first_per_core_initializer>:
10006dcc:	100016c1                                ....

10006dd0 <__pre_init_runtime_init_per_core_irq_priorities>:
10006dd0:	10000629                                )...

10006dd4 <__init_array_start>:
10006dd4:	100047c5 	.word	0x100047c5

10006dd8 <__frame_dummy_init_array_entry>:
10006dd8:	100002b1                                ....

Disassembly of section .data:

200000c0 <mutex_try_enter>:
200000c0:	0003      	movs	r3, r0
200000c2:	6800      	ldr	r0, [r0, #0]
200000c4:	f3ef 8c10 	mrs	ip, PRIMASK
200000c8:	b672      	cpsid	i
200000ca:	6802      	ldr	r2, [r0, #0]
200000cc:	2a00      	cmp	r2, #0
200000ce:	d0fc      	beq.n	200000ca <mutex_try_enter+0xa>
200000d0:	f3bf 8f5f 	dmb	sy
200000d4:	2204      	movs	r2, #4
200000d6:	569a      	ldrsb	r2, [r3, r2]
200000d8:	2a00      	cmp	r2, #0
200000da:	db0b      	blt.n	200000f4 <mutex_try_enter+0x34>
200000dc:	2900      	cmp	r1, #0
200000de:	d000      	beq.n	200000e2 <mutex_try_enter+0x22>
200000e0:	600a      	str	r2, [r1, #0]
200000e2:	2000      	movs	r0, #0
200000e4:	681b      	ldr	r3, [r3, #0]
200000e6:	f3bf 8f5f 	dmb	sy
200000ea:	2200      	movs	r2, #0
200000ec:	601a      	str	r2, [r3, #0]
200000ee:	f38c 8810 	msr	PRIMASK, ip
200000f2:	4770      	bx	lr
200000f4:	22d0      	movs	r2, #208	@ 0xd0
200000f6:	0612      	lsls	r2, r2, #24
200000f8:	6812      	ldr	r2, [r2, #0]
200000fa:	2001      	movs	r0, #1
200000fc:	711a      	strb	r2, [r3, #4]
200000fe:	e7f1      	b.n	200000e4 <mutex_try_enter+0x24>

20000100 <mutex_try_enter_block_until>:
20000100:	b5f0      	push	{r4, r5, r6, r7, lr}
20000102:	46c6      	mov	lr, r8
20000104:	0016      	movs	r6, r2
20000106:	b500      	push	{lr}
20000108:	0004      	movs	r4, r0
2000010a:	001f      	movs	r7, r3
2000010c:	6802      	ldr	r2, [r0, #0]
2000010e:	f3ef 8110 	mrs	r1, PRIMASK
20000112:	b672      	cpsid	i
20000114:	6813      	ldr	r3, [r2, #0]
20000116:	2b00      	cmp	r3, #0
20000118:	d0fc      	beq.n	20000114 <mutex_try_enter_block_until+0x14>
2000011a:	f3bf 8f5f 	dmb	sy
2000011e:	2304      	movs	r3, #4
20000120:	56e3      	ldrsb	r3, [r4, r3]
20000122:	6822      	ldr	r2, [r4, #0]
20000124:	2b00      	cmp	r3, #0
20000126:	db2b      	blt.n	20000180 <mutex_try_enter_block_until+0x80>
20000128:	f3bf 8f5f 	dmb	sy
2000012c:	2000      	movs	r0, #0
2000012e:	6010      	str	r0, [r2, #0]
20000130:	f381 8810 	msr	PRIMASK, r1
20000134:	22d0      	movs	r2, #208	@ 0xd0
20000136:	0612      	lsls	r2, r2, #24
20000138:	7812      	ldrb	r2, [r2, #0]
2000013a:	2500      	movs	r5, #0
2000013c:	b252      	sxtb	r2, r2
2000013e:	4690      	mov	r8, r2
20000140:	429a      	cmp	r2, r3
20000142:	d10e      	bne.n	20000162 <mutex_try_enter_block_until+0x62>
20000144:	2000      	movs	r0, #0
20000146:	bc80      	pop	{r7}
20000148:	46b8      	mov	r8, r7
2000014a:	bdf0      	pop	{r4, r5, r6, r7, pc}
2000014c:	f3bf 8f5f 	dmb	sy
20000150:	6015      	str	r5, [r2, #0]
20000152:	f381 8810 	msr	PRIMASK, r1
20000156:	0030      	movs	r0, r6
20000158:	0039      	movs	r1, r7
2000015a:	f000 fee5 	bl	20000f28 <__best_effort_wfe_or_timeout_veneer>
2000015e:	2800      	cmp	r0, #0
20000160:	d1f0      	bne.n	20000144 <mutex_try_enter_block_until+0x44>
20000162:	6822      	ldr	r2, [r4, #0]
20000164:	f3ef 8110 	mrs	r1, PRIMASK
20000168:	b672      	cpsid	i
2000016a:	6813      	ldr	r3, [r2, #0]
2000016c:	2b00      	cmp	r3, #0
2000016e:	d0fc      	beq.n	2000016a <mutex_try_enter_block_until+0x6a>
20000170:	f3bf 8f5f 	dmb	sy
20000174:	7923      	ldrb	r3, [r4, #4]
20000176:	6822      	ldr	r2, [r4, #0]
20000178:	2b7f      	cmp	r3, #127	@ 0x7f
2000017a:	d9e7      	bls.n	2000014c <mutex_try_enter_block_until+0x4c>
2000017c:	4643      	mov	r3, r8
2000017e:	e002      	b.n	20000186 <mutex_try_enter_block_until+0x86>
20000180:	23d0      	movs	r3, #208	@ 0xd0
20000182:	061b      	lsls	r3, r3, #24
20000184:	681b      	ldr	r3, [r3, #0]
20000186:	7123      	strb	r3, [r4, #4]
20000188:	f3bf 8f5f 	dmb	sy
2000018c:	2300      	movs	r3, #0
2000018e:	6013      	str	r3, [r2, #0]
20000190:	f381 8810 	msr	PRIMASK, r1
20000194:	2001      	movs	r0, #1
20000196:	e7d6      	b.n	20000146 <mutex_try_enter_block_until+0x46>

20000198 <mutex_enter_timeout_ms>:
20000198:	b5f0      	push	{r4, r5, r6, r7, lr}
2000019a:	46c6      	mov	lr, r8
2000019c:	b500      	push	{lr}
2000019e:	000f      	movs	r7, r1
200001a0:	0004      	movs	r4, r0
200001a2:	f000 fef1 	bl	20000f88 <__time_us_64_veneer>
200001a6:	22fa      	movs	r2, #250	@ 0xfa
200001a8:	000e      	movs	r6, r1
200001aa:	0005      	movs	r5, r0
200001ac:	2300      	movs	r3, #0
200001ae:	0038      	movs	r0, r7
200001b0:	2100      	movs	r1, #0
200001b2:	0092      	lsls	r2, r2, #2
200001b4:	f000 fee0 	bl	20000f78 <____wrap___aeabi_lmul_veneer>
200001b8:	1940      	adds	r0, r0, r5
200001ba:	4171      	adcs	r1, r6
200001bc:	0006      	movs	r6, r0
200001be:	1e0f      	subs	r7, r1, #0
200001c0:	da02      	bge.n	200001c8 <mutex_enter_timeout_ms+0x30>
200001c2:	2601      	movs	r6, #1
200001c4:	4f16      	ldr	r7, [pc, #88]	@ (20000220 <mutex_enter_timeout_ms+0x88>)
200001c6:	4276      	negs	r6, r6
200001c8:	23d0      	movs	r3, #208	@ 0xd0
200001ca:	061b      	lsls	r3, r3, #24
200001cc:	681b      	ldr	r3, [r3, #0]
200001ce:	2500      	movs	r5, #0
200001d0:	4698      	mov	r8, r3
200001d2:	e00a      	b.n	200001ea <mutex_enter_timeout_ms+0x52>
200001d4:	f3bf 8f5f 	dmb	sy
200001d8:	6015      	str	r5, [r2, #0]
200001da:	f381 8810 	msr	PRIMASK, r1
200001de:	0030      	movs	r0, r6
200001e0:	0039      	movs	r1, r7
200001e2:	f000 fea1 	bl	20000f28 <__best_effort_wfe_or_timeout_veneer>
200001e6:	2800      	cmp	r0, #0
200001e8:	d118      	bne.n	2000021c <mutex_enter_timeout_ms+0x84>
200001ea:	6822      	ldr	r2, [r4, #0]
200001ec:	f3ef 8110 	mrs	r1, PRIMASK
200001f0:	b672      	cpsid	i
200001f2:	6813      	ldr	r3, [r2, #0]
200001f4:	2b00      	cmp	r3, #0
200001f6:	d0fc      	beq.n	200001f2 <mutex_enter_timeout_ms+0x5a>
200001f8:	f3bf 8f5f 	dmb	sy
200001fc:	7923      	ldrb	r3, [r4, #4]
200001fe:	6822      	ldr	r2, [r4, #0]
20000200:	2b7f      	cmp	r3, #127	@ 0x7f
20000202:	d9e7      	bls.n	200001d4 <mutex_enter_timeout_ms+0x3c>
20000204:	4643      	mov	r3, r8
20000206:	7123      	strb	r3, [r4, #4]
20000208:	f3bf 8f5f 	dmb	sy
2000020c:	2300      	movs	r3, #0
2000020e:	6013      	str	r3, [r2, #0]
20000210:	f381 8810 	msr	PRIMASK, r1
20000214:	2001      	movs	r0, #1
20000216:	bc80      	pop	{r7}
20000218:	46b8      	mov	r8, r7
2000021a:	bdf0      	pop	{r4, r5, r6, r7, pc}
2000021c:	2000      	movs	r0, #0
2000021e:	e7fa      	b.n	20000216 <mutex_enter_timeout_ms+0x7e>
20000220:	7fffffff 	.word	0x7fffffff

20000224 <mutex_exit>:
20000224:	6802      	ldr	r2, [r0, #0]
20000226:	f3ef 8110 	mrs	r1, PRIMASK
2000022a:	b672      	cpsid	i
2000022c:	6813      	ldr	r3, [r2, #0]
2000022e:	2b00      	cmp	r3, #0
20000230:	d0fc      	beq.n	2000022c <mutex_exit+0x8>
20000232:	f3bf 8f5f 	dmb	sy
20000236:	23ff      	movs	r3, #255	@ 0xff
20000238:	7103      	strb	r3, [r0, #4]
2000023a:	6803      	ldr	r3, [r0, #0]
2000023c:	f3bf 8f5f 	dmb	sy
20000240:	2200      	movs	r2, #0
20000242:	601a      	str	r2, [r3, #0]
20000244:	f381 8810 	msr	PRIMASK, r1
20000248:	bf40      	sev
2000024a:	4770      	bx	lr

2000024c <flash_init_boot2_copyout>:
2000024c:	4b08      	ldr	r3, [pc, #32]	@ (20000270 <flash_init_boot2_copyout+0x24>)
2000024e:	469c      	mov	ip, r3
20000250:	781b      	ldrb	r3, [r3, #0]
20000252:	2b00      	cmp	r3, #0
20000254:	d10b      	bne.n	2000026e <flash_init_boot2_copyout+0x22>
20000256:	2380      	movs	r3, #128	@ 0x80
20000258:	4806      	ldr	r0, [pc, #24]	@ (20000274 <flash_init_boot2_copyout+0x28>)
2000025a:	4907      	ldr	r1, [pc, #28]	@ (20000278 <flash_init_boot2_copyout+0x2c>)
2000025c:	055b      	lsls	r3, r3, #21
2000025e:	681a      	ldr	r2, [r3, #0]
20000260:	50c2      	str	r2, [r0, r3]
20000262:	3304      	adds	r3, #4
20000264:	428b      	cmp	r3, r1
20000266:	d1fa      	bne.n	2000025e <flash_init_boot2_copyout+0x12>
20000268:	2301      	movs	r3, #1
2000026a:	4662      	mov	r2, ip
2000026c:	7013      	strb	r3, [r2, #0]
2000026e:	4770      	bx	lr
20000270:	20001f5c 	.word	0x20001f5c
20000274:	10001988 	.word	0x10001988
20000278:	10000100 	.word	0x10000100

2000027c <flash_enable_xip_via_boot2>:
2000027c:	b510      	push	{r4, lr}
2000027e:	4b01      	ldr	r3, [pc, #4]	@ (20000284 <flash_enable_xip_via_boot2+0x8>)
20000280:	4798      	blx	r3
20000282:	bd10      	pop	{r4, pc}
20000284:	20001989 	.word	0x20001989

20000288 <flash_save_hardware_state>:
20000288:	4b06      	ldr	r3, [pc, #24]	@ (200002a4 <flash_save_hardware_state+0x1c>)
2000028a:	685a      	ldr	r2, [r3, #4]
2000028c:	6002      	str	r2, [r0, #0]
2000028e:	689a      	ldr	r2, [r3, #8]
20000290:	6042      	str	r2, [r0, #4]
20000292:	68da      	ldr	r2, [r3, #12]
20000294:	6082      	str	r2, [r0, #8]
20000296:	691a      	ldr	r2, [r3, #16]
20000298:	60c2      	str	r2, [r0, #12]
2000029a:	695a      	ldr	r2, [r3, #20]
2000029c:	6102      	str	r2, [r0, #16]
2000029e:	699b      	ldr	r3, [r3, #24]
200002a0:	6143      	str	r3, [r0, #20]
200002a2:	4770      	bx	lr
200002a4:	40020000 	.word	0x40020000

200002a8 <flash_restore_hardware_state>:
200002a8:	6802      	ldr	r2, [r0, #0]
200002aa:	4b06      	ldr	r3, [pc, #24]	@ (200002c4 <flash_restore_hardware_state+0x1c>)
200002ac:	605a      	str	r2, [r3, #4]
200002ae:	6842      	ldr	r2, [r0, #4]
200002b0:	609a      	str	r2, [r3, #8]
200002b2:	6882      	ldr	r2, [r0, #8]
200002b4:	60da      	str	r2, [r3, #12]
200002b6:	68c2      	ldr	r2, [r0, #12]
200002b8:	611a      	str	r2, [r3, #16]
200002ba:	6902      	ldr	r2, [r0, #16]
200002bc:	615a      	str	r2, [r3, #20]
200002be:	6942      	ldr	r2, [r0, #20]
200002c0:	619a      	str	r2, [r3, #24]
200002c2:	4770      	bx	lr
200002c4:	40020000 	.word	0x40020000

200002c8 <flash_cs_force.constprop.0>:
200002c8:	4b03      	ldr	r3, [pc, #12]	@ (200002d8 <flash_cs_force.constprop.0+0x10>)
200002ca:	681a      	ldr	r2, [r3, #0]
200002cc:	23c0      	movs	r3, #192	@ 0xc0
200002ce:	009b      	lsls	r3, r3, #2
200002d0:	4393      	bics	r3, r2
200002d2:	4a02      	ldr	r2, [pc, #8]	@ (200002dc <flash_cs_force.constprop.0+0x14>)
200002d4:	6013      	str	r3, [r2, #0]
200002d6:	4770      	bx	lr
200002d8:	4001800c 	.word	0x4001800c
200002dc:	4001900c 	.word	0x4001900c

200002e0 <flash_cs_force.constprop.1>:
200002e0:	4b05      	ldr	r3, [pc, #20]	@ (200002f8 <flash_cs_force.constprop.1+0x18>)
200002e2:	681a      	ldr	r2, [r3, #0]
200002e4:	2380      	movs	r3, #128	@ 0x80
200002e6:	009b      	lsls	r3, r3, #2
200002e8:	4053      	eors	r3, r2
200002ea:	22c0      	movs	r2, #192	@ 0xc0
200002ec:	0092      	lsls	r2, r2, #2
200002ee:	4013      	ands	r3, r2
200002f0:	4a02      	ldr	r2, [pc, #8]	@ (200002fc <flash_cs_force.constprop.1+0x1c>)
200002f2:	6013      	str	r3, [r2, #0]
200002f4:	4770      	bx	lr
200002f6:	46c0      	nop			@ (mov r8, r8)
200002f8:	4001800c 	.word	0x4001800c
200002fc:	4001900c 	.word	0x4001900c

20000300 <flash_do_cmd>:
20000300:	b5f0      	push	{r4, r5, r6, r7, lr}
20000302:	46d6      	mov	lr, sl
20000304:	464f      	mov	r7, r9
20000306:	4646      	mov	r6, r8
20000308:	2300      	movs	r3, #0
2000030a:	b5c0      	push	{r6, r7, lr}
2000030c:	2718      	movs	r7, #24
2000030e:	b086      	sub	sp, #24
20000310:	001e      	movs	r6, r3
20000312:	4681      	mov	r9, r0
20000314:	000d      	movs	r5, r1
20000316:	8a98      	ldrh	r0, [r3, #20]
20000318:	493f      	ldr	r1, [pc, #252]	@ (20000418 <flash_do_cmd+0x118>)
2000031a:	883b      	ldrh	r3, [r7, #0]
2000031c:	0014      	movs	r4, r2
2000031e:	4798      	blx	r3
20000320:	883b      	ldrh	r3, [r7, #0]
20000322:	4680      	mov	r8, r0
20000324:	493d      	ldr	r1, [pc, #244]	@ (2000041c <flash_do_cmd+0x11c>)
20000326:	8ab0      	ldrh	r0, [r6, #20]
20000328:	4798      	blx	r3
2000032a:	2300      	movs	r3, #0
2000032c:	493c      	ldr	r1, [pc, #240]	@ (20000420 <flash_do_cmd+0x120>)
2000032e:	0006      	movs	r6, r0
20000330:	8a98      	ldrh	r0, [r3, #20]
20000332:	883b      	ldrh	r3, [r7, #0]
20000334:	4798      	blx	r3
20000336:	4682      	mov	sl, r0
20000338:	f7ff ff88 	bl	2000024c <flash_init_boot2_copyout>
2000033c:	4668      	mov	r0, sp
2000033e:	f7ff ffa3 	bl	20000288 <flash_save_hardware_state>
20000342:	47c0      	blx	r8
20000344:	47b0      	blx	r6
20000346:	f7ff ffcb 	bl	200002e0 <flash_cs_force.constprop.1>
2000034a:	1e21      	subs	r1, r4, #0
2000034c:	d01c      	beq.n	20000388 <flash_do_cmd+0x88>
2000034e:	2308      	movs	r3, #8
20000350:	20c0      	movs	r0, #192	@ 0xc0
20000352:	469c      	mov	ip, r3
20000354:	0540      	lsls	r0, r0, #21
20000356:	3f16      	subs	r7, #22
20000358:	4662      	mov	r2, ip
2000035a:	6a83      	ldr	r3, [r0, #40]	@ 0x28
2000035c:	401a      	ands	r2, r3
2000035e:	421f      	tst	r7, r3
20000360:	d034      	beq.n	200003cc <flash_do_cmd+0xcc>
20000362:	1a63      	subs	r3, r4, r1
20000364:	2900      	cmp	r1, #0
20000366:	d126      	bne.n	200003b6 <flash_do_cmd+0xb6>
20000368:	2a00      	cmp	r2, #0
2000036a:	d10b      	bne.n	20000384 <flash_do_cmd+0x84>
2000036c:	2c00      	cmp	r4, #0
2000036e:	d00b      	beq.n	20000388 <flash_do_cmd+0x88>
20000370:	23c0      	movs	r3, #192	@ 0xc0
20000372:	2208      	movs	r2, #8
20000374:	2602      	movs	r6, #2
20000376:	055b      	lsls	r3, r3, #21
20000378:	6a9b      	ldr	r3, [r3, #40]	@ 0x28
2000037a:	401a      	ands	r2, r3
2000037c:	421e      	tst	r6, r3
2000037e:	d03d      	beq.n	200003fc <flash_do_cmd+0xfc>
20000380:	2a00      	cmp	r2, #0
20000382:	d0f5      	beq.n	20000370 <flash_do_cmd+0x70>
20000384:	2c00      	cmp	r4, #0
20000386:	d12b      	bne.n	200003e0 <flash_do_cmd+0xe0>
20000388:	f7ff ff9e 	bl	200002c8 <flash_cs_force.constprop.0>
2000038c:	47d0      	blx	sl
2000038e:	f7ff ff75 	bl	2000027c <flash_enable_xip_via_boot2>
20000392:	4668      	mov	r0, sp
20000394:	f7ff ff88 	bl	200002a8 <flash_restore_hardware_state>
20000398:	b006      	add	sp, #24
2000039a:	bce0      	pop	{r5, r6, r7}
2000039c:	46ba      	mov	sl, r7
2000039e:	46b1      	mov	r9, r6
200003a0:	46a8      	mov	r8, r5
200003a2:	bdf0      	pop	{r4, r5, r6, r7, pc}
200003a4:	2c00      	cmp	r4, #0
200003a6:	d12b      	bne.n	20000400 <flash_do_cmd+0x100>
200003a8:	22c0      	movs	r2, #192	@ 0xc0
200003aa:	0552      	lsls	r2, r2, #21
200003ac:	6a96      	ldr	r6, [r2, #40]	@ 0x28
200003ae:	2208      	movs	r2, #8
200003b0:	4032      	ands	r2, r6
200003b2:	07b6      	lsls	r6, r6, #30
200003b4:	d52b      	bpl.n	2000040e <flash_do_cmd+0x10e>
200003b6:	2b0d      	cmp	r3, #13
200003b8:	d919      	bls.n	200003ee <flash_do_cmd+0xee>
200003ba:	2a00      	cmp	r2, #0
200003bc:	d1f2      	bne.n	200003a4 <flash_do_cmd+0xa4>
200003be:	22c0      	movs	r2, #192	@ 0xc0
200003c0:	0552      	lsls	r2, r2, #21
200003c2:	6a96      	ldr	r6, [r2, #40]	@ 0x28
200003c4:	2208      	movs	r2, #8
200003c6:	4032      	ands	r2, r6
200003c8:	07b6      	lsls	r6, r6, #30
200003ca:	d4f4      	bmi.n	200003b6 <flash_do_cmd+0xb6>
200003cc:	2a00      	cmp	r2, #0
200003ce:	d104      	bne.n	200003da <flash_do_cmd+0xda>
200003d0:	000b      	movs	r3, r1
200003d2:	4323      	orrs	r3, r4
200003d4:	2b00      	cmp	r3, #0
200003d6:	d1bf      	bne.n	20000358 <flash_do_cmd+0x58>
200003d8:	e7d6      	b.n	20000388 <flash_do_cmd+0x88>
200003da:	000b      	movs	r3, r1
200003dc:	2c00      	cmp	r4, #0
200003de:	d0f9      	beq.n	200003d4 <flash_do_cmd+0xd4>
200003e0:	6e03      	ldr	r3, [r0, #96]	@ 0x60
200003e2:	3c01      	subs	r4, #1
200003e4:	702b      	strb	r3, [r5, #0]
200003e6:	0023      	movs	r3, r4
200003e8:	3501      	adds	r5, #1
200003ea:	430b      	orrs	r3, r1
200003ec:	e7f2      	b.n	200003d4 <flash_do_cmd+0xd4>
200003ee:	464b      	mov	r3, r9
200003f0:	781b      	ldrb	r3, [r3, #0]
200003f2:	3901      	subs	r1, #1
200003f4:	6603      	str	r3, [r0, #96]	@ 0x60
200003f6:	2301      	movs	r3, #1
200003f8:	4499      	add	r9, r3
200003fa:	e7e7      	b.n	200003cc <flash_do_cmd+0xcc>
200003fc:	2100      	movs	r1, #0
200003fe:	e7e5      	b.n	200003cc <flash_do_cmd+0xcc>
20000400:	23c0      	movs	r3, #192	@ 0xc0
20000402:	055b      	lsls	r3, r3, #21
20000404:	6e1b      	ldr	r3, [r3, #96]	@ 0x60
20000406:	3c01      	subs	r4, #1
20000408:	702b      	strb	r3, [r5, #0]
2000040a:	3501      	adds	r5, #1
2000040c:	e7a4      	b.n	20000358 <flash_do_cmd+0x58>
2000040e:	000b      	movs	r3, r1
20000410:	42a2      	cmp	r2, r4
20000412:	d1df      	bne.n	200003d4 <flash_do_cmd+0xd4>
20000414:	e7dc      	b.n	200003d0 <flash_do_cmd+0xd0>
20000416:	46c0      	nop			@ (mov r8, r8)
20000418:	00004649 	.word	0x00004649
2000041c:	00005845 	.word	0x00005845
20000420:	00004346 	.word	0x00004346

20000424 <reset_non_control_endpoints>:
20000424:	2200      	movs	r2, #0
20000426:	4b15      	ldr	r3, [pc, #84]	@ (2000047c <reset_non_control_endpoints+0x58>)
20000428:	b510      	push	{r4, lr}
2000042a:	609a      	str	r2, [r3, #8]
2000042c:	60da      	str	r2, [r3, #12]
2000042e:	611a      	str	r2, [r3, #16]
20000430:	615a      	str	r2, [r3, #20]
20000432:	619a      	str	r2, [r3, #24]
20000434:	61da      	str	r2, [r3, #28]
20000436:	621a      	str	r2, [r3, #32]
20000438:	625a      	str	r2, [r3, #36]	@ 0x24
2000043a:	629a      	str	r2, [r3, #40]	@ 0x28
2000043c:	62da      	str	r2, [r3, #44]	@ 0x2c
2000043e:	631a      	str	r2, [r3, #48]	@ 0x30
20000440:	635a      	str	r2, [r3, #52]	@ 0x34
20000442:	639a      	str	r2, [r3, #56]	@ 0x38
20000444:	63da      	str	r2, [r3, #60]	@ 0x3c
20000446:	641a      	str	r2, [r3, #64]	@ 0x40
20000448:	645a      	str	r2, [r3, #68]	@ 0x44
2000044a:	649a      	str	r2, [r3, #72]	@ 0x48
2000044c:	64da      	str	r2, [r3, #76]	@ 0x4c
2000044e:	651a      	str	r2, [r3, #80]	@ 0x50
20000450:	655a      	str	r2, [r3, #84]	@ 0x54
20000452:	659a      	str	r2, [r3, #88]	@ 0x58
20000454:	65da      	str	r2, [r3, #92]	@ 0x5c
20000456:	661a      	str	r2, [r3, #96]	@ 0x60
20000458:	665a      	str	r2, [r3, #100]	@ 0x64
2000045a:	669a      	str	r2, [r3, #104]	@ 0x68
2000045c:	66da      	str	r2, [r3, #108]	@ 0x6c
2000045e:	671a      	str	r2, [r3, #112]	@ 0x70
20000460:	675a      	str	r2, [r3, #116]	@ 0x74
20000462:	679a      	str	r2, [r3, #120]	@ 0x78
20000464:	67da      	str	r2, [r3, #124]	@ 0x7c
20000466:	32f0      	adds	r2, #240	@ 0xf0
20000468:	0092      	lsls	r2, r2, #2
2000046a:	2100      	movs	r1, #0
2000046c:	4804      	ldr	r0, [pc, #16]	@ (20000480 <reset_non_control_endpoints+0x5c>)
2000046e:	f000 fd63 	bl	20000f38 <____wrap_memset_veneer>
20000472:	4b04      	ldr	r3, [pc, #16]	@ (20000484 <reset_non_control_endpoints+0x60>)
20000474:	4a04      	ldr	r2, [pc, #16]	@ (20000488 <reset_non_control_endpoints+0x64>)
20000476:	601a      	str	r2, [r3, #0]
20000478:	bd10      	pop	{r4, pc}
2000047a:	46c0      	nop			@ (mov r8, r8)
2000047c:	50100000 	.word	0x50100000
20000480:	20001b34 	.word	0x20001b34
20000484:	20001efc 	.word	0x20001efc
20000488:	50100180 	.word	0x50100180

2000048c <hw_handle_buff_status>:
2000048c:	b5f0      	push	{r4, r5, r6, r7, lr}
2000048e:	4647      	mov	r7, r8
20000490:	46ce      	mov	lr, r9
20000492:	b580      	push	{r7, lr}
20000494:	4b1c      	ldr	r3, [pc, #112]	@ (20000508 <hw_handle_buff_status+0x7c>)
20000496:	2400      	movs	r4, #0
20000498:	6d9f      	ldr	r7, [r3, #88]	@ 0x58
2000049a:	2601      	movs	r6, #1
2000049c:	b085      	sub	sp, #20
2000049e:	2f00      	cmp	r7, #0
200004a0:	d01b      	beq.n	200004da <hw_handle_buff_status+0x4e>
200004a2:	4b1a      	ldr	r3, [pc, #104]	@ (2000050c <hw_handle_buff_status+0x80>)
200004a4:	4698      	mov	r8, r3
200004a6:	4b1a      	ldr	r3, [pc, #104]	@ (20000510 <hw_handle_buff_status+0x84>)
200004a8:	4699      	mov	r9, r3
200004aa:	e004      	b.n	200004b6 <hw_handle_buff_status+0x2a>
200004ac:	3401      	adds	r4, #1
200004ae:	b2e4      	uxtb	r4, r4
200004b0:	0076      	lsls	r6, r6, #1
200004b2:	2c20      	cmp	r4, #32
200004b4:	d011      	beq.n	200004da <hw_handle_buff_status+0x4e>
200004b6:	423e      	tst	r6, r7
200004b8:	d0f8      	beq.n	200004ac <hw_handle_buff_status+0x20>
200004ba:	4643      	mov	r3, r8
200004bc:	659e      	str	r6, [r3, #88]	@ 0x58
200004be:	2301      	movs	r3, #1
200004c0:	0865      	lsrs	r5, r4, #1
200004c2:	006d      	lsls	r5, r5, #1
200004c4:	43a3      	bics	r3, r4
200004c6:	18ed      	adds	r5, r5, r3
200004c8:	016d      	lsls	r5, r5, #5
200004ca:	444d      	add	r5, r9
200004cc:	0028      	movs	r0, r5
200004ce:	f000 fc13 	bl	20000cf8 <hw_endpoint_xfer_continue>
200004d2:	2800      	cmp	r0, #0
200004d4:	d106      	bne.n	200004e4 <hw_handle_buff_status+0x58>
200004d6:	43b7      	bics	r7, r6
200004d8:	d1e8      	bne.n	200004ac <hw_handle_buff_status+0x20>
200004da:	b005      	add	sp, #20
200004dc:	bcc0      	pop	{r6, r7}
200004de:	46b9      	mov	r9, r7
200004e0:	46b0      	mov	r8, r6
200004e2:	bdf0      	pop	{r4, r5, r6, r7, pc}
200004e4:	8aeb      	ldrh	r3, [r5, #22]
200004e6:	21e0      	movs	r1, #224	@ 0xe0
200004e8:	9303      	str	r3, [sp, #12]
200004ea:	2300      	movs	r3, #0
200004ec:	a801      	add	r0, sp, #4
200004ee:	78aa      	ldrb	r2, [r5, #2]
200004f0:	00c9      	lsls	r1, r1, #3
200004f2:	8001      	strh	r1, [r0, #0]
200004f4:	2101      	movs	r1, #1
200004f6:	7102      	strb	r2, [r0, #4]
200004f8:	7143      	strb	r3, [r0, #5]
200004fa:	f000 fc1d 	bl	20000d38 <dcd_event_handler>
200004fe:	0028      	movs	r0, r5
20000500:	f000 fb98 	bl	20000c34 <hw_endpoint_reset_transfer>
20000504:	e7e7      	b.n	200004d6 <hw_handle_buff_status+0x4a>
20000506:	46c0      	nop			@ (mov r8, r8)
20000508:	50110000 	.word	0x50110000
2000050c:	50113000 	.word	0x50113000
20000510:	20001af4 	.word	0x20001af4

20000514 <dcd_rp2040_irq>:
20000514:	2398      	movs	r3, #152	@ 0x98
20000516:	4ac6      	ldr	r2, [pc, #792]	@ (20000830 <dcd_rp2040_irq+0x31c>)
20000518:	b5f0      	push	{r4, r5, r6, r7, lr}
2000051a:	58d5      	ldr	r5, [r2, r3]
2000051c:	2380      	movs	r3, #128	@ 0x80
2000051e:	002e      	movs	r6, r5
20000520:	029b      	lsls	r3, r3, #10
20000522:	2410      	movs	r4, #16
20000524:	b085      	sub	sp, #20
20000526:	401e      	ands	r6, r3
20000528:	421d      	tst	r5, r3
2000052a:	d074      	beq.n	20000616 <dcd_rp2040_irq+0x102>
2000052c:	4bc1      	ldr	r3, [pc, #772]	@ (20000834 <dcd_rp2040_irq+0x320>)
2000052e:	4cc2      	ldr	r4, [pc, #776]	@ (20000838 <dcd_rp2040_irq+0x324>)
20000530:	6a9a      	ldr	r2, [r3, #40]	@ 0x28
20000532:	4bc2      	ldr	r3, [pc, #776]	@ (2000083c <dcd_rp2040_irq+0x328>)
20000534:	2600      	movs	r6, #0
20000536:	601a      	str	r2, [r3, #0]
20000538:	233b      	movs	r3, #59	@ 0x3b
2000053a:	5ce3      	ldrb	r3, [r4, r3]
2000053c:	2b02      	cmp	r3, #2
2000053e:	d100      	bne.n	20000542 <dcd_rp2040_irq+0x2e>
20000540:	e14b      	b.n	200007da <dcd_rp2040_irq+0x2c6>
20000542:	237b      	movs	r3, #123	@ 0x7b
20000544:	5ce3      	ldrb	r3, [r4, r3]
20000546:	2b02      	cmp	r3, #2
20000548:	d100      	bne.n	2000054c <dcd_rp2040_irq+0x38>
2000054a:	e0ef      	b.n	2000072c <dcd_rp2040_irq+0x218>
2000054c:	23bb      	movs	r3, #187	@ 0xbb
2000054e:	5ce3      	ldrb	r3, [r4, r3]
20000550:	2b02      	cmp	r3, #2
20000552:	d100      	bne.n	20000556 <dcd_rp2040_irq+0x42>
20000554:	e0f6      	b.n	20000744 <dcd_rp2040_irq+0x230>
20000556:	23fb      	movs	r3, #251	@ 0xfb
20000558:	5ce3      	ldrb	r3, [r4, r3]
2000055a:	2b02      	cmp	r3, #2
2000055c:	d100      	bne.n	20000560 <dcd_rp2040_irq+0x4c>
2000055e:	e0fd      	b.n	2000075c <dcd_rp2040_irq+0x248>
20000560:	233c      	movs	r3, #60	@ 0x3c
20000562:	33ff      	adds	r3, #255	@ 0xff
20000564:	5ce3      	ldrb	r3, [r4, r3]
20000566:	2b02      	cmp	r3, #2
20000568:	d100      	bne.n	2000056c <dcd_rp2040_irq+0x58>
2000056a:	e129      	b.n	200007c0 <dcd_rp2040_irq+0x2ac>
2000056c:	237c      	movs	r3, #124	@ 0x7c
2000056e:	33ff      	adds	r3, #255	@ 0xff
20000570:	5ce3      	ldrb	r3, [r4, r3]
20000572:	2b02      	cmp	r3, #2
20000574:	d100      	bne.n	20000578 <dcd_rp2040_irq+0x64>
20000576:	e10a      	b.n	2000078e <dcd_rp2040_irq+0x27a>
20000578:	23bc      	movs	r3, #188	@ 0xbc
2000057a:	33ff      	adds	r3, #255	@ 0xff
2000057c:	5ce3      	ldrb	r3, [r4, r3]
2000057e:	2b02      	cmp	r3, #2
20000580:	d100      	bne.n	20000584 <dcd_rp2040_irq+0x70>
20000582:	e13b      	b.n	200007fc <dcd_rp2040_irq+0x2e8>
20000584:	23fc      	movs	r3, #252	@ 0xfc
20000586:	33ff      	adds	r3, #255	@ 0xff
20000588:	5ce3      	ldrb	r3, [r4, r3]
2000058a:	2b02      	cmp	r3, #2
2000058c:	d100      	bne.n	20000590 <dcd_rp2040_irq+0x7c>
2000058e:	e0f1      	b.n	20000774 <dcd_rp2040_irq+0x260>
20000590:	4bab      	ldr	r3, [pc, #684]	@ (20000840 <dcd_rp2040_irq+0x32c>)
20000592:	5ce3      	ldrb	r3, [r4, r3]
20000594:	2b02      	cmp	r3, #2
20000596:	d100      	bne.n	2000059a <dcd_rp2040_irq+0x86>
20000598:	e170      	b.n	2000087c <dcd_rp2040_irq+0x368>
2000059a:	4baa      	ldr	r3, [pc, #680]	@ (20000844 <dcd_rp2040_irq+0x330>)
2000059c:	5ce3      	ldrb	r3, [r4, r3]
2000059e:	2b02      	cmp	r3, #2
200005a0:	d100      	bne.n	200005a4 <dcd_rp2040_irq+0x90>
200005a2:	e101      	b.n	200007a8 <dcd_rp2040_irq+0x294>
200005a4:	4ba8      	ldr	r3, [pc, #672]	@ (20000848 <dcd_rp2040_irq+0x334>)
200005a6:	5ce3      	ldrb	r3, [r4, r3]
200005a8:	2b02      	cmp	r3, #2
200005aa:	d100      	bne.n	200005ae <dcd_rp2040_irq+0x9a>
200005ac:	e171      	b.n	20000892 <dcd_rp2040_irq+0x37e>
200005ae:	4ba7      	ldr	r3, [pc, #668]	@ (2000084c <dcd_rp2040_irq+0x338>)
200005b0:	5ce3      	ldrb	r3, [r4, r3]
200005b2:	2b02      	cmp	r3, #2
200005b4:	d100      	bne.n	200005b8 <dcd_rp2040_irq+0xa4>
200005b6:	e12e      	b.n	20000816 <dcd_rp2040_irq+0x302>
200005b8:	4ba5      	ldr	r3, [pc, #660]	@ (20000850 <dcd_rp2040_irq+0x33c>)
200005ba:	5ce3      	ldrb	r3, [r4, r3]
200005bc:	2b02      	cmp	r3, #2
200005be:	d100      	bne.n	200005c2 <dcd_rp2040_irq+0xae>
200005c0:	e19c      	b.n	200008fc <dcd_rp2040_irq+0x3e8>
200005c2:	4ba4      	ldr	r3, [pc, #656]	@ (20000854 <dcd_rp2040_irq+0x340>)
200005c4:	5ce3      	ldrb	r3, [r4, r3]
200005c6:	2b02      	cmp	r3, #2
200005c8:	d100      	bne.n	200005cc <dcd_rp2040_irq+0xb8>
200005ca:	e16d      	b.n	200008a8 <dcd_rp2040_irq+0x394>
200005cc:	4ba2      	ldr	r3, [pc, #648]	@ (20000858 <dcd_rp2040_irq+0x344>)
200005ce:	5ce3      	ldrb	r3, [r4, r3]
200005d0:	2b02      	cmp	r3, #2
200005d2:	d100      	bne.n	200005d6 <dcd_rp2040_irq+0xc2>
200005d4:	e19d      	b.n	20000912 <dcd_rp2040_irq+0x3fe>
200005d6:	4ba1      	ldr	r3, [pc, #644]	@ (2000085c <dcd_rp2040_irq+0x348>)
200005d8:	5ce3      	ldrb	r3, [r4, r3]
200005da:	2b02      	cmp	r3, #2
200005dc:	d100      	bne.n	200005e0 <dcd_rp2040_irq+0xcc>
200005de:	e17b      	b.n	200008d8 <dcd_rp2040_irq+0x3c4>
200005e0:	2e00      	cmp	r6, #0
200005e2:	d108      	bne.n	200005f6 <dcd_rp2040_irq+0xe2>
200005e4:	4b9e      	ldr	r3, [pc, #632]	@ (20000860 <dcd_rp2040_irq+0x34c>)
200005e6:	781b      	ldrb	r3, [r3, #0]
200005e8:	2b00      	cmp	r3, #0
200005ea:	d104      	bne.n	200005f6 <dcd_rp2040_irq+0xe2>
200005ec:	2180      	movs	r1, #128	@ 0x80
200005ee:	4a9d      	ldr	r2, [pc, #628]	@ (20000864 <dcd_rp2040_irq+0x350>)
200005f0:	3390      	adds	r3, #144	@ 0x90
200005f2:	0289      	lsls	r1, r1, #10
200005f4:	50d1      	str	r1, [r2, r3]
200005f6:	22c0      	movs	r2, #192	@ 0xc0
200005f8:	4669      	mov	r1, sp
200005fa:	4b8d      	ldr	r3, [pc, #564]	@ (20000830 <dcd_rp2040_irq+0x31c>)
200005fc:	0092      	lsls	r2, r2, #2
200005fe:	6c9b      	ldr	r3, [r3, #72]	@ 0x48
20000600:	2680      	movs	r6, #128	@ 0x80
20000602:	055b      	lsls	r3, r3, #21
20000604:	808a      	strh	r2, [r1, #4]
20000606:	0d5b      	lsrs	r3, r3, #21
20000608:	2101      	movs	r1, #1
2000060a:	a801      	add	r0, sp, #4
2000060c:	9302      	str	r3, [sp, #8]
2000060e:	f000 fb93 	bl	20000d38 <dcd_event_handler>
20000612:	4c95      	ldr	r4, [pc, #596]	@ (20000868 <dcd_rp2040_irq+0x354>)
20000614:	02b6      	lsls	r6, r6, #10
20000616:	06eb      	lsls	r3, r5, #27
20000618:	d500      	bpl.n	2000061c <dcd_rp2040_irq+0x108>
2000061a:	e07b      	b.n	20000714 <dcd_rp2040_irq+0x200>
2000061c:	2380      	movs	r3, #128	@ 0x80
2000061e:	025b      	lsls	r3, r3, #9
20000620:	421d      	tst	r5, r3
20000622:	d02f      	beq.n	20000684 <dcd_rp2040_irq+0x170>
20000624:	2402      	movs	r4, #2
20000626:	4f84      	ldr	r7, [pc, #528]	@ (20000838 <dcd_rp2040_irq+0x324>)
20000628:	431e      	orrs	r6, r3
2000062a:	7ebb      	ldrb	r3, [r7, #26]
2000062c:	2b00      	cmp	r3, #0
2000062e:	d014      	beq.n	2000065a <dcd_rp2040_irq+0x146>
20000630:	f000 fc92 	bl	20000f58 <__rp2040_chip_version_veneer>
20000634:	2801      	cmp	r0, #1
20000636:	d900      	bls.n	2000063a <dcd_rp2040_irq+0x126>
20000638:	e070      	b.n	2000071c <dcd_rp2040_irq+0x208>
2000063a:	22c0      	movs	r2, #192	@ 0xc0
2000063c:	2100      	movs	r1, #0
2000063e:	0038      	movs	r0, r7
20000640:	0192      	lsls	r2, r2, #6
20000642:	f000 fafd 	bl	20000c40 <_hw_endpoint_buffer_control_update32>
20000646:	0038      	movs	r0, r7
20000648:	f000 faf4 	bl	20000c34 <hw_endpoint_reset_transfer>
2000064c:	f000 fc84 	bl	20000f58 <__rp2040_chip_version_veneer>
20000650:	2801      	cmp	r0, #1
20000652:	d902      	bls.n	2000065a <dcd_rp2040_irq+0x146>
20000654:	4b83      	ldr	r3, [pc, #524]	@ (20000864 <dcd_rp2040_irq+0x350>)
20000656:	665c      	str	r4, [r3, #100]	@ 0x64
20000658:	661c      	str	r4, [r3, #96]	@ 0x60
2000065a:	2301      	movs	r3, #1
2000065c:	70fb      	strb	r3, [r7, #3]
2000065e:	3720      	adds	r7, #32
20000660:	2c01      	cmp	r4, #1
20000662:	d120      	bne.n	200006a6 <dcd_rp2040_irq+0x192>
20000664:	23c0      	movs	r3, #192	@ 0xc0
20000666:	466a      	mov	r2, sp
20000668:	00db      	lsls	r3, r3, #3
2000066a:	8093      	strh	r3, [r2, #4]
2000066c:	4a7f      	ldr	r2, [pc, #508]	@ (2000086c <dcd_rp2040_irq+0x358>)
2000066e:	ab02      	add	r3, sp, #8
20000670:	ca03      	ldmia	r2!, {r0, r1}
20000672:	c303      	stmia	r3!, {r0, r1}
20000674:	2101      	movs	r1, #1
20000676:	a801      	add	r0, sp, #4
20000678:	f000 fb5e 	bl	20000d38 <dcd_event_handler>
2000067c:	2280      	movs	r2, #128	@ 0x80
2000067e:	4b79      	ldr	r3, [pc, #484]	@ (20000864 <dcd_rp2040_irq+0x350>)
20000680:	0292      	lsls	r2, r2, #10
20000682:	651a      	str	r2, [r3, #80]	@ 0x50
20000684:	2380      	movs	r3, #128	@ 0x80
20000686:	015b      	lsls	r3, r3, #5
20000688:	421d      	tst	r5, r3
2000068a:	d10e      	bne.n	200006aa <dcd_rp2040_irq+0x196>
2000068c:	2380      	movs	r3, #128	@ 0x80
2000068e:	01db      	lsls	r3, r3, #7
20000690:	421d      	tst	r5, r3
20000692:	d121      	bne.n	200006d8 <dcd_rp2040_irq+0x1c4>
20000694:	2380      	movs	r3, #128	@ 0x80
20000696:	021b      	lsls	r3, r3, #8
20000698:	421d      	tst	r5, r3
2000069a:	d12d      	bne.n	200006f8 <dcd_rp2040_irq+0x1e4>
2000069c:	42ae      	cmp	r6, r5
2000069e:	d000      	beq.n	200006a2 <dcd_rp2040_irq+0x18e>
200006a0:	e1be      	b.n	20000a20 <dcd_rp2040_irq+0x50c>
200006a2:	b005      	add	sp, #20
200006a4:	bdf0      	pop	{r4, r5, r6, r7, pc}
200006a6:	2401      	movs	r4, #1
200006a8:	e7bf      	b.n	2000062a <dcd_rp2040_irq+0x116>
200006aa:	2400      	movs	r4, #0
200006ac:	431e      	orrs	r6, r3
200006ae:	4b60      	ldr	r3, [pc, #384]	@ (20000830 <dcd_rp2040_irq+0x31c>)
200006b0:	601c      	str	r4, [r3, #0]
200006b2:	f7ff feb7 	bl	20000424 <reset_non_control_endpoints>
200006b6:	2380      	movs	r3, #128	@ 0x80
200006b8:	466a      	mov	r2, sp
200006ba:	005b      	lsls	r3, r3, #1
200006bc:	8093      	strh	r3, [r2, #4]
200006be:	7214      	strb	r4, [r2, #8]
200006c0:	2101      	movs	r1, #1
200006c2:	a801      	add	r0, sp, #4
200006c4:	f000 fb38 	bl	20000d38 <dcd_event_handler>
200006c8:	2280      	movs	r2, #128	@ 0x80
200006ca:	4b66      	ldr	r3, [pc, #408]	@ (20000864 <dcd_rp2040_irq+0x350>)
200006cc:	0312      	lsls	r2, r2, #12
200006ce:	651a      	str	r2, [r3, #80]	@ 0x50
200006d0:	2380      	movs	r3, #128	@ 0x80
200006d2:	01db      	lsls	r3, r3, #7
200006d4:	421d      	tst	r5, r3
200006d6:	d0dd      	beq.n	20000694 <dcd_rp2040_irq+0x180>
200006d8:	431e      	orrs	r6, r3
200006da:	2380      	movs	r3, #128	@ 0x80
200006dc:	466a      	mov	r2, sp
200006de:	00db      	lsls	r3, r3, #3
200006e0:	8093      	strh	r3, [r2, #4]
200006e2:	2101      	movs	r1, #1
200006e4:	a801      	add	r0, sp, #4
200006e6:	f000 fb27 	bl	20000d38 <dcd_event_handler>
200006ea:	2210      	movs	r2, #16
200006ec:	4b5d      	ldr	r3, [pc, #372]	@ (20000864 <dcd_rp2040_irq+0x350>)
200006ee:	651a      	str	r2, [r3, #80]	@ 0x50
200006f0:	2380      	movs	r3, #128	@ 0x80
200006f2:	021b      	lsls	r3, r3, #8
200006f4:	421d      	tst	r5, r3
200006f6:	d0d1      	beq.n	2000069c <dcd_rp2040_irq+0x188>
200006f8:	431e      	orrs	r6, r3
200006fa:	23a0      	movs	r3, #160	@ 0xa0
200006fc:	466a      	mov	r2, sp
200006fe:	00db      	lsls	r3, r3, #3
20000700:	8093      	strh	r3, [r2, #4]
20000702:	2101      	movs	r1, #1
20000704:	a801      	add	r0, sp, #4
20000706:	f000 fb17 	bl	20000d38 <dcd_event_handler>
2000070a:	2280      	movs	r2, #128	@ 0x80
2000070c:	4b55      	ldr	r3, [pc, #340]	@ (20000864 <dcd_rp2040_irq+0x350>)
2000070e:	0112      	lsls	r2, r2, #4
20000710:	651a      	str	r2, [r3, #80]	@ 0x50
20000712:	e7c3      	b.n	2000069c <dcd_rp2040_irq+0x188>
20000714:	f7ff feba 	bl	2000048c <hw_handle_buff_status>
20000718:	0026      	movs	r6, r4
2000071a:	e77f      	b.n	2000061c <dcd_rp2040_irq+0x108>
2000071c:	4b54      	ldr	r3, [pc, #336]	@ (20000870 <dcd_rp2040_irq+0x35c>)
2000071e:	4a44      	ldr	r2, [pc, #272]	@ (20000830 <dcd_rp2040_irq+0x31c>)
20000720:	661c      	str	r4, [r3, #96]	@ 0x60
20000722:	6e53      	ldr	r3, [r2, #100]	@ 0x64
20000724:	4023      	ands	r3, r4
20000726:	42a3      	cmp	r3, r4
20000728:	d1fb      	bne.n	20000722 <dcd_rp2040_irq+0x20e>
2000072a:	e786      	b.n	2000063a <dcd_rp2040_irq+0x126>
2000072c:	3378      	adds	r3, #120	@ 0x78
2000072e:	5ce7      	ldrb	r7, [r4, r3]
20000730:	2f00      	cmp	r7, #0
20000732:	d100      	bne.n	20000736 <dcd_rp2040_irq+0x222>
20000734:	e70a      	b.n	2000054c <dcd_rp2040_irq+0x38>
20000736:	3302      	adds	r3, #2
20000738:	5ce2      	ldrb	r2, [r4, r3]
2000073a:	2a00      	cmp	r2, #0
2000073c:	d000      	beq.n	20000740 <dcd_rp2040_irq+0x22c>
2000073e:	e10d      	b.n	2000095c <dcd_rp2040_irq+0x448>
20000740:	003e      	movs	r6, r7
20000742:	e703      	b.n	2000054c <dcd_rp2040_irq+0x38>
20000744:	33b8      	adds	r3, #184	@ 0xb8
20000746:	5ce7      	ldrb	r7, [r4, r3]
20000748:	2f00      	cmp	r7, #0
2000074a:	d100      	bne.n	2000074e <dcd_rp2040_irq+0x23a>
2000074c:	e703      	b.n	20000556 <dcd_rp2040_irq+0x42>
2000074e:	3302      	adds	r3, #2
20000750:	5ce2      	ldrb	r2, [r4, r3]
20000752:	2a00      	cmp	r2, #0
20000754:	d000      	beq.n	20000758 <dcd_rp2040_irq+0x244>
20000756:	e0f9      	b.n	2000094c <dcd_rp2040_irq+0x438>
20000758:	003e      	movs	r6, r7
2000075a:	e6fc      	b.n	20000556 <dcd_rp2040_irq+0x42>
2000075c:	33f8      	adds	r3, #248	@ 0xf8
2000075e:	5ce7      	ldrb	r7, [r4, r3]
20000760:	2f00      	cmp	r7, #0
20000762:	d100      	bne.n	20000766 <dcd_rp2040_irq+0x252>
20000764:	e6fc      	b.n	20000560 <dcd_rp2040_irq+0x4c>
20000766:	3302      	adds	r3, #2
20000768:	5ce2      	ldrb	r2, [r4, r3]
2000076a:	2a00      	cmp	r2, #0
2000076c:	d000      	beq.n	20000770 <dcd_rp2040_irq+0x25c>
2000076e:	e141      	b.n	200009f4 <dcd_rp2040_irq+0x4e0>
20000770:	003e      	movs	r6, r7
20000772:	e6f5      	b.n	20000560 <dcd_rp2040_irq+0x4c>
20000774:	33f9      	adds	r3, #249	@ 0xf9
20000776:	33ff      	adds	r3, #255	@ 0xff
20000778:	5ce7      	ldrb	r7, [r4, r3]
2000077a:	2f00      	cmp	r7, #0
2000077c:	d100      	bne.n	20000780 <dcd_rp2040_irq+0x26c>
2000077e:	e707      	b.n	20000590 <dcd_rp2040_irq+0x7c>
20000780:	3302      	adds	r3, #2
20000782:	5ce2      	ldrb	r2, [r4, r3]
20000784:	2a00      	cmp	r2, #0
20000786:	d000      	beq.n	2000078a <dcd_rp2040_irq+0x276>
20000788:	e12b      	b.n	200009e2 <dcd_rp2040_irq+0x4ce>
2000078a:	003e      	movs	r6, r7
2000078c:	e700      	b.n	20000590 <dcd_rp2040_irq+0x7c>
2000078e:	3379      	adds	r3, #121	@ 0x79
20000790:	33ff      	adds	r3, #255	@ 0xff
20000792:	5ce7      	ldrb	r7, [r4, r3]
20000794:	2f00      	cmp	r7, #0
20000796:	d100      	bne.n	2000079a <dcd_rp2040_irq+0x286>
20000798:	e6ee      	b.n	20000578 <dcd_rp2040_irq+0x64>
2000079a:	3302      	adds	r3, #2
2000079c:	5ce2      	ldrb	r2, [r4, r3]
2000079e:	2a00      	cmp	r2, #0
200007a0:	d000      	beq.n	200007a4 <dcd_rp2040_irq+0x290>
200007a2:	e115      	b.n	200009d0 <dcd_rp2040_irq+0x4bc>
200007a4:	003e      	movs	r6, r7
200007a6:	e6e7      	b.n	20000578 <dcd_rp2040_irq+0x64>
200007a8:	4b32      	ldr	r3, [pc, #200]	@ (20000874 <dcd_rp2040_irq+0x360>)
200007aa:	5ce7      	ldrb	r7, [r4, r3]
200007ac:	2f00      	cmp	r7, #0
200007ae:	d100      	bne.n	200007b2 <dcd_rp2040_irq+0x29e>
200007b0:	e6f8      	b.n	200005a4 <dcd_rp2040_irq+0x90>
200007b2:	3302      	adds	r3, #2
200007b4:	5ce2      	ldrb	r2, [r4, r3]
200007b6:	2a00      	cmp	r2, #0
200007b8:	d000      	beq.n	200007bc <dcd_rp2040_irq+0x2a8>
200007ba:	e101      	b.n	200009c0 <dcd_rp2040_irq+0x4ac>
200007bc:	003e      	movs	r6, r7
200007be:	e6f1      	b.n	200005a4 <dcd_rp2040_irq+0x90>
200007c0:	3339      	adds	r3, #57	@ 0x39
200007c2:	33ff      	adds	r3, #255	@ 0xff
200007c4:	5ce7      	ldrb	r7, [r4, r3]
200007c6:	2f00      	cmp	r7, #0
200007c8:	d100      	bne.n	200007cc <dcd_rp2040_irq+0x2b8>
200007ca:	e6cf      	b.n	2000056c <dcd_rp2040_irq+0x58>
200007cc:	3302      	adds	r3, #2
200007ce:	5ce2      	ldrb	r2, [r4, r3]
200007d0:	2a00      	cmp	r2, #0
200007d2:	d000      	beq.n	200007d6 <dcd_rp2040_irq+0x2c2>
200007d4:	e0eb      	b.n	200009ae <dcd_rp2040_irq+0x49a>
200007d6:	003e      	movs	r6, r7
200007d8:	e6c8      	b.n	2000056c <dcd_rp2040_irq+0x58>
200007da:	3338      	adds	r3, #56	@ 0x38
200007dc:	5ce6      	ldrb	r6, [r4, r3]
200007de:	2e00      	cmp	r6, #0
200007e0:	d100      	bne.n	200007e4 <dcd_rp2040_irq+0x2d0>
200007e2:	e6ae      	b.n	20000542 <dcd_rp2040_irq+0x2e>
200007e4:	3302      	adds	r3, #2
200007e6:	5ce2      	ldrb	r2, [r4, r3]
200007e8:	2a00      	cmp	r2, #0
200007ea:	d100      	bne.n	200007ee <dcd_rp2040_irq+0x2da>
200007ec:	e6a9      	b.n	20000542 <dcd_rp2040_irq+0x2e>
200007ee:	0020      	movs	r0, r4
200007f0:	2200      	movs	r2, #0
200007f2:	3020      	adds	r0, #32
200007f4:	54e2      	strb	r2, [r4, r3]
200007f6:	f000 fa4b 	bl	20000c90 <hw_endpoint_start_next_buffer>
200007fa:	e6a2      	b.n	20000542 <dcd_rp2040_irq+0x2e>
200007fc:	33b9      	adds	r3, #185	@ 0xb9
200007fe:	33ff      	adds	r3, #255	@ 0xff
20000800:	5ce7      	ldrb	r7, [r4, r3]
20000802:	2f00      	cmp	r7, #0
20000804:	d100      	bne.n	20000808 <dcd_rp2040_irq+0x2f4>
20000806:	e6bd      	b.n	20000584 <dcd_rp2040_irq+0x70>
20000808:	3302      	adds	r3, #2
2000080a:	5ce2      	ldrb	r2, [r4, r3]
2000080c:	2a00      	cmp	r2, #0
2000080e:	d000      	beq.n	20000812 <dcd_rp2040_irq+0x2fe>
20000810:	e0c4      	b.n	2000099c <dcd_rp2040_irq+0x488>
20000812:	003e      	movs	r6, r7
20000814:	e6b6      	b.n	20000584 <dcd_rp2040_irq+0x70>
20000816:	4b18      	ldr	r3, [pc, #96]	@ (20000878 <dcd_rp2040_irq+0x364>)
20000818:	5ce7      	ldrb	r7, [r4, r3]
2000081a:	2f00      	cmp	r7, #0
2000081c:	d100      	bne.n	20000820 <dcd_rp2040_irq+0x30c>
2000081e:	e6cb      	b.n	200005b8 <dcd_rp2040_irq+0xa4>
20000820:	3302      	adds	r3, #2
20000822:	5ce2      	ldrb	r2, [r4, r3]
20000824:	2a00      	cmp	r2, #0
20000826:	d000      	beq.n	2000082a <dcd_rp2040_irq+0x316>
20000828:	e0b0      	b.n	2000098c <dcd_rp2040_irq+0x478>
2000082a:	003e      	movs	r6, r7
2000082c:	e6c4      	b.n	200005b8 <dcd_rp2040_irq+0xa4>
2000082e:	46c0      	nop			@ (mov r8, r8)
20000830:	50110000 	.word	0x50110000
20000834:	40054000 	.word	0x40054000
20000838:	20001af4 	.word	0x20001af4
2000083c:	20001aec 	.word	0x20001aec
20000840:	0000023b 	.word	0x0000023b
20000844:	0000027b 	.word	0x0000027b
20000848:	000002bb 	.word	0x000002bb
2000084c:	000002fb 	.word	0x000002fb
20000850:	0000033b 	.word	0x0000033b
20000854:	0000037b 	.word	0x0000037b
20000858:	000003bb 	.word	0x000003bb
2000085c:	000003fb 	.word	0x000003fb
20000860:	20001f5a 	.word	0x20001f5a
20000864:	50113000 	.word	0x50113000
20000868:	00020010 	.word	0x00020010
2000086c:	50100000 	.word	0x50100000
20000870:	50112000 	.word	0x50112000
20000874:	0000027a 	.word	0x0000027a
20000878:	000002fa 	.word	0x000002fa
2000087c:	4b6b      	ldr	r3, [pc, #428]	@ (20000a2c <dcd_rp2040_irq+0x518>)
2000087e:	5ce7      	ldrb	r7, [r4, r3]
20000880:	2f00      	cmp	r7, #0
20000882:	d100      	bne.n	20000886 <dcd_rp2040_irq+0x372>
20000884:	e689      	b.n	2000059a <dcd_rp2040_irq+0x86>
20000886:	3302      	adds	r3, #2
20000888:	5ce2      	ldrb	r2, [r4, r3]
2000088a:	2a00      	cmp	r2, #0
2000088c:	d176      	bne.n	2000097c <dcd_rp2040_irq+0x468>
2000088e:	003e      	movs	r6, r7
20000890:	e683      	b.n	2000059a <dcd_rp2040_irq+0x86>
20000892:	4b67      	ldr	r3, [pc, #412]	@ (20000a30 <dcd_rp2040_irq+0x51c>)
20000894:	5ce7      	ldrb	r7, [r4, r3]
20000896:	2f00      	cmp	r7, #0
20000898:	d100      	bne.n	2000089c <dcd_rp2040_irq+0x388>
2000089a:	e688      	b.n	200005ae <dcd_rp2040_irq+0x9a>
2000089c:	3302      	adds	r3, #2
2000089e:	5ce2      	ldrb	r2, [r4, r3]
200008a0:	2a00      	cmp	r2, #0
200008a2:	d163      	bne.n	2000096c <dcd_rp2040_irq+0x458>
200008a4:	003e      	movs	r6, r7
200008a6:	e682      	b.n	200005ae <dcd_rp2040_irq+0x9a>
200008a8:	4b62      	ldr	r3, [pc, #392]	@ (20000a34 <dcd_rp2040_irq+0x520>)
200008aa:	5ce7      	ldrb	r7, [r4, r3]
200008ac:	2f00      	cmp	r7, #0
200008ae:	d100      	bne.n	200008b2 <dcd_rp2040_irq+0x39e>
200008b0:	e68c      	b.n	200005cc <dcd_rp2040_irq+0xb8>
200008b2:	3302      	adds	r3, #2
200008b4:	5ce2      	ldrb	r2, [r4, r3]
200008b6:	2a00      	cmp	r2, #0
200008b8:	d000      	beq.n	200008bc <dcd_rp2040_irq+0x3a8>
200008ba:	e0a3      	b.n	20000a04 <dcd_rp2040_irq+0x4f0>
200008bc:	4b5e      	ldr	r3, [pc, #376]	@ (20000a38 <dcd_rp2040_irq+0x524>)
200008be:	5ce3      	ldrb	r3, [r4, r3]
200008c0:	2b02      	cmp	r3, #2
200008c2:	d130      	bne.n	20000926 <dcd_rp2040_irq+0x412>
200008c4:	4b5d      	ldr	r3, [pc, #372]	@ (20000a3c <dcd_rp2040_irq+0x528>)
200008c6:	5ce3      	ldrb	r3, [r4, r3]
200008c8:	2b00      	cmp	r3, #0
200008ca:	d127      	bne.n	2000091c <dcd_rp2040_irq+0x408>
200008cc:	4b5c      	ldr	r3, [pc, #368]	@ (20000a40 <dcd_rp2040_irq+0x52c>)
200008ce:	5ce3      	ldrb	r3, [r4, r3]
200008d0:	2b02      	cmp	r3, #2
200008d2:	d000      	beq.n	200008d6 <dcd_rp2040_irq+0x3c2>
200008d4:	e68f      	b.n	200005f6 <dcd_rp2040_irq+0xe2>
200008d6:	003e      	movs	r6, r7
200008d8:	4b5a      	ldr	r3, [pc, #360]	@ (20000a44 <dcd_rp2040_irq+0x530>)
200008da:	5ce3      	ldrb	r3, [r4, r3]
200008dc:	2b00      	cmp	r3, #0
200008de:	d100      	bne.n	200008e2 <dcd_rp2040_irq+0x3ce>
200008e0:	e67e      	b.n	200005e0 <dcd_rp2040_irq+0xcc>
200008e2:	23ff      	movs	r3, #255	@ 0xff
200008e4:	009b      	lsls	r3, r3, #2
200008e6:	5ce2      	ldrb	r2, [r4, r3]
200008e8:	2a00      	cmp	r2, #0
200008ea:	d100      	bne.n	200008ee <dcd_rp2040_irq+0x3da>
200008ec:	e683      	b.n	200005f6 <dcd_rp2040_irq+0xe2>
200008ee:	2200      	movs	r2, #0
200008f0:	54e2      	strb	r2, [r4, r3]
200008f2:	3b1c      	subs	r3, #28
200008f4:	18e0      	adds	r0, r4, r3
200008f6:	f000 f9cb 	bl	20000c90 <hw_endpoint_start_next_buffer>
200008fa:	e67c      	b.n	200005f6 <dcd_rp2040_irq+0xe2>
200008fc:	4b52      	ldr	r3, [pc, #328]	@ (20000a48 <dcd_rp2040_irq+0x534>)
200008fe:	5ce7      	ldrb	r7, [r4, r3]
20000900:	2f00      	cmp	r7, #0
20000902:	d100      	bne.n	20000906 <dcd_rp2040_irq+0x3f2>
20000904:	e65d      	b.n	200005c2 <dcd_rp2040_irq+0xae>
20000906:	3302      	adds	r3, #2
20000908:	5ce2      	ldrb	r2, [r4, r3]
2000090a:	2a00      	cmp	r2, #0
2000090c:	d116      	bne.n	2000093c <dcd_rp2040_irq+0x428>
2000090e:	003e      	movs	r6, r7
20000910:	e657      	b.n	200005c2 <dcd_rp2040_irq+0xae>
20000912:	4b4a      	ldr	r3, [pc, #296]	@ (20000a3c <dcd_rp2040_irq+0x528>)
20000914:	5ce3      	ldrb	r3, [r4, r3]
20000916:	2b00      	cmp	r3, #0
20000918:	d100      	bne.n	2000091c <dcd_rp2040_irq+0x408>
2000091a:	e65c      	b.n	200005d6 <dcd_rp2040_irq+0xc2>
2000091c:	23ef      	movs	r3, #239	@ 0xef
2000091e:	009b      	lsls	r3, r3, #2
20000920:	5ce2      	ldrb	r2, [r4, r3]
20000922:	2a00      	cmp	r2, #0
20000924:	d175      	bne.n	20000a12 <dcd_rp2040_irq+0x4fe>
20000926:	4b46      	ldr	r3, [pc, #280]	@ (20000a40 <dcd_rp2040_irq+0x52c>)
20000928:	5ce3      	ldrb	r3, [r4, r3]
2000092a:	2b02      	cmp	r3, #2
2000092c:	d000      	beq.n	20000930 <dcd_rp2040_irq+0x41c>
2000092e:	e662      	b.n	200005f6 <dcd_rp2040_irq+0xe2>
20000930:	4b44      	ldr	r3, [pc, #272]	@ (20000a44 <dcd_rp2040_irq+0x530>)
20000932:	5ce3      	ldrb	r3, [r4, r3]
20000934:	2b00      	cmp	r3, #0
20000936:	d100      	bne.n	2000093a <dcd_rp2040_irq+0x426>
20000938:	e65d      	b.n	200005f6 <dcd_rp2040_irq+0xe2>
2000093a:	e7d2      	b.n	200008e2 <dcd_rp2040_irq+0x3ce>
2000093c:	2200      	movs	r2, #0
2000093e:	54e2      	strb	r2, [r4, r3]
20000940:	3b1c      	subs	r3, #28
20000942:	18e0      	adds	r0, r4, r3
20000944:	f000 f9a4 	bl	20000c90 <hw_endpoint_start_next_buffer>
20000948:	003e      	movs	r6, r7
2000094a:	e63a      	b.n	200005c2 <dcd_rp2040_irq+0xae>
2000094c:	0020      	movs	r0, r4
2000094e:	2200      	movs	r2, #0
20000950:	30a0      	adds	r0, #160	@ 0xa0
20000952:	54e2      	strb	r2, [r4, r3]
20000954:	003e      	movs	r6, r7
20000956:	f000 f99b 	bl	20000c90 <hw_endpoint_start_next_buffer>
2000095a:	e5fc      	b.n	20000556 <dcd_rp2040_irq+0x42>
2000095c:	0020      	movs	r0, r4
2000095e:	2200      	movs	r2, #0
20000960:	3060      	adds	r0, #96	@ 0x60
20000962:	54e2      	strb	r2, [r4, r3]
20000964:	003e      	movs	r6, r7
20000966:	f000 f993 	bl	20000c90 <hw_endpoint_start_next_buffer>
2000096a:	e5ef      	b.n	2000054c <dcd_rp2040_irq+0x38>
2000096c:	2200      	movs	r2, #0
2000096e:	54e2      	strb	r2, [r4, r3]
20000970:	3b1c      	subs	r3, #28
20000972:	18e0      	adds	r0, r4, r3
20000974:	f000 f98c 	bl	20000c90 <hw_endpoint_start_next_buffer>
20000978:	003e      	movs	r6, r7
2000097a:	e618      	b.n	200005ae <dcd_rp2040_irq+0x9a>
2000097c:	2200      	movs	r2, #0
2000097e:	54e2      	strb	r2, [r4, r3]
20000980:	3b1c      	subs	r3, #28
20000982:	18e0      	adds	r0, r4, r3
20000984:	f000 f984 	bl	20000c90 <hw_endpoint_start_next_buffer>
20000988:	003e      	movs	r6, r7
2000098a:	e606      	b.n	2000059a <dcd_rp2040_irq+0x86>
2000098c:	2200      	movs	r2, #0
2000098e:	54e2      	strb	r2, [r4, r3]
20000990:	3b1c      	subs	r3, #28
20000992:	18e0      	adds	r0, r4, r3
20000994:	f000 f97c 	bl	20000c90 <hw_endpoint_start_next_buffer>
20000998:	003e      	movs	r6, r7
2000099a:	e60d      	b.n	200005b8 <dcd_rp2040_irq+0xa4>
2000099c:	0020      	movs	r0, r4
2000099e:	2200      	movs	r2, #0
200009a0:	30a1      	adds	r0, #161	@ 0xa1
200009a2:	30ff      	adds	r0, #255	@ 0xff
200009a4:	54e2      	strb	r2, [r4, r3]
200009a6:	003e      	movs	r6, r7
200009a8:	f000 f972 	bl	20000c90 <hw_endpoint_start_next_buffer>
200009ac:	e5ea      	b.n	20000584 <dcd_rp2040_irq+0x70>
200009ae:	0020      	movs	r0, r4
200009b0:	2200      	movs	r2, #0
200009b2:	3021      	adds	r0, #33	@ 0x21
200009b4:	30ff      	adds	r0, #255	@ 0xff
200009b6:	54e2      	strb	r2, [r4, r3]
200009b8:	003e      	movs	r6, r7
200009ba:	f000 f969 	bl	20000c90 <hw_endpoint_start_next_buffer>
200009be:	e5d5      	b.n	2000056c <dcd_rp2040_irq+0x58>
200009c0:	2200      	movs	r2, #0
200009c2:	54e2      	strb	r2, [r4, r3]
200009c4:	3b1c      	subs	r3, #28
200009c6:	18e0      	adds	r0, r4, r3
200009c8:	f000 f962 	bl	20000c90 <hw_endpoint_start_next_buffer>
200009cc:	003e      	movs	r6, r7
200009ce:	e5e9      	b.n	200005a4 <dcd_rp2040_irq+0x90>
200009d0:	0020      	movs	r0, r4
200009d2:	2200      	movs	r2, #0
200009d4:	3061      	adds	r0, #97	@ 0x61
200009d6:	30ff      	adds	r0, #255	@ 0xff
200009d8:	54e2      	strb	r2, [r4, r3]
200009da:	003e      	movs	r6, r7
200009dc:	f000 f958 	bl	20000c90 <hw_endpoint_start_next_buffer>
200009e0:	e5ca      	b.n	20000578 <dcd_rp2040_irq+0x64>
200009e2:	0020      	movs	r0, r4
200009e4:	2200      	movs	r2, #0
200009e6:	30e1      	adds	r0, #225	@ 0xe1
200009e8:	30ff      	adds	r0, #255	@ 0xff
200009ea:	54e2      	strb	r2, [r4, r3]
200009ec:	003e      	movs	r6, r7
200009ee:	f000 f94f 	bl	20000c90 <hw_endpoint_start_next_buffer>
200009f2:	e5cd      	b.n	20000590 <dcd_rp2040_irq+0x7c>
200009f4:	0020      	movs	r0, r4
200009f6:	2200      	movs	r2, #0
200009f8:	30e0      	adds	r0, #224	@ 0xe0
200009fa:	54e2      	strb	r2, [r4, r3]
200009fc:	003e      	movs	r6, r7
200009fe:	f000 f947 	bl	20000c90 <hw_endpoint_start_next_buffer>
20000a02:	e5ad      	b.n	20000560 <dcd_rp2040_irq+0x4c>
20000a04:	2200      	movs	r2, #0
20000a06:	54e2      	strb	r2, [r4, r3]
20000a08:	3b1c      	subs	r3, #28
20000a0a:	18e0      	adds	r0, r4, r3
20000a0c:	f000 f940 	bl	20000c90 <hw_endpoint_start_next_buffer>
20000a10:	e754      	b.n	200008bc <dcd_rp2040_irq+0x3a8>
20000a12:	2200      	movs	r2, #0
20000a14:	54e2      	strb	r2, [r4, r3]
20000a16:	3b1c      	subs	r3, #28
20000a18:	18e0      	adds	r0, r4, r3
20000a1a:	f000 f939 	bl	20000c90 <hw_endpoint_start_next_buffer>
20000a1e:	e782      	b.n	20000926 <dcd_rp2040_irq+0x412>
20000a20:	0031      	movs	r1, r6
20000a22:	480a      	ldr	r0, [pc, #40]	@ (20000a4c <dcd_rp2040_irq+0x538>)
20000a24:	4069      	eors	r1, r5
20000a26:	f000 fa9f 	bl	20000f68 <__panic_veneer>
20000a2a:	46c0      	nop			@ (mov r8, r8)
20000a2c:	0000023a 	.word	0x0000023a
20000a30:	000002ba 	.word	0x000002ba
20000a34:	0000037a 	.word	0x0000037a
20000a38:	000003bb 	.word	0x000003bb
20000a3c:	000003ba 	.word	0x000003ba
20000a40:	000003fb 	.word	0x000003fb
20000a44:	000003fa 	.word	0x000003fa
20000a48:	0000033a 	.word	0x0000033a
20000a4c:	100070e4 	.word	0x100070e4

20000a50 <prepare_ep_buffer>:
20000a50:	b5f0      	push	{r4, r5, r6, r7, lr}
20000a52:	468c      	mov	ip, r1
20000a54:	8a83      	ldrh	r3, [r0, #20]
20000a56:	8b01      	ldrh	r1, [r0, #24]
20000a58:	0002      	movs	r2, r0
20000a5a:	b083      	sub	sp, #12
20000a5c:	1c0e      	adds	r6, r1, #0
20000a5e:	4299      	cmp	r1, r3
20000a60:	d900      	bls.n	20000a64 <prepare_ep_buffer+0x14>
20000a62:	1c1e      	adds	r6, r3, #0
20000a64:	b2b6      	uxth	r6, r6
20000a66:	1b9b      	subs	r3, r3, r6
20000a68:	b29c      	uxth	r4, r3
20000a6a:	78d3      	ldrb	r3, [r2, #3]
20000a6c:	2180      	movs	r1, #128	@ 0x80
20000a6e:	0018      	movs	r0, r3
20000a70:	1e45      	subs	r5, r0, #1
20000a72:	41a8      	sbcs	r0, r5
20000a74:	00c9      	lsls	r1, r1, #3
20000a76:	4331      	orrs	r1, r6
20000a78:	0340      	lsls	r0, r0, #13
20000a7a:	4308      	orrs	r0, r1
20000a7c:	2101      	movs	r1, #1
20000a7e:	404b      	eors	r3, r1
20000a80:	70d3      	strb	r3, [r2, #3]
20000a82:	7853      	ldrb	r3, [r2, #1]
20000a84:	8294      	strh	r4, [r2, #20]
20000a86:	2b00      	cmp	r3, #0
20000a88:	d132      	bne.n	20000af0 <prepare_ep_buffer+0xa0>
20000a8a:	6911      	ldr	r1, [r2, #16]
20000a8c:	2e00      	cmp	r6, #0
20000a8e:	d02a      	beq.n	20000ae6 <prepare_ep_buffer+0x96>
20000a90:	4663      	mov	r3, ip
20000a92:	68d4      	ldr	r4, [r2, #12]
20000a94:	019b      	lsls	r3, r3, #6
20000a96:	18e4      	adds	r4, r4, r3
20000a98:	1e73      	subs	r3, r6, #1
20000a9a:	9301      	str	r3, [sp, #4]
20000a9c:	2b06      	cmp	r3, #6
20000a9e:	d932      	bls.n	20000b06 <prepare_ep_buffer+0xb6>
20000aa0:	0023      	movs	r3, r4
20000aa2:	430b      	orrs	r3, r1
20000aa4:	079b      	lsls	r3, r3, #30
20000aa6:	d12e      	bne.n	20000b06 <prepare_ep_buffer+0xb6>
20000aa8:	1a63      	subs	r3, r4, r1
20000aaa:	3b01      	subs	r3, #1
20000aac:	2b02      	cmp	r3, #2
20000aae:	d92a      	bls.n	20000b06 <prepare_ep_buffer+0xb6>
20000ab0:	2300      	movs	r3, #0
20000ab2:	08b7      	lsrs	r7, r6, #2
20000ab4:	00bf      	lsls	r7, r7, #2
20000ab6:	58cd      	ldr	r5, [r1, r3]
20000ab8:	50e5      	str	r5, [r4, r3]
20000aba:	3304      	adds	r3, #4
20000abc:	42bb      	cmp	r3, r7
20000abe:	d1fa      	bne.n	20000ab6 <prepare_ep_buffer+0x66>
20000ac0:	429e      	cmp	r6, r3
20000ac2:	d00e      	beq.n	20000ae2 <prepare_ep_buffer+0x92>
20000ac4:	9d01      	ldr	r5, [sp, #4]
20000ac6:	18e4      	adds	r4, r4, r3
20000ac8:	1aef      	subs	r7, r5, r3
20000aca:	18cd      	adds	r5, r1, r3
20000acc:	5cc9      	ldrb	r1, [r1, r3]
20000ace:	7021      	strb	r1, [r4, #0]
20000ad0:	9901      	ldr	r1, [sp, #4]
20000ad2:	4299      	cmp	r1, r3
20000ad4:	d005      	beq.n	20000ae2 <prepare_ep_buffer+0x92>
20000ad6:	786b      	ldrb	r3, [r5, #1]
20000ad8:	7063      	strb	r3, [r4, #1]
20000ada:	2f01      	cmp	r7, #1
20000adc:	d001      	beq.n	20000ae2 <prepare_ep_buffer+0x92>
20000ade:	78ab      	ldrb	r3, [r5, #2]
20000ae0:	70a3      	strb	r3, [r4, #2]
20000ae2:	6911      	ldr	r1, [r2, #16]
20000ae4:	8a94      	ldrh	r4, [r2, #20]
20000ae6:	2380      	movs	r3, #128	@ 0x80
20000ae8:	1989      	adds	r1, r1, r6
20000aea:	021b      	lsls	r3, r3, #8
20000aec:	6111      	str	r1, [r2, #16]
20000aee:	4318      	orrs	r0, r3
20000af0:	2c00      	cmp	r4, #0
20000af2:	d102      	bne.n	20000afa <prepare_ep_buffer+0xaa>
20000af4:	2380      	movs	r3, #128	@ 0x80
20000af6:	01db      	lsls	r3, r3, #7
20000af8:	4318      	orrs	r0, r3
20000afa:	4663      	mov	r3, ip
20000afc:	2b00      	cmp	r3, #0
20000afe:	d000      	beq.n	20000b02 <prepare_ep_buffer+0xb2>
20000b00:	0400      	lsls	r0, r0, #16
20000b02:	b003      	add	sp, #12
20000b04:	bdf0      	pop	{r4, r5, r6, r7, pc}
20000b06:	2300      	movs	r3, #0
20000b08:	5ccd      	ldrb	r5, [r1, r3]
20000b0a:	54e5      	strb	r5, [r4, r3]
20000b0c:	3301      	adds	r3, #1
20000b0e:	429e      	cmp	r6, r3
20000b10:	d1fa      	bne.n	20000b08 <prepare_ep_buffer+0xb8>
20000b12:	e7e6      	b.n	20000ae2 <prepare_ep_buffer+0x92>

20000b14 <sync_ep_buffer>:
20000b14:	6883      	ldr	r3, [r0, #8]
20000b16:	b5f0      	push	{r4, r5, r6, r7, lr}
20000b18:	681a      	ldr	r2, [r3, #0]
20000b1a:	2900      	cmp	r1, #0
20000b1c:	d000      	beq.n	20000b20 <sync_ep_buffer+0xc>
20000b1e:	0c12      	lsrs	r2, r2, #16
20000b20:	7843      	ldrb	r3, [r0, #1]
20000b22:	0592      	lsls	r2, r2, #22
20000b24:	0d95      	lsrs	r5, r2, #22
20000b26:	2b00      	cmp	r3, #0
20000b28:	d109      	bne.n	20000b3e <sync_ep_buffer+0x2a>
20000b2a:	8ac3      	ldrh	r3, [r0, #22]
20000b2c:	18eb      	adds	r3, r5, r3
20000b2e:	82c3      	strh	r3, [r0, #22]
20000b30:	8b03      	ldrh	r3, [r0, #24]
20000b32:	42ab      	cmp	r3, r5
20000b34:	d901      	bls.n	20000b3a <sync_ep_buffer+0x26>
20000b36:	2300      	movs	r3, #0
20000b38:	8283      	strh	r3, [r0, #20]
20000b3a:	0028      	movs	r0, r5
20000b3c:	bdf0      	pop	{r4, r5, r6, r7, pc}
20000b3e:	6904      	ldr	r4, [r0, #16]
20000b40:	2d00      	cmp	r5, #0
20000b42:	d028      	beq.n	20000b96 <sync_ep_buffer+0x82>
20000b44:	68c3      	ldr	r3, [r0, #12]
20000b46:	0189      	lsls	r1, r1, #6
20000b48:	1e6f      	subs	r7, r5, #1
20000b4a:	46bc      	mov	ip, r7
20000b4c:	185e      	adds	r6, r3, r1
20000b4e:	2f06      	cmp	r7, #6
20000b50:	d927      	bls.n	20000ba2 <sync_ep_buffer+0x8e>
20000b52:	3101      	adds	r1, #1
20000b54:	185b      	adds	r3, r3, r1
20000b56:	1ae3      	subs	r3, r4, r3
20000b58:	2b02      	cmp	r3, #2
20000b5a:	d922      	bls.n	20000ba2 <sync_ep_buffer+0x8e>
20000b5c:	0023      	movs	r3, r4
20000b5e:	4333      	orrs	r3, r6
20000b60:	079b      	lsls	r3, r3, #30
20000b62:	d11e      	bne.n	20000ba2 <sync_ep_buffer+0x8e>
20000b64:	2300      	movs	r3, #0
20000b66:	0e12      	lsrs	r2, r2, #24
20000b68:	0092      	lsls	r2, r2, #2
20000b6a:	58f1      	ldr	r1, [r6, r3]
20000b6c:	50e1      	str	r1, [r4, r3]
20000b6e:	3304      	adds	r3, #4
20000b70:	429a      	cmp	r2, r3
20000b72:	d1fa      	bne.n	20000b6a <sync_ep_buffer+0x56>
20000b74:	4295      	cmp	r5, r2
20000b76:	d00d      	beq.n	20000b94 <sync_ep_buffer+0x80>
20000b78:	4663      	mov	r3, ip
20000b7a:	1a9f      	subs	r7, r3, r2
20000b7c:	18a3      	adds	r3, r4, r2
20000b7e:	5cb4      	ldrb	r4, [r6, r2]
20000b80:	18b1      	adds	r1, r6, r2
20000b82:	701c      	strb	r4, [r3, #0]
20000b84:	4594      	cmp	ip, r2
20000b86:	d005      	beq.n	20000b94 <sync_ep_buffer+0x80>
20000b88:	784a      	ldrb	r2, [r1, #1]
20000b8a:	705a      	strb	r2, [r3, #1]
20000b8c:	2f01      	cmp	r7, #1
20000b8e:	d001      	beq.n	20000b94 <sync_ep_buffer+0x80>
20000b90:	788a      	ldrb	r2, [r1, #2]
20000b92:	709a      	strb	r2, [r3, #2]
20000b94:	6904      	ldr	r4, [r0, #16]
20000b96:	8ac3      	ldrh	r3, [r0, #22]
20000b98:	1964      	adds	r4, r4, r5
20000b9a:	18eb      	adds	r3, r5, r3
20000b9c:	82c3      	strh	r3, [r0, #22]
20000b9e:	6104      	str	r4, [r0, #16]
20000ba0:	e7c6      	b.n	20000b30 <sync_ep_buffer+0x1c>
20000ba2:	2200      	movs	r2, #0
20000ba4:	5cb3      	ldrb	r3, [r6, r2]
20000ba6:	54a3      	strb	r3, [r4, r2]
20000ba8:	3201      	adds	r2, #1
20000baa:	4295      	cmp	r5, r2
20000bac:	d1fa      	bne.n	20000ba4 <sync_ep_buffer+0x90>
20000bae:	6904      	ldr	r4, [r0, #16]
20000bb0:	e7f1      	b.n	20000b96 <sync_ep_buffer+0x82>
20000bb2:	46c0      	nop			@ (mov r8, r8)

20000bb4 <_hw_endpoint_xfer_sync>:
20000bb4:	b510      	push	{r4, lr}
20000bb6:	0004      	movs	r4, r0
20000bb8:	6883      	ldr	r3, [r0, #8]
20000bba:	2100      	movs	r1, #0
20000bbc:	681b      	ldr	r3, [r3, #0]
20000bbe:	f7ff ffa9 	bl	20000b14 <sync_ep_buffer>
20000bc2:	6863      	ldr	r3, [r4, #4]
20000bc4:	681b      	ldr	r3, [r3, #0]
20000bc6:	005b      	lsls	r3, r3, #1
20000bc8:	d502      	bpl.n	20000bd0 <_hw_endpoint_xfer_sync+0x1c>
20000bca:	8b23      	ldrh	r3, [r4, #24]
20000bcc:	4283      	cmp	r3, r0
20000bce:	d000      	beq.n	20000bd2 <_hw_endpoint_xfer_sync+0x1e>
20000bd0:	bd10      	pop	{r4, pc}
20000bd2:	2101      	movs	r1, #1
20000bd4:	0020      	movs	r0, r4
20000bd6:	f7ff ff9d 	bl	20000b14 <sync_ep_buffer>
20000bda:	e7f9      	b.n	20000bd0 <_hw_endpoint_xfer_sync+0x1c>

20000bdc <e15_is_bulkin_ep>:
20000bdc:	4b08      	ldr	r3, [pc, #32]	@ (20000c00 <e15_is_bulkin_ep+0x24>)
20000bde:	6c1a      	ldr	r2, [r3, #64]	@ 0x40
20000be0:	2300      	movs	r3, #0
20000be2:	0792      	lsls	r2, r2, #30
20000be4:	d403      	bmi.n	20000bee <e15_is_bulkin_ep+0x12>
20000be6:	7882      	ldrb	r2, [r0, #2]
20000be8:	09d2      	lsrs	r2, r2, #7
20000bea:	2a01      	cmp	r2, #1
20000bec:	d001      	beq.n	20000bf2 <e15_is_bulkin_ep+0x16>
20000bee:	0018      	movs	r0, r3
20000bf0:	4770      	bx	lr
20000bf2:	7ec3      	ldrb	r3, [r0, #27]
20000bf4:	3b02      	subs	r3, #2
20000bf6:	425a      	negs	r2, r3
20000bf8:	4153      	adcs	r3, r2
20000bfa:	b2db      	uxtb	r3, r3
20000bfc:	e7f7      	b.n	20000bee <e15_is_bulkin_ep+0x12>
20000bfe:	46c0      	nop			@ (mov r8, r8)
20000c00:	50110000 	.word	0x50110000

20000c04 <e15_is_critical_frame_period>:
20000c04:	b510      	push	{r4, lr}
20000c06:	f7ff ffe9 	bl	20000bdc <e15_is_bulkin_ep>
20000c0a:	2800      	cmp	r0, #0
20000c0c:	d00a      	beq.n	20000c24 <e15_is_critical_frame_period+0x20>
20000c0e:	4b06      	ldr	r3, [pc, #24]	@ (20000c28 <e15_is_critical_frame_period+0x24>)
20000c10:	4a06      	ldr	r2, [pc, #24]	@ (20000c2c <e15_is_critical_frame_period+0x28>)
20000c12:	6a9b      	ldr	r3, [r3, #40]	@ 0x28
20000c14:	4906      	ldr	r1, [pc, #24]	@ (20000c30 <e15_is_critical_frame_period+0x2c>)
20000c16:	6812      	ldr	r2, [r2, #0]
20000c18:	185b      	adds	r3, r3, r1
20000c1a:	1a9b      	subs	r3, r3, r2
20000c1c:	2000      	movs	r0, #0
20000c1e:	22c6      	movs	r2, #198	@ 0xc6
20000c20:	429a      	cmp	r2, r3
20000c22:	4140      	adcs	r0, r0
20000c24:	bd10      	pop	{r4, pc}
20000c26:	46c0      	nop			@ (mov r8, r8)
20000c28:	40054000 	.word	0x40054000
20000c2c:	20001aec 	.word	0x20001aec
20000c30:	fffffce0 	.word	0xfffffce0

20000c34 <hw_endpoint_reset_transfer>:
20000c34:	2300      	movs	r3, #0
20000c36:	7683      	strb	r3, [r0, #26]
20000c38:	6143      	str	r3, [r0, #20]
20000c3a:	6103      	str	r3, [r0, #16]
20000c3c:	4770      	bx	lr
20000c3e:	46c0      	nop			@ (mov r8, r8)

20000c40 <_hw_endpoint_buffer_control_update32>:
20000c40:	b510      	push	{r4, lr}
20000c42:	6883      	ldr	r3, [r0, #8]
20000c44:	2900      	cmp	r1, #0
20000c46:	d001      	beq.n	20000c4c <_hw_endpoint_buffer_control_update32+0xc>
20000c48:	681c      	ldr	r4, [r3, #0]
20000c4a:	4021      	ands	r1, r4
20000c4c:	2a00      	cmp	r2, #0
20000c4e:	d012      	beq.n	20000c76 <_hw_endpoint_buffer_control_update32+0x36>
20000c50:	2480      	movs	r4, #128	@ 0x80
20000c52:	00e4      	lsls	r4, r4, #3
20000c54:	4311      	orrs	r1, r2
20000c56:	4222      	tst	r2, r4
20000c58:	d00d      	beq.n	20000c76 <_hw_endpoint_buffer_control_update32+0x36>
20000c5a:	681a      	ldr	r2, [r3, #0]
20000c5c:	4222      	tst	r2, r4
20000c5e:	d10c      	bne.n	20000c7a <_hw_endpoint_buffer_control_update32+0x3a>
20000c60:	4a08      	ldr	r2, [pc, #32]	@ (20000c84 <_hw_endpoint_buffer_control_update32+0x44>)
20000c62:	400a      	ands	r2, r1
20000c64:	601a      	str	r2, [r3, #0]
20000c66:	4a08      	ldr	r2, [pc, #32]	@ (20000c88 <_hw_endpoint_buffer_control_update32+0x48>)
20000c68:	6c12      	ldr	r2, [r2, #64]	@ 0x40
20000c6a:	0792      	lsls	r2, r2, #30
20000c6c:	d403      	bmi.n	20000c76 <_hw_endpoint_buffer_control_update32+0x36>
20000c6e:	230c      	movs	r3, #12
20000c70:	3b03      	subs	r3, #3
20000c72:	d2fd      	bcs.n	20000c70 <_hw_endpoint_buffer_control_update32+0x30>
20000c74:	6883      	ldr	r3, [r0, #8]
20000c76:	6019      	str	r1, [r3, #0]
20000c78:	bd10      	pop	{r4, pc}
20000c7a:	7881      	ldrb	r1, [r0, #2]
20000c7c:	4803      	ldr	r0, [pc, #12]	@ (20000c8c <_hw_endpoint_buffer_control_update32+0x4c>)
20000c7e:	f000 f973 	bl	20000f68 <__panic_veneer>
20000c82:	46c0      	nop			@ (mov r8, r8)
20000c84:	fffffbff 	.word	0xfffffbff
20000c88:	50110000 	.word	0x50110000
20000c8c:	100070f8 	.word	0x100070f8

20000c90 <hw_endpoint_start_next_buffer>:
20000c90:	6843      	ldr	r3, [r0, #4]
20000c92:	b570      	push	{r4, r5, r6, lr}
20000c94:	2100      	movs	r1, #0
20000c96:	2580      	movs	r5, #128	@ 0x80
20000c98:	0004      	movs	r4, r0
20000c9a:	681e      	ldr	r6, [r3, #0]
20000c9c:	f7ff fed8 	bl	20000a50 <prepare_ep_buffer>
20000ca0:	4b12      	ldr	r3, [pc, #72]	@ (20000cec <hw_endpoint_start_next_buffer+0x5c>)
20000ca2:	016d      	lsls	r5, r5, #5
20000ca4:	6c1a      	ldr	r2, [r3, #64]	@ 0x40
20000ca6:	4305      	orrs	r5, r0
20000ca8:	78a3      	ldrb	r3, [r4, #2]
20000caa:	0792      	lsls	r2, r2, #30
20000cac:	d50e      	bpl.n	20000ccc <hw_endpoint_start_next_buffer+0x3c>
20000cae:	065b      	lsls	r3, r3, #25
20000cb0:	d00e      	beq.n	20000cd0 <hw_endpoint_start_next_buffer+0x40>
20000cb2:	4b0f      	ldr	r3, [pc, #60]	@ (20000cf0 <hw_endpoint_start_next_buffer+0x60>)
20000cb4:	401e      	ands	r6, r3
20000cb6:	2380      	movs	r3, #128	@ 0x80
20000cb8:	059b      	lsls	r3, r3, #22
20000cba:	4333      	orrs	r3, r6
20000cbc:	6862      	ldr	r2, [r4, #4]
20000cbe:	2100      	movs	r1, #0
20000cc0:	6013      	str	r3, [r2, #0]
20000cc2:	0020      	movs	r0, r4
20000cc4:	002a      	movs	r2, r5
20000cc6:	f7ff ffbb 	bl	20000c40 <_hw_endpoint_buffer_control_update32>
20000cca:	bd70      	pop	{r4, r5, r6, pc}
20000ccc:	09db      	lsrs	r3, r3, #7
20000cce:	d0f0      	beq.n	20000cb2 <hw_endpoint_start_next_buffer+0x22>
20000cd0:	8aa3      	ldrh	r3, [r4, #20]
20000cd2:	2b00      	cmp	r3, #0
20000cd4:	d0ed      	beq.n	20000cb2 <hw_endpoint_start_next_buffer+0x22>
20000cd6:	2101      	movs	r1, #1
20000cd8:	0020      	movs	r0, r4
20000cda:	f7ff feb9 	bl	20000a50 <prepare_ep_buffer>
20000cde:	23a0      	movs	r3, #160	@ 0xa0
20000ce0:	4a04      	ldr	r2, [pc, #16]	@ (20000cf4 <hw_endpoint_start_next_buffer+0x64>)
20000ce2:	05db      	lsls	r3, r3, #23
20000ce4:	4032      	ands	r2, r6
20000ce6:	4305      	orrs	r5, r0
20000ce8:	4313      	orrs	r3, r2
20000cea:	e7e7      	b.n	20000cbc <hw_endpoint_start_next_buffer+0x2c>
20000cec:	50110000 	.word	0x50110000
20000cf0:	afffffff 	.word	0xafffffff
20000cf4:	dfffffff 	.word	0xdfffffff

20000cf8 <hw_endpoint_xfer_continue>:
20000cf8:	b570      	push	{r4, r5, r6, lr}
20000cfa:	7e85      	ldrb	r5, [r0, #26]
20000cfc:	0004      	movs	r4, r0
20000cfe:	2d00      	cmp	r5, #0
20000d00:	d014      	beq.n	20000d2c <hw_endpoint_xfer_continue+0x34>
20000d02:	f7ff ff57 	bl	20000bb4 <_hw_endpoint_xfer_sync>
20000d06:	8aa3      	ldrh	r3, [r4, #20]
20000d08:	2b00      	cmp	r3, #0
20000d0a:	d101      	bne.n	20000d10 <hw_endpoint_xfer_continue+0x18>
20000d0c:	0028      	movs	r0, r5
20000d0e:	bd70      	pop	{r4, r5, r6, pc}
20000d10:	0020      	movs	r0, r4
20000d12:	f7ff ff77 	bl	20000c04 <e15_is_critical_frame_period>
20000d16:	2800      	cmp	r0, #0
20000d18:	d003      	beq.n	20000d22 <hw_endpoint_xfer_continue+0x2a>
20000d1a:	2301      	movs	r3, #1
20000d1c:	2500      	movs	r5, #0
20000d1e:	7723      	strb	r3, [r4, #28]
20000d20:	e7f4      	b.n	20000d0c <hw_endpoint_xfer_continue+0x14>
20000d22:	0020      	movs	r0, r4
20000d24:	f7ff ffb4 	bl	20000c90 <hw_endpoint_start_next_buffer>
20000d28:	2500      	movs	r5, #0
20000d2a:	e7ef      	b.n	20000d0c <hw_endpoint_xfer_continue+0x14>
20000d2c:	7881      	ldrb	r1, [r0, #2]
20000d2e:	4801      	ldr	r0, [pc, #4]	@ (20000d34 <hw_endpoint_xfer_continue+0x3c>)
20000d30:	f000 f91a 	bl	20000f68 <__panic_veneer>
20000d34:	10007118 	.word	0x10007118

20000d38 <dcd_event_handler>:
20000d38:	b5f0      	push	{r4, r5, r6, r7, lr}
20000d3a:	4647      	mov	r7, r8
20000d3c:	46ce      	mov	lr, r9
20000d3e:	b580      	push	{r7, lr}
20000d40:	7843      	ldrb	r3, [r0, #1]
20000d42:	0005      	movs	r5, r0
20000d44:	000f      	movs	r7, r1
20000d46:	b085      	sub	sp, #20
20000d48:	2b06      	cmp	r3, #6
20000d4a:	d807      	bhi.n	20000d5c <dcd_event_handler+0x24>
20000d4c:	4a69      	ldr	r2, [pc, #420]	@ (20000ef4 <dcd_event_handler+0x1bc>)
20000d4e:	009b      	lsls	r3, r3, #2
20000d50:	58d3      	ldr	r3, [r2, r3]
20000d52:	469f      	mov	pc, r3
20000d54:	4a68      	ldr	r2, [pc, #416]	@ (20000ef8 <dcd_event_handler+0x1c0>)
20000d56:	7813      	ldrb	r3, [r2, #0]
20000d58:	3301      	adds	r3, #1
20000d5a:	7013      	strb	r3, [r2, #0]
20000d5c:	4b67      	ldr	r3, [pc, #412]	@ (20000efc <dcd_event_handler+0x1c4>)
20000d5e:	681c      	ldr	r4, [r3, #0]
20000d60:	6962      	ldr	r2, [r4, #20]
20000d62:	f3ef 8110 	mrs	r1, PRIMASK
20000d66:	b672      	cpsid	i
20000d68:	6813      	ldr	r3, [r2, #0]
20000d6a:	2b00      	cmp	r3, #0
20000d6c:	d0fc      	beq.n	20000d68 <dcd_event_handler+0x30>
20000d6e:	f3bf 8f5f 	dmb	sy
20000d72:	61a1      	str	r1, [r4, #24]
20000d74:	0020      	movs	r0, r4
20000d76:	0029      	movs	r1, r5
20000d78:	f000 f8e6 	bl	20000f48 <__tu_fifo_write_veneer>
20000d7c:	6962      	ldr	r2, [r4, #20]
20000d7e:	69a3      	ldr	r3, [r4, #24]
20000d80:	f3bf 8f5f 	dmb	sy
20000d84:	2100      	movs	r1, #0
20000d86:	6011      	str	r1, [r2, #0]
20000d88:	f383 8810 	msr	PRIMASK, r3
20000d8c:	2800      	cmp	r0, #0
20000d8e:	d104      	bne.n	20000d9a <dcd_event_handler+0x62>
20000d90:	b005      	add	sp, #20
20000d92:	bcc0      	pop	{r6, r7}
20000d94:	46b9      	mov	r9, r7
20000d96:	46b0      	mov	r8, r6
20000d98:	bdf0      	pop	{r4, r5, r6, r7, pc}
20000d9a:	003a      	movs	r2, r7
20000d9c:	7869      	ldrb	r1, [r5, #1]
20000d9e:	7828      	ldrb	r0, [r5, #0]
20000da0:	f000 f8ba 	bl	20000f18 <__tud_event_hook_cb_veneer>
20000da4:	e7f4      	b.n	20000d90 <dcd_event_handler+0x58>
20000da6:	2101      	movs	r1, #1
20000da8:	4b55      	ldr	r3, [pc, #340]	@ (20000f00 <dcd_event_handler+0x1c8>)
20000daa:	781a      	ldrb	r2, [r3, #0]
20000dac:	438a      	bics	r2, r1
20000dae:	701a      	strb	r2, [r3, #0]
20000db0:	781a      	ldrb	r2, [r3, #0]
20000db2:	3101      	adds	r1, #1
20000db4:	438a      	bics	r2, r1
20000db6:	701a      	strb	r2, [r3, #0]
20000db8:	2200      	movs	r2, #0
20000dba:	705a      	strb	r2, [r3, #1]
20000dbc:	781a      	ldrb	r2, [r3, #0]
20000dbe:	3102      	adds	r1, #2
20000dc0:	438a      	bics	r2, r1
20000dc2:	701a      	strb	r2, [r3, #0]
20000dc4:	e7ca      	b.n	20000d5c <dcd_event_handler+0x24>
20000dc6:	494f      	ldr	r1, [pc, #316]	@ (20000f04 <dcd_event_handler+0x1cc>)
20000dc8:	4b4f      	ldr	r3, [pc, #316]	@ (20000f08 <dcd_event_handler+0x1d0>)
20000dca:	4688      	mov	r8, r1
20000dcc:	494f      	ldr	r1, [pc, #316]	@ (20000f0c <dcd_event_handler+0x1d4>)
20000dce:	001e      	movs	r6, r3
20000dd0:	781a      	ldrb	r2, [r3, #0]
20000dd2:	2400      	movs	r4, #0
20000dd4:	2300      	movs	r3, #0
20000dd6:	4689      	mov	r9, r1
20000dd8:	e012      	b.n	20000e00 <dcd_event_handler+0xc8>
20000dda:	464b      	mov	r3, r9
20000ddc:	681b      	ldr	r3, [r3, #0]
20000dde:	0161      	lsls	r1, r4, #5
20000de0:	185b      	adds	r3, r3, r1
20000de2:	2b00      	cmp	r3, #0
20000de4:	d006      	beq.n	20000df4 <dcd_event_handler+0xbc>
20000de6:	69db      	ldr	r3, [r3, #28]
20000de8:	2b00      	cmp	r3, #0
20000dea:	d003      	beq.n	20000df4 <dcd_event_handler+0xbc>
20000dec:	6869      	ldr	r1, [r5, #4]
20000dee:	7828      	ldrb	r0, [r5, #0]
20000df0:	4798      	blx	r3
20000df2:	7832      	ldrb	r2, [r6, #0]
20000df4:	3401      	adds	r4, #1
20000df6:	b2e4      	uxtb	r4, r4
20000df8:	1c51      	adds	r1, r2, #1
20000dfa:	0023      	movs	r3, r4
20000dfc:	42a1      	cmp	r1, r4
20000dfe:	db17      	blt.n	20000e30 <dcd_event_handler+0xf8>
20000e00:	42a2      	cmp	r2, r4
20000e02:	d8ea      	bhi.n	20000dda <dcd_event_handler+0xa2>
20000e04:	1a9b      	subs	r3, r3, r2
20000e06:	015b      	lsls	r3, r3, #5
20000e08:	4443      	add	r3, r8
20000e0a:	e7ec      	b.n	20000de6 <dcd_event_handler+0xae>
20000e0c:	4b3c      	ldr	r3, [pc, #240]	@ (20000f00 <dcd_event_handler+0x1c8>)
20000e0e:	781a      	ldrb	r2, [r3, #0]
20000e10:	07d2      	lsls	r2, r2, #31
20000e12:	d5bd      	bpl.n	20000d90 <dcd_event_handler+0x58>
20000e14:	2104      	movs	r1, #4
20000e16:	781a      	ldrb	r2, [r3, #0]
20000e18:	430a      	orrs	r2, r1
20000e1a:	701a      	strb	r2, [r3, #0]
20000e1c:	e79e      	b.n	20000d5c <dcd_event_handler+0x24>
20000e1e:	4b38      	ldr	r3, [pc, #224]	@ (20000f00 <dcd_event_handler+0x1c8>)
20000e20:	781a      	ldrb	r2, [r3, #0]
20000e22:	07d2      	lsls	r2, r2, #31
20000e24:	d5b4      	bpl.n	20000d90 <dcd_event_handler+0x58>
20000e26:	2104      	movs	r1, #4
20000e28:	781a      	ldrb	r2, [r3, #0]
20000e2a:	438a      	bics	r2, r1
20000e2c:	701a      	strb	r2, [r3, #0]
20000e2e:	e795      	b.n	20000d5c <dcd_event_handler+0x24>
20000e30:	4a33      	ldr	r2, [pc, #204]	@ (20000f00 <dcd_event_handler+0x1c8>)
20000e32:	7813      	ldrb	r3, [r2, #0]
20000e34:	4690      	mov	r8, r2
20000e36:	0011      	movs	r1, r2
20000e38:	075b      	lsls	r3, r3, #29
20000e3a:	d528      	bpl.n	20000e8e <dcd_event_handler+0x156>
20000e3c:	7813      	ldrb	r3, [r2, #0]
20000e3e:	2204      	movs	r2, #4
20000e40:	ac01      	add	r4, sp, #4
20000e42:	4393      	bics	r3, r2
20000e44:	700b      	strb	r3, [r1, #0]
20000e46:	0020      	movs	r0, r4
20000e48:	2100      	movs	r1, #0
20000e4a:	3208      	adds	r2, #8
20000e4c:	f000 f874 	bl	20000f38 <____wrap_memset_veneer>
20000e50:	782b      	ldrb	r3, [r5, #0]
20000e52:	7023      	strb	r3, [r4, #0]
20000e54:	2305      	movs	r3, #5
20000e56:	7063      	strb	r3, [r4, #1]
20000e58:	4b28      	ldr	r3, [pc, #160]	@ (20000efc <dcd_event_handler+0x1c4>)
20000e5a:	681b      	ldr	r3, [r3, #0]
20000e5c:	0018      	movs	r0, r3
20000e5e:	695a      	ldr	r2, [r3, #20]
20000e60:	f3ef 8110 	mrs	r1, PRIMASK
20000e64:	b672      	cpsid	i
20000e66:	6813      	ldr	r3, [r2, #0]
20000e68:	2b00      	cmp	r3, #0
20000e6a:	d0fc      	beq.n	20000e66 <dcd_event_handler+0x12e>
20000e6c:	f3bf 8f5f 	dmb	sy
20000e70:	0006      	movs	r6, r0
20000e72:	6181      	str	r1, [r0, #24]
20000e74:	0021      	movs	r1, r4
20000e76:	f000 f867 	bl	20000f48 <__tu_fifo_write_veneer>
20000e7a:	6972      	ldr	r2, [r6, #20]
20000e7c:	69b3      	ldr	r3, [r6, #24]
20000e7e:	f3bf 8f5f 	dmb	sy
20000e82:	2100      	movs	r1, #0
20000e84:	6011      	str	r1, [r2, #0]
20000e86:	f383 8810 	msr	PRIMASK, r3
20000e8a:	2800      	cmp	r0, #0
20000e8c:	d12c      	bne.n	20000ee8 <dcd_event_handler+0x1b0>
20000e8e:	4643      	mov	r3, r8
20000e90:	78db      	ldrb	r3, [r3, #3]
20000e92:	07db      	lsls	r3, r3, #31
20000e94:	d400      	bmi.n	20000e98 <dcd_event_handler+0x160>
20000e96:	e77b      	b.n	20000d90 <dcd_event_handler+0x58>
20000e98:	782b      	ldrb	r3, [r5, #0]
20000e9a:	ac01      	add	r4, sp, #4
20000e9c:	7023      	strb	r3, [r4, #0]
20000e9e:	2303      	movs	r3, #3
20000ea0:	7063      	strb	r3, [r4, #1]
20000ea2:	686b      	ldr	r3, [r5, #4]
20000ea4:	6063      	str	r3, [r4, #4]
20000ea6:	4b15      	ldr	r3, [pc, #84]	@ (20000efc <dcd_event_handler+0x1c4>)
20000ea8:	681d      	ldr	r5, [r3, #0]
20000eaa:	696a      	ldr	r2, [r5, #20]
20000eac:	f3ef 8110 	mrs	r1, PRIMASK
20000eb0:	b672      	cpsid	i
20000eb2:	6813      	ldr	r3, [r2, #0]
20000eb4:	2b00      	cmp	r3, #0
20000eb6:	d0fc      	beq.n	20000eb2 <dcd_event_handler+0x17a>
20000eb8:	f3bf 8f5f 	dmb	sy
20000ebc:	61a9      	str	r1, [r5, #24]
20000ebe:	0028      	movs	r0, r5
20000ec0:	0021      	movs	r1, r4
20000ec2:	f000 f841 	bl	20000f48 <__tu_fifo_write_veneer>
20000ec6:	696a      	ldr	r2, [r5, #20]
20000ec8:	69ab      	ldr	r3, [r5, #24]
20000eca:	f3bf 8f5f 	dmb	sy
20000ece:	2100      	movs	r1, #0
20000ed0:	6011      	str	r1, [r2, #0]
20000ed2:	f383 8810 	msr	PRIMASK, r3
20000ed6:	2800      	cmp	r0, #0
20000ed8:	d100      	bne.n	20000edc <dcd_event_handler+0x1a4>
20000eda:	e759      	b.n	20000d90 <dcd_event_handler+0x58>
20000edc:	003a      	movs	r2, r7
20000ede:	7861      	ldrb	r1, [r4, #1]
20000ee0:	7820      	ldrb	r0, [r4, #0]
20000ee2:	f000 f819 	bl	20000f18 <__tud_event_hook_cb_veneer>
20000ee6:	e753      	b.n	20000d90 <dcd_event_handler+0x58>
20000ee8:	003a      	movs	r2, r7
20000eea:	7861      	ldrb	r1, [r4, #1]
20000eec:	7820      	ldrb	r0, [r4, #0]
20000eee:	f000 f813 	bl	20000f18 <__tud_event_hook_cb_veneer>
20000ef2:	e7cc      	b.n	20000e8e <dcd_event_handler+0x156>
20000ef4:	10007810 	.word	0x10007810
20000ef8:	20001f5b 	.word	0x20001f5b
20000efc:	200015f8 	.word	0x200015f8
20000f00:	200015a0 	.word	0x200015a0
20000f04:	1000782c 	.word	0x1000782c
20000f08:	20001f59 	.word	0x20001f59
20000f0c:	200014b8 	.word	0x200014b8

20000f10 <__aeabi_idiv0>:
20000f10:	4770      	bx	lr
20000f12:	46c0      	nop			@ (mov r8, r8)
20000f14:	0000      	movs	r0, r0
	...

20000f18 <__tud_event_hook_cb_veneer>:
20000f18:	b401      	push	{r0}
20000f1a:	4802      	ldr	r0, [pc, #8]	@ (20000f24 <__tud_event_hook_cb_veneer+0xc>)
20000f1c:	4684      	mov	ip, r0
20000f1e:	bc01      	pop	{r0}
20000f20:	4760      	bx	ip
20000f22:	bf00      	nop
20000f24:	10004d05 	.word	0x10004d05

20000f28 <__best_effort_wfe_or_timeout_veneer>:
20000f28:	b401      	push	{r0}
20000f2a:	4802      	ldr	r0, [pc, #8]	@ (20000f34 <__best_effort_wfe_or_timeout_veneer+0xc>)
20000f2c:	4684      	mov	ip, r0
20000f2e:	bc01      	pop	{r0}
20000f30:	4760      	bx	ip
20000f32:	bf00      	nop
20000f34:	10001185 	.word	0x10001185

20000f38 <____wrap_memset_veneer>:
20000f38:	b401      	push	{r0}
20000f3a:	4802      	ldr	r0, [pc, #8]	@ (20000f44 <____wrap_memset_veneer+0xc>)
20000f3c:	4684      	mov	ip, r0
20000f3e:	bc01      	pop	{r0}
20000f40:	4760      	bx	ip
20000f42:	bf00      	nop
20000f44:	1000268d 	.word	0x1000268d

20000f48 <__tu_fifo_write_veneer>:
20000f48:	b401      	push	{r0}
20000f4a:	4802      	ldr	r0, [pc, #8]	@ (20000f54 <__tu_fifo_write_veneer+0xc>)
20000f4c:	4684      	mov	ip, r0
20000f4e:	bc01      	pop	{r0}
20000f50:	4760      	bx	ip
20000f52:	bf00      	nop
20000f54:	10006735 	.word	0x10006735

20000f58 <__rp2040_chip_version_veneer>:
20000f58:	b401      	push	{r0}
20000f5a:	4802      	ldr	r0, [pc, #8]	@ (20000f64 <__rp2040_chip_version_veneer+0xc>)
20000f5c:	4684      	mov	ip, r0
20000f5e:	bc01      	pop	{r0}
20000f60:	4760      	bx	ip
20000f62:	bf00      	nop
20000f64:	100004c1 	.word	0x100004c1

20000f68 <__panic_veneer>:
20000f68:	b401      	push	{r0}
20000f6a:	4802      	ldr	r0, [pc, #8]	@ (20000f74 <__panic_veneer+0xc>)
20000f6c:	4684      	mov	ip, r0
20000f6e:	bc01      	pop	{r0}
20000f70:	4760      	bx	ip
20000f72:	bf00      	nop
20000f74:	100004cd 	.word	0x100004cd

20000f78 <____wrap___aeabi_lmul_veneer>:
20000f78:	b401      	push	{r0}
20000f7a:	4802      	ldr	r0, [pc, #8]	@ (20000f84 <____wrap___aeabi_lmul_veneer+0xc>)
20000f7c:	4684      	mov	ip, r0
20000f7e:	bc01      	pop	{r0}
20000f80:	4760      	bx	ip
20000f82:	bf00      	nop
20000f84:	100025b5 	.word	0x100025b5

20000f88 <__time_us_64_veneer>:
20000f88:	b401      	push	{r0}
20000f8a:	4802      	ldr	r0, [pc, #8]	@ (20000f94 <__time_us_64_veneer+0xc>)
20000f8c:	4684      	mov	ip, r0
20000f8e:	bc01      	pop	{r0}
20000f90:	4760      	bx	ip
20000f92:	bf00      	nop
20000f94:	100012a9 	.word	0x100012a9

20000f98 <striped_spin_lock_num>:
20000f98:	00000010                                ....

20000f9c <irq_handler_chain_slots>:
20000f9c:	00000000 	.word	0x00000000
20000fa0:	00010000 	.word	0x00010000
	...
20000fac:	00020000 	.word	0x00020000
	...
20000fb8:	00030000 	.word	0x00030000
	...
20000fc4:	00ff0000 	.word	0x00ff0000
20000fc8:	00000000 	.word	0x00000000

20000fcc <irq_handler_chain_first_slot>:
20000fcc:	b501      	push	{r0, lr}
20000fce:	6848      	ldr	r0, [r1, #4]
20000fd0:	3101      	adds	r1, #1
20000fd2:	468e      	mov	lr, r1
20000fd4:	4700      	bx	r0

20000fd6 <irq_handler_chain_remove_tail>:
20000fd6:	4670      	mov	r0, lr
20000fd8:	3809      	subs	r0, #9
20000fda:	4901      	ldr	r1, [pc, #4]	@ (20000fe0 <irq_handler_chain_remove_tail+0xa>)
20000fdc:	4788      	blx	r1
20000fde:	bd01      	pop	{r0, pc}
20000fe0:	100008fd 	.word	0x100008fd

20000fe4 <default_alarm_pool>:
	...
20000ff8:	20001130 00000000                       0.. ....

20001000 <aeabi_bits_funcs>:
20001000:	00003350 	.word	0x00003350
20001004:	0000334c 	.word	0x0000334c
20001008:	00003354 	.word	0x00003354
2000100c:	00003352 	.word	0x00003352

20001010 <aeabi_bits_funcs_end>:
20001010:	0000534d 	.word	0x0000534d
20001014:	0000434d 	.word	0x0000434d
20001018:	00003453 	.word	0x00003453
2000101c:	00003443 	.word	0x00003443

20001020 <stdio_usb>:
20001020:	100044a5 10004459 100043cd 10004345     .D..YD...C..EC..
20001030:	00000000 00000100                       ........

20001038 <_usbd_qdef>:
20001038:	200015fc 000c0010 00000000 00000000     ... ............
	...

20001054 <_usbd_rhport>:
20001054:	000000ff                                ....

20001058 <i2c0_inst>:
20001058:	40044000 00000000                       .@.@....

20001060 <print_mutex>:
	...
